
aos2soa:     file format elf64-x86-64


Disassembly of section .init:

<_init>:
	endbr64
	sub    $0x8,%rsp
	mov    0x69fc9(%rip),%rax        # <__gmon_start__@Base>
	test   %rax,%rax
	je     <_init+0x16>
	call   *%rax
	add    $0x8,%rsp
	ret

Disassembly of section .plt:

<.plt>:
	push   0x69ada(%rip)        # <_GLOBAL_OFFSET_TABLE_+0x8>
	jmp    *0x69adc(%rip)        # <_GLOBAL_OFFSET_TABLE_+0x10>
	nopl   0x0(%rax)
	endbr64
	push   $0x0
	jmp    <_init+0x20>
	xchg   %ax,%ax
	endbr64
	push   $0x1
	jmp    <_init+0x20>
	xchg   %ax,%ax
	endbr64
	push   $0x2
	jmp    <_init+0x20>
	xchg   %ax,%ax
	endbr64
	push   $0x3
	jmp    <_init+0x20>
	xchg   %ax,%ax
	endbr64
	push   $0x4
	jmp    <_init+0x20>
	xchg   %ax,%ax
	endbr64
	push   $0x5
	jmp    <_init+0x20>
	xchg   %ax,%ax
	endbr64
	push   $0x6
	jmp    <_init+0x20>
	xchg   %ax,%ax
	endbr64
	push   $0x7
	jmp    <_init+0x20>
	xchg   %ax,%ax
	endbr64
	push   $0x8
	jmp    <_init+0x20>
	xchg   %ax,%ax
	endbr64
	push   $0x9
	jmp    <_init+0x20>
	xchg   %ax,%ax
	endbr64
	push   $0xa
	jmp    <_init+0x20>
	xchg   %ax,%ax
	endbr64
	push   $0xb
	jmp    <_init+0x20>
	xchg   %ax,%ax
	endbr64
	push   $0xc
	jmp    <_init+0x20>
	xchg   %ax,%ax
	endbr64
	push   $0xd
	jmp    <_init+0x20>
	xchg   %ax,%ax
	endbr64
	push   $0xe
	jmp    <_init+0x20>
	xchg   %ax,%ax
	endbr64
	push   $0xf
	jmp    <_init+0x20>
	xchg   %ax,%ax
	endbr64
	push   $0x10
	jmp    <_init+0x20>
	xchg   %ax,%ax
	endbr64
	push   $0x11
	jmp    <_init+0x20>
	xchg   %ax,%ax
	endbr64
	push   $0x12
	jmp    <_init+0x20>
	xchg   %ax,%ax
	endbr64
	push   $0x13
	jmp    <_init+0x20>
	xchg   %ax,%ax
	endbr64
	push   $0x14
	jmp    <_init+0x20>
	xchg   %ax,%ax
	endbr64
	push   $0x15
	jmp    <_init+0x20>
	xchg   %ax,%ax
	endbr64
	push   $0x16
	jmp    <_init+0x20>
	xchg   %ax,%ax
	endbr64
	push   $0x17
	jmp    <_init+0x20>
	xchg   %ax,%ax
	endbr64
	push   $0x18
	jmp    <_init+0x20>
	xchg   %ax,%ax
	endbr64
	push   $0x19
	jmp    <_init+0x20>
	xchg   %ax,%ax
	endbr64
	push   $0x1a
	jmp    <_init+0x20>
	xchg   %ax,%ax
	endbr64
	push   $0x1b
	jmp    <_init+0x20>
	xchg   %ax,%ax
	endbr64
	push   $0x1c
	jmp    <_init+0x20>
	xchg   %ax,%ax
	endbr64
	push   $0x1d
	jmp    <_init+0x20>
	xchg   %ax,%ax
	endbr64
	push   $0x1e
	jmp    <_init+0x20>
	xchg   %ax,%ax
	endbr64
	push   $0x1f
	jmp    <_init+0x20>
	xchg   %ax,%ax
	endbr64
	push   $0x20
	jmp    <_init+0x20>
	xchg   %ax,%ax
	endbr64
	push   $0x21
	jmp    <_init+0x20>
	xchg   %ax,%ax
	endbr64
	push   $0x22
	jmp    <_init+0x20>
	xchg   %ax,%ax
	endbr64
	push   $0x23
	jmp    <_init+0x20>
	xchg   %ax,%ax
	endbr64
	push   $0x24
	jmp    <_init+0x20>
	xchg   %ax,%ax
	endbr64
	push   $0x25
	jmp    <_init+0x20>
	xchg   %ax,%ax
	endbr64
	push   $0x26
	jmp    <_init+0x20>
	xchg   %ax,%ax
	endbr64
	push   $0x27
	jmp    <_init+0x20>
	xchg   %ax,%ax
	endbr64
	push   $0x28
	jmp    <_init+0x20>
	xchg   %ax,%ax
	endbr64
	push   $0x29
	jmp    <_init+0x20>
	xchg   %ax,%ax
	endbr64
	push   $0x2a
	jmp    <_init+0x20>
	xchg   %ax,%ax
	endbr64
	push   $0x2b
	jmp    <_init+0x20>
	xchg   %ax,%ax
	endbr64
	push   $0x2c
	jmp    <_init+0x20>
	xchg   %ax,%ax
	endbr64
	push   $0x2d
	jmp    <_init+0x20>
	xchg   %ax,%ax
	endbr64
	push   $0x2e
	jmp    <_init+0x20>
	xchg   %ax,%ax
	endbr64
	push   $0x2f
	jmp    <_init+0x20>
	xchg   %ax,%ax
	endbr64
	push   $0x30
	jmp    <_init+0x20>
	xchg   %ax,%ax
	endbr64
	push   $0x31
	jmp    <_init+0x20>
	xchg   %ax,%ax
	endbr64
	push   $0x32
	jmp    <_init+0x20>
	xchg   %ax,%ax
	endbr64
	push   $0x33
	jmp    <_init+0x20>
	xchg   %ax,%ax
	endbr64
	push   $0x34
	jmp    <_init+0x20>
	xchg   %ax,%ax
	endbr64
	push   $0x35
	jmp    <_init+0x20>
	xchg   %ax,%ax
	endbr64
	push   $0x36
	jmp    <_init+0x20>
	xchg   %ax,%ax
	endbr64
	push   $0x37
	jmp    <_init+0x20>
	xchg   %ax,%ax
	endbr64
	push   $0x38
	jmp    <_init+0x20>
	xchg   %ax,%ax
	endbr64
	push   $0x39
	jmp    <_init+0x20>
	xchg   %ax,%ax
	endbr64
	push   $0x3a
	jmp    <_init+0x20>
	xchg   %ax,%ax
	endbr64
	push   $0x3b
	jmp    <_init+0x20>
	xchg   %ax,%ax
	endbr64
	push   $0x3c
	jmp    <_init+0x20>
	xchg   %ax,%ax
	endbr64
	push   $0x3d
	jmp    <_init+0x20>
	xchg   %ax,%ax
	endbr64
	push   $0x3e
	jmp    <_init+0x20>
	xchg   %ax,%ax
	endbr64
	push   $0x3f
	jmp    <_init+0x20>
	xchg   %ax,%ax
	endbr64
	push   $0x40
	jmp    <_init+0x20>
	xchg   %ax,%ax
	endbr64
	push   $0x41
	jmp    <_init+0x20>
	xchg   %ax,%ax
	endbr64
	push   $0x42
	jmp    <_init+0x20>
	xchg   %ax,%ax
	endbr64
	push   $0x43
	jmp    <_init+0x20>
	xchg   %ax,%ax
	endbr64
	push   $0x44
	jmp    <_init+0x20>
	xchg   %ax,%ax
	endbr64
	push   $0x45
	jmp    <_init+0x20>
	xchg   %ax,%ax
	endbr64
	push   $0x46
	jmp    <_init+0x20>
	xchg   %ax,%ax
	endbr64
	push   $0x47
	jmp    <_init+0x20>
	xchg   %ax,%ax
	endbr64
	push   $0x48
	jmp    <_init+0x20>
	xchg   %ax,%ax
	endbr64
	push   $0x49
	jmp    <_init+0x20>
	xchg   %ax,%ax
	endbr64
	push   $0x4a
	jmp    <_init+0x20>
	xchg   %ax,%ax
	endbr64
	push   $0x4b
	jmp    <_init+0x20>
	xchg   %ax,%ax
	endbr64
	push   $0x4c
	jmp    <_init+0x20>
	xchg   %ax,%ax
	endbr64
	push   $0x4d
	jmp    <_init+0x20>
	xchg   %ax,%ax
	endbr64
	push   $0x4e
	jmp    <_init+0x20>
	xchg   %ax,%ax
	endbr64
	push   $0x4f
	jmp    <_init+0x20>
	xchg   %ax,%ax
	endbr64
	push   $0x50
	jmp    <_init+0x20>
	xchg   %ax,%ax
	endbr64
	push   $0x51
	jmp    <_init+0x20>
	xchg   %ax,%ax
	endbr64
	push   $0x52
	jmp    <_init+0x20>
	xchg   %ax,%ax
	endbr64
	push   $0x53
	jmp    <_init+0x20>
	xchg   %ax,%ax
	endbr64
	push   $0x54
	jmp    <_init+0x20>
	xchg   %ax,%ax
	endbr64
	push   $0x55
	jmp    <_init+0x20>
	xchg   %ax,%ax
	endbr64
	push   $0x56
	jmp    <_init+0x20>
	xchg   %ax,%ax
	endbr64
	push   $0x57
	jmp    <_init+0x20>
	xchg   %ax,%ax
	endbr64
	push   $0x58
	jmp    <_init+0x20>
	xchg   %ax,%ax
	endbr64
	push   $0x59
	jmp    <_init+0x20>
	xchg   %ax,%ax
	endbr64
	push   $0x5a
	jmp    <_init+0x20>
	xchg   %ax,%ax
	endbr64
	push   $0x5b
	jmp    <_init+0x20>
	xchg   %ax,%ax
	endbr64
	push   $0x5c
	jmp    <_init+0x20>
	xchg   %ax,%ax
	endbr64
	push   $0x5d
	jmp    <_init+0x20>
	xchg   %ax,%ax
	endbr64
	push   $0x5e
	jmp    <_init+0x20>
	xchg   %ax,%ax
	endbr64
	push   $0x5f
	jmp    <_init+0x20>
	xchg   %ax,%ax
	endbr64
	push   $0x60
	jmp    <_init+0x20>
	xchg   %ax,%ax
	endbr64
	push   $0x61
	jmp    <_init+0x20>
	xchg   %ax,%ax
	endbr64
	push   $0x62
	jmp    <_init+0x20>
	xchg   %ax,%ax
	endbr64
	push   $0x63
	jmp    <_init+0x20>
	xchg   %ax,%ax
	endbr64
	push   $0x64
	jmp    <_init+0x20>
	xchg   %ax,%ax
	endbr64
	push   $0x65
	jmp    <_init+0x20>
	xchg   %ax,%ax
	endbr64
	push   $0x66
	jmp    <_init+0x20>
	xchg   %ax,%ax
	endbr64
	push   $0x67
	jmp    <_init+0x20>
	xchg   %ax,%ax
	endbr64
	push   $0x68
	jmp    <_init+0x20>
	xchg   %ax,%ax
	endbr64
	push   $0x69
	jmp    <_init+0x20>
	xchg   %ax,%ax
	endbr64
	push   $0x6a
	jmp    <_init+0x20>
	xchg   %ax,%ax
	endbr64
	push   $0x6b
	jmp    <_init+0x20>
	xchg   %ax,%ax
	endbr64
	push   $0x6c
	jmp    <_init+0x20>
	xchg   %ax,%ax
	endbr64
	push   $0x6d
	jmp    <_init+0x20>
	xchg   %ax,%ax
	endbr64
	push   $0x6e
	jmp    <_init+0x20>
	xchg   %ax,%ax
	endbr64
	push   $0x6f
	jmp    <_init+0x20>
	xchg   %ax,%ax
	endbr64
	push   $0x70
	jmp    <_init+0x20>
	xchg   %ax,%ax
	endbr64
	push   $0x71
	jmp    <_init+0x20>
	xchg   %ax,%ax
	endbr64
	push   $0x72
	jmp    <_init+0x20>
	xchg   %ax,%ax
	endbr64
	push   $0x73
	jmp    <_init+0x20>
	xchg   %ax,%ax
	endbr64
	push   $0x74
	jmp    <_init+0x20>
	xchg   %ax,%ax
	endbr64
	push   $0x75
	jmp    <_init+0x20>
	xchg   %ax,%ax
	endbr64
	push   $0x76
	jmp    <_init+0x20>
	xchg   %ax,%ax
	endbr64
	push   $0x77
	jmp    <_init+0x20>
	xchg   %ax,%ax
	endbr64
	push   $0x78
	jmp    <_init+0x20>
	xchg   %ax,%ax
	endbr64
	push   $0x79
	jmp    <_init+0x20>
	xchg   %ax,%ax
	endbr64
	push   $0x7a
	jmp    <_init+0x20>
	xchg   %ax,%ax
	endbr64
	push   $0x7b
	jmp    <_init+0x20>
	xchg   %ax,%ax
	endbr64
	push   $0x7c
	jmp    <_init+0x20>
	xchg   %ax,%ax
	endbr64
	push   $0x7d
	jmp    <_init+0x20>
	xchg   %ax,%ax
	endbr64
	push   $0x7e
	jmp    <_init+0x20>
	xchg   %ax,%ax
	endbr64
	push   $0x7f
	jmp    <_init+0x20>
	xchg   %ax,%ax
	endbr64
	push   $0x80
	jmp    <_init+0x20>
	xchg   %ax,%ax
	endbr64
	push   $0x81
	jmp    <_init+0x20>
	xchg   %ax,%ax
	endbr64
	push   $0x82
	jmp    <_init+0x20>
	xchg   %ax,%ax
	endbr64
	push   $0x83
	jmp    <_init+0x20>
	xchg   %ax,%ax
	endbr64
	push   $0x84
	jmp    <_init+0x20>
	xchg   %ax,%ax
	endbr64
	push   $0x85
	jmp    <_init+0x20>
	xchg   %ax,%ax
	endbr64
	push   $0x86
	jmp    <_init+0x20>
	xchg   %ax,%ax
	endbr64
	push   $0x87
	jmp    <_init+0x20>
	xchg   %ax,%ax
	endbr64
	push   $0x88
	jmp    <_init+0x20>
	xchg   %ax,%ax
	endbr64
	push   $0x89
	jmp    <_init+0x20>
	xchg   %ax,%ax
	endbr64
	push   $0x8a
	jmp    <_init+0x20>
	xchg   %ax,%ax
	endbr64
	push   $0x8b
	jmp    <_init+0x20>
	xchg   %ax,%ax
	endbr64
	push   $0x8c
	jmp    <_init+0x20>
	xchg   %ax,%ax
	endbr64
	push   $0x8d
	jmp    <_init+0x20>
	xchg   %ax,%ax
	endbr64
	push   $0x8e
	jmp    <_init+0x20>
	xchg   %ax,%ax
	endbr64
	push   $0x8f
	jmp    <_init+0x20>
	xchg   %ax,%ax
	endbr64
	push   $0x90
	jmp    <_init+0x20>
	xchg   %ax,%ax
	endbr64
	push   $0x91
	jmp    <_init+0x20>
	xchg   %ax,%ax
	endbr64
	push   $0x92
	jmp    <_init+0x20>
	xchg   %ax,%ax
	endbr64
	push   $0x93
	jmp    <_init+0x20>
	xchg   %ax,%ax

Disassembly of section .plt.got:

<__cxa_finalize@plt>:
	endbr64
	jmp    *0x69636(%rip)        # <__cxa_finalize@GLIBC_2.2.5>
	nopw   0x0(%rax,%rax,1)

Disassembly of section .plt.sec:

<_Znam@plt>:
	endbr64
	jmp    *0x69186(%rip)        # <_Znam@GLIBCXX_3.4>
	nopw   0x0(%rax,%rax,1)

<_ZNSo3putEc@plt>:
	endbr64
	jmp    *0x6917e(%rip)        # <_ZNSo3putEc@GLIBCXX_3.4>
	nopw   0x0(%rax,%rax,1)

<lround@plt>:
	endbr64
	jmp    *0x69176(%rip)        # <lround@GLIBC_2.2.5>
	nopw   0x0(%rax,%rax,1)

<__errno_location@plt>:
	endbr64
	jmp    *0x6916e(%rip)        # <__errno_location@GLIBC_2.2.5>
	nopw   0x0(%rax,%rax,1)

<_ZNSt6chrono3_V212system_clock3nowEv@plt>:
	endbr64
	jmp    *0x69166(%rip)        # <_ZNSt6chrono3_V212system_clock3nowEv@GLIBCXX_3.4.19>
	nopw   0x0(%rax,%rax,1)

<syscall@plt>:
	endbr64
	jmp    *0x6915e(%rip)        # <syscall@GLIBC_2.2.5>
	nopw   0x0(%rax,%rax,1)

<_ZSt29_Rb_tree_insert_and_rebalancebPSt18_Rb_tree_node_baseS0_RS_@plt>:
	endbr64
	jmp    *0x69156(%rip)        # <_ZSt29_Rb_tree_insert_and_rebalancebPSt18_Rb_tree_node_baseS0_RS_@GLIBCXX_3.4>
	nopw   0x0(%rax,%rax,1)

<_ZNSt13basic_filebufIcSt11char_traitsIcEE5closeEv@plt>:
	endbr64
	jmp    *0x6914e(%rip)        # <_ZNSt13basic_filebufIcSt11char_traitsIcEE5closeEv@GLIBCXX_3.4>
	nopw   0x0(%rax,%rax,1)

<_ZNKSt12__basic_fileIcE7is_openEv@plt>:
	endbr64
	jmp    *0x69146(%rip)        # <_ZNKSt12__basic_fileIcE7is_openEv@GLIBCXX_3.4>
	nopw   0x0(%rax,%rax,1)

<_ZNSt7__cxx1119basic_ostringstreamIcSt11char_traitsIcESaIcEED1Ev@plt>:
	endbr64
	jmp    *0x6913e(%rip)        # <_ZNSt7__cxx1119basic_ostringstreamIcSt11char_traitsIcESaIcEED1Ev@GLIBCXX_3.4.21>
	nopw   0x0(%rax,%rax,1)

<_ZNSt14basic_ifstreamIcSt11char_traitsIcEED1Ev@plt>:
	endbr64
	jmp    *0x69136(%rip)        # <_ZNSt14basic_ifstreamIcSt11char_traitsIcEED1Ev@GLIBCXX_3.4>
	nopw   0x0(%rax,%rax,1)

<_ZSt9terminatev@plt>:
	endbr64
	jmp    *0x6912e(%rip)        # <_ZSt9terminatev@GLIBCXX_3.4>
	nopw   0x0(%rax,%rax,1)

<_ZNKSt7__cxx1112basic_stringIcSt11char_traitsIcESaIcEE7compareEPKc@plt>:
	endbr64
	jmp    *0x69126(%rip)        # <_ZNKSt7__cxx1112basic_stringIcSt11char_traitsIcESaIcEE7compareEPKc@GLIBCXX_3.4.21>
	nopw   0x0(%rax,%rax,1)

<_ZNSt18condition_variable4waitERSt11unique_lockISt5mutexE@plt>:
	endbr64
	jmp    *0x6911e(%rip)        # <_ZNSt18condition_variable4waitERSt11unique_lockISt5mutexE@GLIBCXX_3.4.30>
	nopw   0x0(%rax,%rax,1)

<_ZNSt8ios_baseC2Ev@plt>:
	endbr64
	jmp    *0x69116(%rip)        # <_ZNSt8ios_baseC2Ev@GLIBCXX_3.4>
	nopw   0x0(%rax,%rax,1)

<_ZNSt7__cxx1112basic_stringIcSt11char_traitsIcESaIcEE9_M_appendEPKcm@plt>:
	endbr64
	jmp    *0x6910e(%rip)        # <_ZNSt7__cxx1112basic_stringIcSt11char_traitsIcESaIcEE9_M_appendEPKcm@GLIBCXX_3.4.21>
	nopw   0x0(%rax,%rax,1)

<_ZSt19__throw_regex_errorNSt15regex_constants10error_typeE@plt>:
	endbr64
	jmp    *0x69106(%rip)        # <_ZSt19__throw_regex_errorNSt15regex_constants10error_typeE@GLIBCXX_3.4.15>
	nopw   0x0(%rax,%rax,1)

<_ZNSt8ios_baseD2Ev@plt>:
	endbr64
	jmp    *0x690fe(%rip)        # <_ZNSt8ios_baseD2Ev@GLIBCXX_3.4>
	nopw   0x0(%rax,%rax,1)

<strerror@plt>:
	endbr64
	jmp    *0x690f6(%rip)        # <strerror@GLIBC_2.2.5>
	nopw   0x0(%rax,%rax,1)

<_ZSt17__throw_bad_allocv@plt>:
	endbr64
	jmp    *0x690ee(%rip)        # <_ZSt17__throw_bad_allocv@GLIBCXX_3.4>
	nopw   0x0(%rax,%rax,1)

<strchr@plt>:
	endbr64
	jmp    *0x690e6(%rip)        # <strchr@GLIBC_2.2.5>
	nopw   0x0(%rax,%rax,1)

<_ZSt25__throw_bad_function_callv@plt>:
	endbr64
	jmp    *0x690de(%rip)        # <_ZSt25__throw_bad_function_callv@GLIBCXX_3.4.14>
	nopw   0x0(%rax,%rax,1)

<__cxa_begin_catch@plt>:
	endbr64
	jmp    *0x690d6(%rip)        # <__cxa_begin_catch@CXXABI_1.3>
	nopw   0x0(%rax,%rax,1)

<_ZSt9use_facetISt5ctypeIcEERKT_RKSt6locale@plt>:
	endbr64
	jmp    *0x690ce(%rip)        # <_ZSt9use_facetISt5ctypeIcEERKT_RKSt6locale@GLIBCXX_3.4>
	nopw   0x0(%rax,%rax,1)

<strlen@plt>:
	endbr64
	jmp    *0x690c6(%rip)        # <strlen@GLIBC_2.2.5>
	nopw   0x0(%rax,%rax,1)

<memcmp@plt>:
	endbr64
	jmp    *0x690be(%rip)        # <memcmp@GLIBC_2.2.5>
	nopw   0x0(%rax,%rax,1)

<_ZNSt6thread6_StateD2Ev@plt>:
	endbr64
	jmp    *0x690b6(%rip)        # <_ZNSt6thread6_StateD2Ev@GLIBCXX_3.4.22>
	nopw   0x0(%rax,%rax,1)

<_ZNSt7__cxx1119basic_istringstreamIcSt11char_traitsIcESaIcEED1Ev@plt>:
	endbr64
	jmp    *0x690ae(%rip)        # <_ZNSt7__cxx1119basic_istringstreamIcSt11char_traitsIcESaIcEED1Ev@GLIBCXX_3.4.21>
	nopw   0x0(%rax,%rax,1)

<strncmp@plt>:
	endbr64
	jmp    *0x690a6(%rip)        # <strncmp@GLIBC_2.2.5>
	nopw   0x0(%rax,%rax,1)

<__strncat_chk@plt>:
	endbr64
	jmp    *0x6909e(%rip)        # <__strncat_chk@GLIBC_2.3.4>
	nopw   0x0(%rax,%rax,1)

<__cxa_allocate_exception@plt>:
	endbr64
	jmp    *0x69096(%rip)        # <__cxa_allocate_exception@CXXABI_1.3>
	nopw   0x0(%rax,%rax,1)

<llround@plt>:
	endbr64
	jmp    *0x6908e(%rip)        # <llround@GLIBC_2.2.5>
	nopw   0x0(%rax,%rax,1)

<_ZNKSt6locale2id5_M_idEv@plt>:
	endbr64
	jmp    *0x69086(%rip)        # <_ZNKSt6locale2id5_M_idEv@GLIBCXX_3.4>
	nopw   0x0(%rax,%rax,1)

<localtime_r@plt>:
	endbr64
	jmp    *0x6907e(%rip)        # <localtime_r@GLIBC_2.2.5>
	nopw   0x0(%rax,%rax,1)

<_ZSt20__throw_length_errorPKc@plt>:
	endbr64
	jmp    *0x69076(%rip)        # <_ZSt20__throw_length_errorPKc@GLIBCXX_3.4>
	nopw   0x0(%rax,%rax,1)

<_ZNSt7__cxx1112basic_stringIcSt11char_traitsIcESaIcEE9_M_assignERKS4_@plt>:
	endbr64
	jmp    *0x6906e(%rip)        # <_ZNSt7__cxx1112basic_stringIcSt11char_traitsIcESaIcEE9_M_assignERKS4_@GLIBCXX_3.4.21>
	nopw   0x0(%rax,%rax,1)

<memset@plt>:
	endbr64
	jmp    *0x69066(%rip)        # <memset@GLIBC_2.2.5>
	nopw   0x0(%rax,%rax,1)

<_ZNSt7__cxx1112basic_stringIcSt11char_traitsIcESaIcEEC1EOS4_@plt>:
	endbr64
	jmp    *0x6905e(%rip)        # <_ZNSt7__cxx1112basic_stringIcSt11char_traitsIcESaIcEEC1EOS4_@GLIBCXX_3.4.21>
	nopw   0x0(%rax,%rax,1)

<_ZSt28_Rb_tree_rebalance_for_erasePSt18_Rb_tree_node_baseRS_@plt>:
	endbr64
	jmp    *0x69056(%rip)        # <_ZSt28_Rb_tree_rebalance_for_erasePSt18_Rb_tree_node_baseRS_@GLIBCXX_3.4>
	nopw   0x0(%rax,%rax,1)

<_ZSt24__throw_invalid_argumentPKc@plt>:
	endbr64
	jmp    *0x6904e(%rip)        # <_ZSt24__throw_invalid_argumentPKc@GLIBCXX_3.4>
	nopw   0x0(%rax,%rax,1)

<__snprintf_chk@plt>:
	endbr64
	jmp    *0x69046(%rip)        # <__snprintf_chk@GLIBC_2.3.4>
	nopw   0x0(%rax,%rax,1)

<_ZNSirsERi@plt>:
	endbr64
	jmp    *0x6903e(%rip)        # <_ZNSirsERi@GLIBCXX_3.4>
	nopw   0x0(%rax,%rax,1)

<_ZNSt6localeC1ERKS_@plt>:
	endbr64
	jmp    *0x69036(%rip)        # <_ZNSt6localeC1ERKS_@GLIBCXX_3.4>
	nopw   0x0(%rax,%rax,1)

<__cxa_guard_abort@plt>:
	endbr64
	jmp    *0x6902e(%rip)        # <__cxa_guard_abort@CXXABI_1.3>
	nopw   0x0(%rax,%rax,1)

<__cxa_guard_release@plt>:
	endbr64
	jmp    *0x69026(%rip)        # <__cxa_guard_release@CXXABI_1.3>
	nopw   0x0(%rax,%rax,1)

<__assert_fail@plt>:
	endbr64
	jmp    *0x6901e(%rip)        # <__assert_fail@GLIBC_2.2.5>
	nopw   0x0(%rax,%rax,1)

<_ZSt20__throw_system_errori@plt>:
	endbr64
	jmp    *0x69016(%rip)        # <_ZSt20__throw_system_errori@GLIBCXX_3.4.11>
	nopw   0x0(%rax,%rax,1)

<_ZNSo9_M_insertImEERSoT_@plt>:
	endbr64
	jmp    *0x6900e(%rip)        # <_ZNSo9_M_insertImEERSoT_@GLIBCXX_3.4.9>
	nopw   0x0(%rax,%rax,1)

<_ZNSo5flushEv@plt>:
	endbr64
	jmp    *0x69006(%rip)        # <_ZNSo5flushEv@GLIBCXX_3.4>
	nopw   0x0(%rax,%rax,1)

<_ZSt18_Rb_tree_incrementPSt18_Rb_tree_node_base@plt>:
	endbr64
	jmp    *0x68ffe(%rip)        # <_ZSt18_Rb_tree_incrementPSt18_Rb_tree_node_base@GLIBCXX_3.4>
	nopw   0x0(%rax,%rax,1)

<_ZSt19__throw_logic_errorPKc@plt>:
	endbr64
	jmp    *0x68ff6(%rip)        # <_ZSt19__throw_logic_errorPKc@GLIBCXX_3.4>
	nopw   0x0(%rax,%rax,1)

<__cxa_free_exception@plt>:
	endbr64
	jmp    *0x68fee(%rip)        # <__cxa_free_exception@CXXABI_1.3>
	nopw   0x0(%rax,%rax,1)

<_ZNSt7__cxx1118basic_stringstreamIcSt11char_traitsIcESaIcEED1Ev@plt>:
	endbr64
	jmp    *0x68fe6(%rip)        # <_ZNSt7__cxx1118basic_stringstreamIcSt11char_traitsIcESaIcEED1Ev@GLIBCXX_3.4.21>
	nopw   0x0(%rax,%rax,1)

<pthread_mutex_unlock@plt>:
	endbr64
	jmp    *0x68fde(%rip)        # <pthread_mutex_unlock@GLIBC_2.2.5>
	nopw   0x0(%rax,%rax,1)

<strtod@plt>:
	endbr64
	jmp    *0x68fd6(%rip)        # <strtod@GLIBC_2.2.5>
	nopw   0x0(%rax,%rax,1)

<_ZSt28__throw_bad_array_new_lengthv@plt>:
	endbr64
	jmp    *0x68fce(%rip)        # <_ZSt28__throw_bad_array_new_lengthv@GLIBCXX_3.4.29>
	nopw   0x0(%rax,%rax,1)

<sqrt@plt>:
	endbr64
	jmp    *0x68fc6(%rip)        # <sqrt@GLIBC_2.2.5>
	nopw   0x0(%rax,%rax,1)

<strftime@plt>:
	endbr64
	jmp    *0x68fbe(%rip)        # <strftime@GLIBC_2.2.5>
	nopw   0x0(%rax,%rax,1)

<__vsnprintf_chk@plt>:
	endbr64
	jmp    *0x68fb6(%rip)        # <__vsnprintf_chk@GLIBC_2.3.4>
	nopw   0x0(%rax,%rax,1)

<memcpy@plt>:
	endbr64
	jmp    *0x68fae(%rip)        # <memcpy@GLIBC_2.14>
	nopw   0x0(%rax,%rax,1)

<_ZNSt7__cxx1112basic_stringIcSt11char_traitsIcESaIcEE9push_backEc@plt>:
	endbr64
	jmp    *0x68fa6(%rip)        # <_ZNSt7__cxx1112basic_stringIcSt11char_traitsIcESaIcEE9push_backEc@GLIBCXX_3.4.21>
	nopw   0x0(%rax,%rax,1)

<__cxa_atexit@plt>:
	endbr64
	jmp    *0x68f9e(%rip)        # <__cxa_atexit@GLIBC_2.2.5>
	nopw   0x0(%rax,%rax,1)

<pthread_self@plt>:
	endbr64
	jmp    *0x68f96(%rip)        # <pthread_self@GLIBC_2.2.5>
	nopw   0x0(%rax,%rax,1)

<_ZNSt13basic_filebufIcSt11char_traitsIcEE4openEPKcSt13_Ios_Openmode@plt>:
	endbr64
	jmp    *0x68f8e(%rip)        # <_ZNSt13basic_filebufIcSt11char_traitsIcEE4openEPKcSt13_Ios_Openmode@GLIBCXX_3.4>
	nopw   0x0(%rax,%rax,1)

<_ZSt9use_facetINSt7__cxx117collateIcEEERKT_RKSt6locale@plt>:
	endbr64
	jmp    *0x68f86(%rip)        # <_ZSt9use_facetINSt7__cxx117collateIcEEERKT_RKSt6locale@GLIBCXX_3.4.21>
	nopw   0x0(%rax,%rax,1)

<_ZNSt6thread15_M_start_threadESt10unique_ptrINS_6_StateESt14default_deleteIS1_EEPFvvE@plt>:
	endbr64
	jmp    *0x68f7e(%rip)        # <_ZNSt6thread15_M_start_threadESt10unique_ptrINS_6_StateESt14default_deleteIS1_EEPFvvE@GLIBCXX_3.4.22>
	nopw   0x0(%rax,%rax,1)

<clock_gettime@plt>:
	endbr64
	jmp    *0x68f76(%rip)        # <clock_gettime@GLIBC_2.17>
	nopw   0x0(%rax,%rax,1)

<_ZNSt13random_device7_M_finiEv@plt>:
	endbr64
	jmp    *0x68f6e(%rip)        # <_ZNSt13random_device7_M_finiEv@GLIBCXX_3.4.18>
	nopw   0x0(%rax,%rax,1)

<_ZNSo9_M_insertIlEERSoT_@plt>:
	endbr64
	jmp    *0x68f66(%rip)        # <_ZNSo9_M_insertIlEERSoT_@GLIBCXX_3.4.9>
	nopw   0x0(%rax,%rax,1)

<_ZStlsISt11char_traitsIcEERSt13basic_ostreamIcT_ES5_PKc@plt>:
	endbr64
	jmp    *0x68f5e(%rip)        # <_ZStlsISt11char_traitsIcEERSt13basic_ostreamIcT_ES5_PKc@GLIBCXX_3.4>
	nopw   0x0(%rax,%rax,1)

<_Znwm@plt>:
	endbr64
	jmp    *0x68f56(%rip)        # <_Znwm@GLIBCXX_3.4>
	nopw   0x0(%rax,%rax,1)

<_ZdlPvm@plt>:
	endbr64
	jmp    *0x68f4e(%rip)        # <_ZdlPvm@CXXABI_1.3.9>
	nopw   0x0(%rax,%rax,1)

<_ZNSi10_M_extractIlEERSiRT_@plt>:
	endbr64
	jmp    *0x68f46(%rip)        # <_ZNSi10_M_extractIlEERSiRT_@GLIBCXX_3.4.9>
	nopw   0x0(%rax,%rax,1)

<isalnum@plt>:
	endbr64
	jmp    *0x68f3e(%rip)        # <isalnum@GLIBC_2.2.5>
	nopw   0x0(%rax,%rax,1)

<_ZNSt13basic_filebufIcSt11char_traitsIcEEC1Ev@plt>:
	endbr64
	jmp    *0x68f36(%rip)        # <_ZNSt13basic_filebufIcSt11char_traitsIcEEC1Ev@GLIBCXX_3.4>
	nopw   0x0(%rax,%rax,1)

<_ZSt18_Rb_tree_decrementPSt18_Rb_tree_node_base@plt>:
	endbr64
	jmp    *0x68f2e(%rip)        # <_ZSt18_Rb_tree_decrementPSt18_Rb_tree_node_base@GLIBCXX_3.4>
	nopw   0x0(%rax,%rax,1)

<fileno@plt>:
	endbr64
	jmp    *0x68f26(%rip)        # <fileno@GLIBC_2.2.5>
	nopw   0x0(%rax,%rax,1)

<_ZNSt6localeaSERKS_@plt>:
	endbr64
	jmp    *0x68f1e(%rip)        # <_ZNSt6localeaSERKS_@GLIBCXX_3.4>
	nopw   0x0(%rax,%rax,1)

<__stack_chk_fail@plt>:
	endbr64
	jmp    *0x68f16(%rip)        # <__stack_chk_fail@GLIBC_2.4>
	nopw   0x0(%rax,%rax,1)

<__dynamic_cast@plt>:
	endbr64
	jmp    *0x68f0e(%rip)        # <__dynamic_cast@CXXABI_1.3>
	nopw   0x0(%rax,%rax,1)

<_ZSt16__ostream_insertIcSt11char_traitsIcEERSt13basic_ostreamIT_T0_ES6_PKS3_l@plt>:
	endbr64
	jmp    *0x68f06(%rip)        # <_ZSt16__ostream_insertIcSt11char_traitsIcEERSt13basic_ostreamIT_T0_ES6_PKS3_l@GLIBCXX_3.4.9>
	nopw   0x0(%rax,%rax,1)

<_ZNKSt5ctypeIcE13_M_widen_initEv@plt>:
	endbr64
	jmp    *0x68efe(%rip)        # <_ZNKSt5ctypeIcE13_M_widen_initEv@GLIBCXX_3.4.11>
	nopw   0x0(%rax,%rax,1)

<_ZSt18_Rb_tree_incrementPKSt18_Rb_tree_node_base@plt>:
	endbr64
	jmp    *0x68ef6(%rip)        # <_ZSt18_Rb_tree_incrementPKSt18_Rb_tree_node_base@GLIBCXX_3.4>
	nopw   0x0(%rax,%rax,1)

<_ZNSt7__cxx1112basic_stringIcSt11char_traitsIcESaIcEE12_M_constructEmc@plt>:
	endbr64
	jmp    *0x68eee(%rip)        # <_ZNSt7__cxx1112basic_stringIcSt11char_traitsIcESaIcEE12_M_constructEmc@GLIBCXX_3.4.21>
	nopw   0x0(%rax,%rax,1)

<getloadavg@plt>:
	endbr64
	jmp    *0x68ee6(%rip)        # <getloadavg@GLIBC_2.2.5>
	nopw   0x0(%rax,%rax,1)

<exit@plt>:
	endbr64
	jmp    *0x68ede(%rip)        # <exit@GLIBC_2.2.5>
	nopw   0x0(%rax,%rax,1)

<getenv@plt>:
	endbr64
	jmp    *0x68ed6(%rip)        # <getenv@GLIBC_2.2.5>
	nopw   0x0(%rax,%rax,1)

<__isoc23_strtoul@plt>:
	endbr64
	jmp    *0x68ece(%rip)        # <__isoc23_strtoul@GLIBC_2.38>
	nopw   0x0(%rax,%rax,1)

<__popcountdi2@plt>:
	endbr64
	jmp    *0x68ec6(%rip)        # <__popcountdi2@GCC_3.4>
	nopw   0x0(%rax,%rax,1)

<_ZSt16__throw_bad_castv@plt>:
	endbr64
	jmp    *0x68ebe(%rip)        # <_ZSt16__throw_bad_castv@GLIBCXX_3.4>
	nopw   0x0(%rax,%rax,1)

<_ZStrsIcSt11char_traitsIcESaIcEERSt13basic_istreamIT_T0_ES7_RNSt7__cxx1112basic_stringIS4_S5_T1_EE@plt>:
	endbr64
	jmp    *0x68eb6(%rip)        # <_ZStrsIcSt11char_traitsIcESaIcEERSt13basic_istreamIT_T0_ES7_RNSt7__cxx1112basic_stringIS4_S5_T1_EE@GLIBCXX_3.4.21>
	nopw   0x0(%rax,%rax,1)

<_ZdaPv@plt>:
	endbr64
	jmp    *0x68eae(%rip)        # <_ZdaPv@GLIBCXX_3.4>
	nopw   0x0(%rax,%rax,1)

<_ZNKSt7__cxx1112basic_stringIcSt11char_traitsIcESaIcEE7compareEmmRKS4_@plt>:
	endbr64
	jmp    *0x68ea6(%rip)        # <_ZNKSt7__cxx1112basic_stringIcSt11char_traitsIcESaIcEE7compareEmmRKS4_@GLIBCXX_3.4.21>
	nopw   0x0(%rax,%rax,1)

<_ZNSt7__cxx1115basic_stringbufIcSt11char_traitsIcESaIcEE7_M_syncEPcmm@plt>:
	endbr64
	jmp    *0x68e9e(%rip)        # <_ZNSt7__cxx1115basic_stringbufIcSt11char_traitsIcESaIcEE7_M_syncEPcmm@GLIBCXX_3.4.21>
	nopw   0x0(%rax,%rax,1)

<_ZNKSt7__cxx1112basic_stringIcSt11char_traitsIcESaIcEE4findEcm@plt>:
	endbr64
	jmp    *0x68e96(%rip)        # <_ZNKSt7__cxx1112basic_stringIcSt11char_traitsIcESaIcEE4findEcm@GLIBCXX_3.4.21>
	nopw   0x0(%rax,%rax,1)

<_ZNSt6chrono3_V212steady_clock3nowEv@plt>:
	endbr64
	jmp    *0x68e8e(%rip)        # <_ZNSt6chrono3_V212steady_clock3nowEv@GLIBCXX_3.4.19>
	nopw   0x0(%rax,%rax,1)

<_ZNSt9basic_iosIcSt11char_traitsIcEE4initEPSt15basic_streambufIcS1_E@plt>:
	endbr64
	jmp    *0x68e86(%rip)        # <_ZNSt9basic_iosIcSt11char_traitsIcEE4initEPSt15basic_streambufIcS1_E@GLIBCXX_3.4>
	nopw   0x0(%rax,%rax,1)

<_ZNKSt7__cxx1112basic_stringIcSt11char_traitsIcESaIcEE5rfindEPKcmm@plt>:
	endbr64
	jmp    *0x68e7e(%rip)        # <_ZNKSt7__cxx1112basic_stringIcSt11char_traitsIcESaIcEE5rfindEPKcmm@GLIBCXX_3.4.21>
	nopw   0x0(%rax,%rax,1)

<pfm_get_os_event_encoding@plt>:
	endbr64
	jmp    *0x68e76(%rip)        # <pfm_get_os_event_encoding@Base>
	nopw   0x0(%rax,%rax,1)

<_ZNSt13random_device9_M_getvalEv@plt>:
	endbr64
	jmp    *0x68e6e(%rip)        # <_ZNSt13random_device9_M_getvalEv@GLIBCXX_3.4.18>
	nopw   0x0(%rax,%rax,1)

<strcmp@plt>:
	endbr64
	jmp    *0x68e66(%rip)        # <strcmp@GLIBC_2.2.5>
	nopw   0x0(%rax,%rax,1)

<_ZNSt18condition_variableC1Ev@plt>:
	endbr64
	jmp    *0x68e5e(%rip)        # <_ZNSt18condition_variableC1Ev@GLIBCXX_3.4.11>
	nopw   0x0(%rax,%rax,1)

<ioctl@plt>:
	endbr64
	jmp    *0x68e56(%rip)        # <ioctl@GLIBC_2.2.5>
	nopw   0x0(%rax,%rax,1)

<_ZNSt6localeD1Ev@plt>:
	endbr64
	jmp    *0x68e4e(%rip)        # <_ZNSt6localeD1Ev@GLIBCXX_3.4>
	nopw   0x0(%rax,%rax,1)

<read@plt>:
	endbr64
	jmp    *0x68e46(%rip)        # <read@GLIBC_2.2.5>
	nopw   0x0(%rax,%rax,1)

<_ZSt20__throw_out_of_rangePKc@plt>:
	endbr64
	jmp    *0x68e3e(%rip)        # <_ZSt20__throw_out_of_rangePKc@GLIBCXX_3.4>
	nopw   0x0(%rax,%rax,1)

<tolower@plt>:
	endbr64
	jmp    *0x68e36(%rip)        # <tolower@GLIBC_2.2.5>
	nopw   0x0(%rax,%rax,1)

<__cxa_rethrow@plt>:
	endbr64
	jmp    *0x68e2e(%rip)        # <__cxa_rethrow@CXXABI_1.3>
	nopw   0x0(%rax,%rax,1)

<pthread_mutex_lock@plt>:
	endbr64
	jmp    *0x68e26(%rip)        # <pthread_mutex_lock@GLIBC_2.2.5>
	nopw   0x0(%rax,%rax,1)

<_ZNSt14basic_ofstreamIcSt11char_traitsIcEED1Ev@plt>:
	endbr64
	jmp    *0x68e1e(%rip)        # <_ZNSt14basic_ofstreamIcSt11char_traitsIcEED1Ev@GLIBCXX_3.4>
	nopw   0x0(%rax,%rax,1)

<gethostname@plt>:
	endbr64
	jmp    *0x68e16(%rip)        # <gethostname@GLIBC_2.2.5>
	nopw   0x0(%rax,%rax,1)

<_ZSt24__throw_out_of_range_fmtPKcz@plt>:
	endbr64
	jmp    *0x68e0e(%rip)        # <_ZSt24__throw_out_of_range_fmtPKcz@GLIBCXX_3.4.20>
	nopw   0x0(%rax,%rax,1)

<_ZNSt8ios_base4InitC1Ev@plt>:
	endbr64
	jmp    *0x68e06(%rip)        # <_ZNSt8ios_base4InitC1Ev@GLIBCXX_3.4>
	nopw   0x0(%rax,%rax,1)

<_ZNSt7__cxx1112basic_stringIcSt11char_traitsIcESaIcEE10_M_replaceEmmPKcm@plt>:
	endbr64
	jmp    *0x68dfe(%rip)        # <_ZNSt7__cxx1112basic_stringIcSt11char_traitsIcESaIcEE10_M_replaceEmmPKcm@GLIBCXX_3.4.21>
	nopw   0x0(%rax,%rax,1)

<_ZNSt13basic_filebufIcSt11char_traitsIcEED1Ev@plt>:
	endbr64
	jmp    *0x68df6(%rip)        # <_ZNSt13basic_filebufIcSt11char_traitsIcEED1Ev@GLIBCXX_3.4>
	nopw   0x0(%rax,%rax,1)

<_ZNSt7__cxx1112basic_stringIcSt11char_traitsIcESaIcEE7reserveEm@plt>:
	endbr64
	jmp    *0x68dee(%rip)        # <_ZNSt7__cxx1112basic_stringIcSt11char_traitsIcESaIcEE7reserveEm@GLIBCXX_3.4.21>
	nopw   0x0(%rax,%rax,1)

<_ZNSo9_M_insertIdEERSoT_@plt>:
	endbr64
	jmp    *0x68de6(%rip)        # <_ZNSo9_M_insertIdEERSoT_@GLIBCXX_3.4.9>
	nopw   0x0(%rax,%rax,1)

<memmove@plt>:
	endbr64
	jmp    *0x68dde(%rip)        # <memmove@GLIBC_2.2.5>
	nopw   0x0(%rax,%rax,1)

<__cxa_end_catch@plt>:
	endbr64
	jmp    *0x68dd6(%rip)        # <__cxa_end_catch@CXXABI_1.3>
	nopw   0x0(%rax,%rax,1)

<__fprintf_chk@plt>:
	endbr64
	jmp    *0x68dce(%rip)        # <__fprintf_chk@GLIBC_2.3.4>
	nopw   0x0(%rax,%rax,1)

<_ZNSo9_M_insertIbEERSoT_@plt>:
	endbr64
	jmp    *0x68dc6(%rip)        # <_ZNSo9_M_insertIbEERSoT_@GLIBCXX_3.4.9>
	nopw   0x0(%rax,%rax,1)

<_ZNSt13random_device7_M_initERKNSt7__cxx1112basic_stringIcSt11char_traitsIcESaIcEEE@plt>:
	endbr64
	jmp    *0x68dbe(%rip)        # <_ZNSt13random_device7_M_initERKNSt7__cxx1112basic_stringIcSt11char_traitsIcESaIcEEE@GLIBCXX_3.4.21>
	nopw   0x0(%rax,%rax,1)

<_ZNSt9basic_iosIcSt11char_traitsIcEE5clearESt12_Ios_Iostate@plt>:
	endbr64
	jmp    *0x68db6(%rip)        # <_ZNSt9basic_iosIcSt11char_traitsIcEE5clearESt12_Ios_Iostate@GLIBCXX_3.4>
	nopw   0x0(%rax,%rax,1)

<_ZNSt18condition_variable10notify_allEv@plt>:
	endbr64
	jmp    *0x68dae(%rip)        # <_ZNSt18condition_variable10notify_allEv@GLIBCXX_3.4.11>
	nopw   0x0(%rax,%rax,1)

<_ZNSt6thread4joinEv@plt>:
	endbr64
	jmp    *0x68da6(%rip)        # <_ZNSt6thread4joinEv@GLIBCXX_3.4.11>
	nopw   0x0(%rax,%rax,1)

<__cxa_throw@plt>:
	endbr64
	jmp    *0x68d9e(%rip)        # <__cxa_throw@CXXABI_1.3>
	nopw   0x0(%rax,%rax,1)

<_ZNSolsEi@plt>:
	endbr64
	jmp    *0x68d96(%rip)        # <_ZNSolsEi@GLIBCXX_3.4>
	nopw   0x0(%rax,%rax,1)

<isatty@plt>:
	endbr64
	jmp    *0x68d8e(%rip)        # <isatty@GLIBC_2.2.5>
	nopw   0x0(%rax,%rax,1)

<pow@plt>:
	endbr64
	jmp    *0x68d86(%rip)        # <pow@GLIBC_2.29>
	nopw   0x0(%rax,%rax,1)

<pthread_setaffinity_np@plt>:
	endbr64
	jmp    *0x68d7e(%rip)        # <pthread_setaffinity_np@GLIBC_2.34>
	nopw   0x0(%rax,%rax,1)

<_Unwind_Resume@plt>:
	endbr64
	jmp    *0x68d76(%rip)        # <_Unwind_Resume@GCC_3.0>
	nopw   0x0(%rax,%rax,1)

<log2@plt>:
	endbr64
	jmp    *0x68d6e(%rip)        # <log2@GLIBC_2.29>
	nopw   0x0(%rax,%rax,1)

<pthread_getaffinity_np@plt>:
	endbr64
	jmp    *0x68d66(%rip)        # <pthread_getaffinity_np@GLIBC_2.32>
	nopw   0x0(%rax,%rax,1)

<_ZNSt7__cxx1112basic_stringIcSt11char_traitsIcESaIcEE9_M_createERmm@plt>:
	endbr64
	jmp    *0x68d5e(%rip)        # <_ZNSt7__cxx1112basic_stringIcSt11char_traitsIcESaIcEE9_M_createERmm@GLIBCXX_3.4.21>
	nopw   0x0(%rax,%rax,1)

<_ZNSt7__cxx1112basic_stringIcSt11char_traitsIcESaIcEE9_M_mutateEmmPKcm@plt>:
	endbr64
	jmp    *0x68d56(%rip)        # <_ZNSt7__cxx1112basic_stringIcSt11char_traitsIcESaIcEE9_M_mutateEmmPKcm@GLIBCXX_3.4.21>
	nopw   0x0(%rax,%rax,1)

<__cxa_guard_acquire@plt>:
	endbr64
	jmp    *0x68d4e(%rip)        # <__cxa_guard_acquire@CXXABI_1.3>
	nopw   0x0(%rax,%rax,1)

<_ZNSt18condition_variableD1Ev@plt>:
	endbr64
	jmp    *0x68d46(%rip)        # <_ZNSt18condition_variableD1Ev@GLIBCXX_3.4.11>
	nopw   0x0(%rax,%rax,1)

<pfm_initialize@plt>:
	endbr64
	jmp    *0x68d3e(%rip)        # <pfm_initialize@Base>
	nopw   0x0(%rax,%rax,1)

<_ZSt7getlineIcSt11char_traitsIcESaIcEERSt13basic_istreamIT_T0_ES7_RNSt7__cxx1112basic_stringIS4_S5_T1_EES4_@plt>:
	endbr64
	jmp    *0x68d36(%rip)        # <_ZSt7getlineIcSt11char_traitsIcESaIcEERSt13basic_istreamIT_T0_ES7_RNSt7__cxx1112basic_stringIS4_S5_T1_EES4_@GLIBCXX_3.4.21>
	nopw   0x0(%rax,%rax,1)

<toupper@plt>:
	endbr64
	jmp    *0x68d2e(%rip)        # <toupper@GLIBC_2.2.5>
	nopw   0x0(%rax,%rax,1)

<_ZNSt12__basic_fileIcED1Ev@plt>:
	endbr64
	jmp    *0x68d26(%rip)        # <_ZNSt12__basic_fileIcED1Ev@GLIBCXX_3.4>
	nopw   0x0(%rax,%rax,1)

<_ZNSt7__cxx1112basic_stringIcSt11char_traitsIcESaIcEE14_M_replace_auxEmmmc@plt>:
	endbr64
	jmp    *0x68d1e(%rip)        # <_ZNSt7__cxx1112basic_stringIcSt11char_traitsIcESaIcEE14_M_replace_auxEmmmc@GLIBCXX_3.4.21>
	nopw   0x0(%rax,%rax,1)

<_ZNSt13runtime_errorC2EPKc@plt>:
	endbr64
	jmp    *0x68d16(%rip)        # <_ZNSt13runtime_errorC2EPKc@GLIBCXX_3.4.21>
	nopw   0x0(%rax,%rax,1)

<__cxa_bad_cast@plt>:
	endbr64
	jmp    *0x68d0e(%rip)        # <__cxa_bad_cast@CXXABI_1.3>
	nopw   0x0(%rax,%rax,1)

<close@plt>:
	endbr64
	jmp    *0x68d06(%rip)        # <close@GLIBC_2.2.5>
	nopw   0x0(%rax,%rax,1)

<gmtime_r@plt>:
	endbr64
	jmp    *0x68cfe(%rip)        # <gmtime_r@GLIBC_2.2.5>
	nopw   0x0(%rax,%rax,1)

<__isoc23_strtol@plt>:
	endbr64
	jmp    *0x68cf6(%rip)        # <__isoc23_strtol@GLIBC_2.38>
	nopw   0x0(%rax,%rax,1)

<_ZNSt6localeC1Ev@plt>:
	endbr64
	jmp    *0x68cee(%rip)        # <_ZNSt6localeC1Ev@GLIBCXX_3.4>
	nopw   0x0(%rax,%rax,1)

Disassembly of section .text:

<_Z18BM_ComputeBoundSoAI7SoA2VecIdLm10000000EEEvRN9benchmark5StateE.cold>:
	mov    -0x27b0(%rbp),%rdi
	mov    -0x27a0(%rbp),%rsi
	mov    -0x28b0(%rbp),%r12
	mov    -0x28a0(%rbp),%r13
	mov    -0x2870(%rbp),%r14
	mov    -0x2860(%rbp),%r15
	sub    %rdi,%rsi
	mov    -0x2830(%rbp),%rax
	mov    -0x2820(%rbp),%rdx
	mov    -0x27f0(%rbp),%rcx
	mov    -0x27e0(%rbp),%r8
	test   %rdi,%rdi
	jne    <_Z18BM_ComputeBoundSoAI7SoA2VecIdLm10000000EEEvRN9benchmark5StateE.cold+0xf4>
	vzeroupper
	mov    %r8,%rsi
	sub    %rcx,%rsi
	test   %rcx,%rcx
	je     <_Z18BM_ComputeBoundSoAI7SoA2VecIdLm10000000EEEvRN9benchmark5StateE.cold+0x84>
	mov    %rcx,%rdi
	mov    %rax,-0x28c8(%rbp)
	mov    %rdx,-0x28f0(%rbp)
	call   <_ZdlPvm@plt>
	mov    -0x28c8(%rbp),%rax
	mov    -0x28f0(%rbp),%rdx
	mov    %rdx,%rsi
	sub    %rax,%rsi
	test   %rax,%rax
	je     <_Z18BM_ComputeBoundSoAI7SoA2VecIdLm10000000EEEvRN9benchmark5StateE.cold+0x97>
	mov    %rax,%rdi
	call   <_ZdlPvm@plt>
	mov    %r15,%rsi
	sub    %r14,%rsi
	test   %r14,%r14
	je     <_Z18BM_ComputeBoundSoAI7SoA2VecIdLm10000000EEEvRN9benchmark5StateE.cold+0xaa>
	mov    %r14,%rdi
	call   <_ZdlPvm@plt>
	mov    %r13,%rsi
	sub    %r12,%rsi
	test   %r12,%r12
	je     <_Z18BM_ComputeBoundSoAI7SoA2VecIdLm10000000EEEvRN9benchmark5StateE.cold+0xbd>
	mov    %r12,%rdi
	call   <_ZdlPvm@plt>
	mov    -0x38(%rbp),%rax
	sub    %fs:0x28,%rax
	jne    <_Z18BM_ComputeBoundSoAI7SoA2VecIdLm10000000EEEvRN9benchmark5StateE.cold+0x139>
	mov    %rbx,%rdi
	call   <_Unwind_Resume@plt>
	mov    -0x38(%rbp),%rax
	sub    %fs:0x28,%rax
	jne    <_Z18BM_ComputeBoundSoAI7SoA2VecIdLm10000000EEEvRN9benchmark5StateE.cold+0xef>
	lea    0x57cee(%rip),%rdi        # <_IO_stdin_used+0x98>
	call   <_ZSt20__throw_length_errorPKc@plt>
	call   <__stack_chk_fail@plt>
	mov    %rax,-0x28f8(%rbp)
	mov    %r8,-0x28d0(%rbp)
	mov    %rdx,-0x28c8(%rbp)
	mov    %rcx,-0x28f0(%rbp)
	vzeroupper
	call   <_ZdlPvm@plt>
	mov    -0x28f0(%rbp),%rcx
	mov    -0x28c8(%rbp),%rdx
	mov    -0x28d0(%rbp),%r8
	mov    -0x28f8(%rbp),%rax
	jmp    <_Z18BM_ComputeBoundSoAI7SoA2VecIdLm10000000EEEvRN9benchmark5StateE.cold+0x55>
	call   <__stack_chk_fail@plt>
	cmpq   $0x0,-0x28c8(%rbp)
	jne    <_Z18BM_ComputeBoundSoAI7SoA2VecIdLm10000000EEEvRN9benchmark5StateE.cold+0x209>
	vzeroupper
	mov    -0x2938(%rbp),%rdi
	call   <_ZNSt13random_device7_M_finiEv@plt>
	mov    -0x2948(%rbp),%rsi
	mov    -0x2928(%rbp),%rax
	sub    %rax,%rsi
	test   %rax,%rax
	je     <_Z18BM_ComputeBoundSoAI7SoA2VecIdLm10000000EEEvRN9benchmark5StateE.cold+0x179>
	mov    %rax,%rdi
	call   <_ZdlPvm@plt>
	mov    -0x2940(%rbp),%rsi
	sub    %r15,%rsi
	test   %r15,%r15
	je     <_Z18BM_ComputeBoundSoAI7SoA2VecIdLm10000000EEEvRN9benchmark5StateE.cold+0x190>
	mov    %r15,%rdi
	call   <_ZdlPvm@plt>
	mov    -0x2960(%rbp),%rsi
	sub    %r14,%rsi
	test   %r14,%r14
	je     <_Z18BM_ComputeBoundSoAI7SoA2VecIdLm10000000EEEvRN9benchmark5StateE.cold+0x1a7>
	mov    %r14,%rdi
	call   <_ZdlPvm@plt>
	mov    -0x2950(%rbp),%rsi
	sub    %r12,%rsi
	test   %r12,%r12
	je     <_Z18BM_ComputeBoundSoAI7SoA2VecIdLm10000000EEEvRN9benchmark5StateE.cold+0x1be>
	mov    %r12,%rdi
	call   <_ZdlPvm@plt>
	mov    -0x2958(%rbp),%rsi
	sub    %r13,%rsi
	test   %r13,%r13
	je     <_Z18BM_ComputeBoundSoAI7SoA2VecIdLm10000000EEEvRN9benchmark5StateE.cold+0x1d5>
	mov    %r13,%rdi
	call   <_ZdlPvm@plt>
	mov    -0x38(%rbp),%rax
	sub    %fs:0x28,%rax
	jne    <_Z18BM_ComputeBoundSoAI7SoA2VecIdLm10000000EEEvRN9benchmark5StateE.cold+0x224>
	mov    %rbx,%rdi
	call   <_Unwind_Resume@plt>
	xor    %r14d,%r14d
	xor    %r15d,%r15d
	xor    %r12d,%r12d
	xor    %r13d,%r13d
	xor    %eax,%eax
	xor    %r8d,%r8d
	xor    %edx,%edx
	xor    %ecx,%ecx
	vzeroupper
	jmp    <_Z18BM_ComputeBoundSoAI7SoA2VecIdLm10000000EEEvRN9benchmark5StateE.cold+0x55>
	mov    -0x2920(%rbp),%rsi
	mov    -0x28c8(%rbp),%rdi
	vzeroupper
	call   <_ZdlPvm@plt>
	jmp    <_Z18BM_ComputeBoundSoAI7SoA2VecIdLm10000000EEEvRN9benchmark5StateE.cold+0x14f>
	call   <__stack_chk_fail@plt>
	endbr64
	mov    %rax,%rbx
	vzeroupper
	jmp    <_Z18BM_ComputeBoundSoAI7SoA2VecIdLm10000000EEEvRN9benchmark5StateE.cold+0x14f>
	mov    %rbx,%rdi
	vzeroupper
	call   <_ZNSt7__cxx1112basic_stringIcSt11char_traitsIcESaIcEE10_M_disposeEv>
	mov    -0x28f0(%rbp),%rbx
	jmp    <_Z18BM_ComputeBoundSoAI7SoA2VecIdLm10000000EEEvRN9benchmark5StateE.cold+0x15b>
	mov    -0x28c8(%rbp),%rdi
	vzeroupper
	call   <_ZNSt7__cxx1112basic_stringIcSt11char_traitsIcESaIcEE10_M_disposeEv>
	jmp    <_Z18BM_ComputeBoundSoAI7SoA2VecIdLm10000000EEEvRN9benchmark5StateE.cold+0x14f>

<_GLOBAL__sub_I_main.cold>:
	mov    $0x1,%r14d
	mov    %r12,%rdi
	vzeroupper
	call   <_ZNSt7__cxx1112basic_stringIcSt11char_traitsIcESaIcEE10_M_disposeEv>
	test   %r14b,%r14b
	je     <_GLOBAL__sub_I_main.cold+0x23>
	mov    $0xe8,%esi
	mov    %rbx,%rdi
	call   <_ZdlPvm@plt>
	mov    0x28(%rsp),%rax
	sub    %fs:0x28,%rax
	jne    <_GLOBAL__sub_I_main.cold+0x3b>
	mov    %r13,%rdi
	call   <_Unwind_Resume@plt>
	call   <__stack_chk_fail@plt>
	xor    %r14d,%r14d
	jmp    <_GLOBAL__sub_I_main.cold+0x6>

<_ZN9benchmark8internal12_GLOBAL__N_114CreateReporterERKNSt7__cxx1112basic_stringIcSt11char_traitsIcESaIcEEENS_15ConsoleReporter13OutputOptionsE.cold>:
	mov    %rbx,%rdi
	mov    $0x50,%esi
	call   <_ZdlPvm@plt>
	mov    %rbp,%rdi
	call   <_Unwind_Resume@plt>
	mov    %rbx,%rdi
	mov    $0x20,%esi
	call   <_ZdlPvm@plt>
	mov    %rbp,%rdi
	call   <_Unwind_Resume@plt>
	mov    %rbx,%rdi
	mov    $0x60,%esi
	call   <_ZdlPvm@plt>
	mov    %rbp,%rdi
	call   <_Unwind_Resume@plt>
	nop

<_ZNSt8_Rb_treeINSt7__cxx1112basic_stringIcSt11char_traitsIcESaIcEEESt4pairIKS5_N9benchmark7CounterEESt10_Select1stISA_ESt4lessIS5_ESaISA_EE7_M_copyILb0ENSG_20_Reuse_or_alloc_nodeEEEPSt13_Rb_tree_nodeISA_ESL_PSt18_Rb_tree_node_baseRT0_.isra.0.cold>:
	call   <__cxa_begin_catch@plt>
	mov    $0x50,%esi
	mov    %r12,%rdi
	call   <_ZdlPvm@plt>
	call   <__cxa_rethrow@plt>
	call   <__cxa_begin_catch@plt>
	mov    $0x50,%esi
	mov    %r12,%rdi
	call   <_ZdlPvm@plt>
	call   <__cxa_rethrow@plt>
	call   <__cxa_begin_catch@plt>
	mov    $0x50,%esi
	mov    %rbx,%rdi
	call   <_ZdlPvm@plt>
	call   <__cxa_rethrow@plt>
	endbr64
	mov    %rax,%rbx
	call   <__cxa_end_catch@plt>
	mov    %rbx,%rdi
	call   <__cxa_begin_catch@plt>
	mov    %r12,%rdi
	call   <_ZNSt8_Rb_treeINSt7__cxx1112basic_stringIcSt11char_traitsIcESaIcEEESt4pairIKS5_N9benchmark7CounterEESt10_Select1stISA_ESt4lessIS5_ESaISA_EE8_M_eraseEPSt13_Rb_tree_nodeISA_E.isra.0>
	call   <__cxa_rethrow@plt>
	call   <__cxa_begin_catch@plt>
	mov    $0x50,%esi
	mov    %rbx,%rdi
	call   <_ZdlPvm@plt>
	call   <__cxa_rethrow@plt>
	endbr64
	mov    %rax,%rbx
	call   <__cxa_end_catch@plt>
	mov    %rbx,%rdi
	call   <_Unwind_Resume@plt>
	endbr64
	mov    %rax,%rbx
	call   <__cxa_end_catch@plt>
	mov    %rbx,%rdi
	call   <_Unwind_Resume@plt>
	endbr64
	mov    %rax,%rbx
	call   <__cxa_end_catch@plt>
	mov    %rbx,%rdi
	call   <_Unwind_Resume@plt>
	endbr64
	mov    %rax,%rbx
	call   <__cxa_end_catch@plt>
	jmp    <_ZNSt8_Rb_treeINSt7__cxx1112basic_stringIcSt11char_traitsIcESaIcEEESt4pairIKS5_N9benchmark7CounterEESt10_Select1stISA_ESt4lessIS5_ESaISA_EE7_M_copyILb0ENSG_20_Reuse_or_alloc_nodeEEEPSt13_Rb_tree_nodeISA_ESL_PSt18_Rb_tree_node_baseRT0_.isra.0.cold+0x51>
	nop

<_ZN9benchmark5State15SkipWithMessageERKNSt7__cxx1112basic_stringIcSt11char_traitsIcESaIcEEE.cold>:
	mov    %rbp,%rdi
	call   <pthread_mutex_unlock@plt>
	mov    %rbx,%rdi
	call   <_Unwind_Resume@plt>

<_ZN9benchmark5State13SkipWithErrorERKNSt7__cxx1112basic_stringIcSt11char_traitsIcESaIcEEE.cold>:
	mov    %rbp,%rdi
	call   <pthread_mutex_unlock@plt>
	mov    %rbx,%rdi
	call   <_Unwind_Resume@plt>

<_ZN9benchmark5State8SetLabelERKNSt7__cxx1112basic_stringIcSt11char_traitsIcESaIcEEE.cold>:
	mov    %rbx,%rdi
	call   <pthread_mutex_unlock@plt>
	mov    %rbp,%rdi
	call   <_Unwind_Resume@plt>

<_ZN9benchmark28CreateDefaultDisplayReporterEv.cold>:
	mov    %rbx,%rdi
	call   <__cxa_guard_abort@plt>
	mov    %rbp,%rdi
	call   <_Unwind_Resume@plt>

<_ZN9benchmark8internal17InitializeStreamsEv.cold>:
	mov    %rbx,%rdi
	call   <__cxa_guard_abort@plt>
	mov    %rbp,%rdi
	call   <_Unwind_Resume@plt>

<_ZN9benchmark5State16StartKeepRunningEv.cold>:
	cmpb   $0x0,0x8(%rsp)
	je     <_ZN9benchmark5State16StartKeepRunningEv.cold+0xf>
	mov    %r14,%rdi
	call   <_ZNSt11unique_lockISt5mutexE6unlockEv>
	mov    %rbx,%rdi
	call   <_Unwind_Resume@plt>

<_ZN9benchmark8internal21ParseCommandLineFlagsEPiPPc.cold>:
	mov    %rbp,%rdi
	call   <_ZNSt7__cxx1112basic_stringIcSt11char_traitsIcESaIcEE10_M_disposeEv>
	mov    %r14,%rdi
	call   <_ZNSt7__cxx1112basic_stringIcSt11char_traitsIcESaIcEE10_M_disposeEv>
	mov    %rbx,%rdi
	call   <_Unwind_Resume@plt>
	nop

<_ZNSt8_Rb_treeINSt7__cxx1112basic_stringIcSt11char_traitsIcESaIcEEESt4pairIKS5_N9benchmark7CounterEESt10_Select1stISA_ESt4lessIS5_ESaISA_EE22_M_emplace_hint_uniqueIJRKSt21piecewise_construct_tSt5tupleIJRS7_EESL_IJEEEEESt17_Rb_tree_iteratorISA_ESt23_Rb_tree_const_iteratorISA_EDpOT_.isra.0.cold>:
	call   <__cxa_begin_catch@plt>
	mov    $0x50,%esi
	mov    %rbx,%rdi
	call   <_ZdlPvm@plt>
	call   <__cxa_rethrow@plt>
	endbr64
	mov    %rax,%rbx
	call   <__cxa_end_catch@plt>
	mov    %rbx,%rdi
	call   <_Unwind_Resume@plt>
	nop

<_ZN9benchmark5StateC2ENSt7__cxx1112basic_stringIcSt11char_traitsIcESaIcEEElRKSt6vectorIlSaIlEEiiPNS_8internal11ThreadTimerEPNSC_13ThreadManagerEPNSC_23PerfCountersMeasurementEPNS_15ProfilerManagerE.cold>:
	lea    0x40(%rsp),%rdi
	call   <_ZNSt6vectorINSt7__cxx1112basic_stringIcSt11char_traitsIcESaIcEEESaIS5_EED2Ev>
	lea    0x70(%r15),%rdi
	call   <_ZNSt7__cxx1112basic_stringIcSt11char_traitsIcESaIcEE10_M_disposeEv>
	mov    0x50(%r15),%rdi
	call   <_ZNSt8_Rb_treeINSt7__cxx1112basic_stringIcSt11char_traitsIcESaIcEEESt4pairIKS5_N9benchmark7CounterEESt10_Select1stISA_ESt4lessIS5_ESaISA_EE8_M_eraseEPSt13_Rb_tree_nodeISA_E.isra.0>
	mov    0x20(%r15),%rdi
	mov    0x30(%r15),%rsi
	sub    %rdi,%rsi
	test   %rdi,%rdi
	je     <_ZN9benchmark5StateC2ENSt7__cxx1112basic_stringIcSt11char_traitsIcESaIcEEElRKSt6vectorIlSaIlEEiiPNS_8internal11ThreadTimerEPNSC_13ThreadManagerEPNSC_23PerfCountersMeasurementEPNS_15ProfilerManagerE.cold+0x31>
	call   <_ZdlPvm@plt>
	mov    %rbx,%rdi
	call   <_Unwind_Resume@plt>
	call   <__cxa_begin_catch@plt>
	mov    0x18(%rsp),%rbp
	cmp    %rbx,%rbp
	je     <_ZN9benchmark5StateC2ENSt7__cxx1112basic_stringIcSt11char_traitsIcESaIcEEElRKSt6vectorIlSaIlEEiiPNS_8internal11ThreadTimerEPNSC_13ThreadManagerEPNSC_23PerfCountersMeasurementEPNS_15ProfilerManagerE.cold+0x56>
	mov    %rbp,%rdi
	add    $0x20,%rbp
	call   <_ZNSt7__cxx1112basic_stringIcSt11char_traitsIcESaIcEE10_M_disposeEv>
	jmp    <_ZN9benchmark5StateC2ENSt7__cxx1112basic_stringIcSt11char_traitsIcESaIcEEElRKSt6vectorIlSaIlEEiiPNS_8internal11ThreadTimerEPNSC_13ThreadManagerEPNSC_23PerfCountersMeasurementEPNS_15ProfilerManagerE.cold+0x43>
	call   <__cxa_rethrow@plt>
	endbr64
	mov    %rax,%rbx
	call   <__cxa_end_catch@plt>
	cmpq   $0x0,0x18(%rsp)
	je     <_ZN9benchmark5StateC2ENSt7__cxx1112basic_stringIcSt11char_traitsIcESaIcEEElRKSt6vectorIlSaIlEEiiPNS_8internal11ThreadTimerEPNSC_13ThreadManagerEPNSC_23PerfCountersMeasurementEPNS_15ProfilerManagerE.cold+0xa>
	mov    0x28(%rsp),%rsi
	mov    0x18(%rsp),%rdi
	call   <_ZdlPvm@plt>
	jmp    <_ZN9benchmark5StateC2ENSt7__cxx1112basic_stringIcSt11char_traitsIcESaIcEEElRKSt6vectorIlSaIlEEiiPNS_8internal11ThreadTimerEPNSC_13ThreadManagerEPNSC_23PerfCountersMeasurementEPNS_15ProfilerManagerE.cold+0xa>

<_ZN9benchmark5State11PauseTimingEv.cold>:
	mov    %r15,%rdi
	call   <_ZNSt7__cxx1112basic_stringIcSt11char_traitsIcESaIcEE10_M_disposeEv>
	mov    0x50(%rsp),%r12
	mov    0x58(%rsp),%r13
	mov    %r12,%rbp
	cmp    %rbp,%r13
	je     <_ZN9benchmark5State11PauseTimingEv.cold+0x3a>
	mov    0x0(%rbp),%rdi
	lea    0x10(%rbp),%rax
	cmp    %rax,%rdi
	je     <_ZN9benchmark5State11PauseTimingEv.cold+0x34>
	mov    0x10(%rbp),%rax
	lea    0x1(%rax),%rsi
	call   <_ZdlPvm@plt>
	add    $0x28,%rbp
	jmp    <_ZN9benchmark5State11PauseTimingEv.cold+0x15>
	mov    0x60(%rsp),%rsi
	sub    %r12,%rsi
	test   %r12,%r12
	je     <_ZN9benchmark5State11PauseTimingEv.cold+0x4f>
	mov    %r12,%rdi
	call   <_ZdlPvm@plt>
	mov    %rbx,%rdi
	call   <_Unwind_Resume@plt>
	nop

<_ZN9benchmark5State17FinishKeepRunningEv.cold>:
	cmpb   $0x0,0x8(%rsp)
	je     <_ZN9benchmark5State17FinishKeepRunningEv.cold+0xf>
	mov    %r14,%rdi
	call   <_ZNSt11unique_lockISt5mutexE6unlockEv>
	mov    %rbx,%rdi
	call   <_Unwind_Resume@plt>
	nop

<_ZNSt6vectorIN9benchmark17BenchmarkReporter3RunESaIS2_EE15_M_range_insertIN9__gnu_cxx17__normal_iteratorIPS2_S4_EEEEvS9_T_SA_St20forward_iterator_tag.isra.0.cold>:
	mov    0x30(%rsp),%rdi
	call   <_ZNSt8_Rb_treeINSt7__cxx1112basic_stringIcSt11char_traitsIcESaIcEEESt4pairIKS5_N9benchmark7CounterEESt10_Select1stISA_ESt4lessIS5_ESaISA_EE8_M_eraseEPSt13_Rb_tree_nodeISA_E.isra.0>
	mov    %rbx,%rdi
	call   <_Unwind_Resume@plt>
	call   <__cxa_begin_catch@plt>
	mov    %r12,%rbx
	cmp    %r15,%rbx
	je     <_ZNSt6vectorIN9benchmark17BenchmarkReporter3RunESaIS2_EE15_M_range_insertIN9__gnu_cxx17__normal_iteratorIPS2_S4_EEEEvS9_T_SA_St20forward_iterator_tag.isra.0.cold+0x42>
	mov    %rbx,%rdi
	add    $0x230,%rbx
	call   <_ZN9benchmark17BenchmarkReporter3RunD2Ev>
	jmp    <_ZNSt6vectorIN9benchmark17BenchmarkReporter3RunESaIS2_EE15_M_range_insertIN9__gnu_cxx17__normal_iteratorIPS2_S4_EEEEvS9_T_SA_St20forward_iterator_tag.isra.0.cold+0x1a>
	mov    0x30(%rsp),%rdi
	call   <_ZNSt8_Rb_treeINSt7__cxx1112basic_stringIcSt11char_traitsIcESaIcEEESt4pairIKS5_N9benchmark7CounterEESt10_Select1stISA_ESt4lessIS5_ESaISA_EE8_M_eraseEPSt13_Rb_tree_nodeISA_E.isra.0>
	mov    %rbx,%rdi
	call   <_Unwind_Resume@plt>
	test   %r12,%r12
	je     <_ZNSt6vectorIN9benchmark17BenchmarkReporter3RunESaIS2_EE15_M_range_insertIN9__gnu_cxx17__normal_iteratorIPS2_S4_EEEEvS9_T_SA_St20forward_iterator_tag.isra.0.cold+0x54>
	mov    0x8(%rsp),%rsi
	mov    %r12,%rdi
	call   <_ZdlPvm@plt>
	call   <__cxa_rethrow@plt>
	endbr64
	mov    %rax,%rbx
	call   <__cxa_end_catch@plt>
	mov    %rbx,%rdi
	call   <_Unwind_Resume@plt>

<_ZN9benchmark8internal12_GLOBAL__N_113RunBenchmarksERKSt6vectorINS0_17BenchmarkInstanceESaIS3_EEPNS_17BenchmarkReporterES9_.cold>:
	mov    %rbp,%rdi
	call   <_ZNSt7__cxx1112basic_stringIcSt11char_traitsIcESaIcEE10_M_disposeEv>
	mov    0xb0(%rsp),%rdi
	mov    0xc0(%rsp),%rsi
	sub    %rdi,%rsi
	test   %rdi,%rdi
	je     <_ZN9benchmark8internal12_GLOBAL__N_113RunBenchmarksERKSt6vectorINS0_17BenchmarkInstanceESaIS3_EEPNS_17BenchmarkReporterES9_.cold+0x25>
	call   <_ZdlPvm@plt>
	lea    0x90(%rsp),%r14
	mov    %r14,%rdi
	call   <_ZNSt6vectorIN9benchmark8internal15BenchmarkRunnerESaIS2_EED2Ev>
	mov    0x28(%rsp),%rdi
	call   <_ZN9benchmark8internal12PerfCountersD2Ev>
	mov    0x100(%rsp),%rdi
	call   <_ZNSt8_Rb_treeIiSt4pairIKiN9benchmark17BenchmarkReporter19PerFamilyRunReportsEESt10_Select1stIS5_ESt4lessIiESaIS5_EE8_M_eraseEPSt13_Rb_tree_nodeIS5_E.isra.0>
	mov    %rbx,%rdi
	call   <_Unwind_Resume@plt>
	mov    %r12,%rdi
	call   <_ZNSt6vectorIN9benchmark17BenchmarkReporter3RunESaIS2_EED2Ev>
	mov    %rbx,%rdi
	mov    %rbp,%rbx
	call   <_ZNSt6vectorIN9benchmark17BenchmarkReporter3RunESaIS2_EED2Ev>
	mov    0x18(%rsp),%rdi
	call   <_ZNSt6vectorIN9benchmark17BenchmarkReporter3RunESaIS2_EED2Ev>
	jmp    <_ZN9benchmark8internal12_GLOBAL__N_113RunBenchmarksERKSt6vectorINS0_17BenchmarkInstanceESaIS3_EEPNS_17BenchmarkReporterES9_.cold+0x8>
	mov    %rbx,%rdi
	mov    %rbp,%rbx
	call   <_ZNSt13random_device7_M_finiEv@plt>
	jmp    <_ZN9benchmark8internal12_GLOBAL__N_113RunBenchmarksERKSt6vectorINS0_17BenchmarkInstanceESaIS3_EEPNS_17BenchmarkReporterES9_.cold+0x8>
	mov    0x18(%rsp),%rdi
	call   <_ZNSt6vectorINSt7__cxx1112basic_stringIcSt11char_traitsIcESaIcEEESaIS5_EED2Ev>
	jmp    <_ZN9benchmark8internal12_GLOBAL__N_113RunBenchmarksERKSt6vectorINS0_17BenchmarkInstanceESaIS3_EEPNS_17BenchmarkReporterES9_.cold+0x3f>

<_ZN9benchmark22RunSpecifiedBenchmarksEPNS_17BenchmarkReporterES1_NSt7__cxx1112basic_stringIcSt11char_traitsIcESaIcEEE.cold>:
	mov    %rbp,%rdi
	call   <_ZNSt7__cxx1112basic_stringIcSt11char_traitsIcESaIcEE10_M_disposeEv>
	mov    0x20(%rsp),%rdi
	call   <_ZNSt6vectorIN9benchmark8internal17BenchmarkInstanceESaIS2_EED2Ev>
	cmpq   $0x0,0x28(%rsp)
	jne    <_ZN9benchmark22RunSpecifiedBenchmarksEPNS_17BenchmarkReporterES1_NSt7__cxx1112basic_stringIcSt11char_traitsIcESaIcEEE.cold+0x96>
	test   %r15,%r15
	je     <_ZN9benchmark22RunSpecifiedBenchmarksEPNS_17BenchmarkReporterES1_NSt7__cxx1112basic_stringIcSt11char_traitsIcESaIcEEE.cold+0x28>
	mov    (%r15),%rax
	mov    %r15,%rdi
	call   *0x28(%rax)
	mov    0x38(%rsp),%rdi
	call   <_ZNSt14basic_ofstreamIcSt11char_traitsIcEED1Ev@plt>
	mov    %rbx,%rdi
	call   <_Unwind_Resume@plt>
	mov    0x18(%rsp),%rdi
	call   <_ZNSt13basic_filebufIcSt11char_traitsIcEED1Ev@plt>
	mov    0x679b8(%rip),%rax        # <_ZTTSt14basic_ofstreamIcSt11char_traitsIcEE@GLIBCXX_3.4+0x8>
	mov    0x679b9(%rip),%rcx        # <_ZTTSt14basic_ofstreamIcSt11char_traitsIcEE@GLIBCXX_3.4+0x10>
	mov    %rax,0x80(%rsp)
	mov    -0x18(%rax),%rax
	mov    %rcx,0x80(%rsp,%rax,1)
	mov    0x30(%rsp),%rdi
	lea    0x67841(%rip),%rax        # <_ZTVSt9basic_iosIcSt11char_traitsIcEE@GLIBCXX_3.4+0x10>
	mov    %rax,0x178(%rsp)
	call   <_ZNSt8ios_baseD2Ev@plt>
	mov    %rbx,%rdi
	call   <_Unwind_Resume@plt>
	call   <__cxa_begin_catch@plt>
	call   <__cxa_end_catch@plt>
	jmp    <_ZN9benchmark22RunSpecifiedBenchmarksEPNS_17BenchmarkReporterES1_NSt7__cxx1112basic_stringIcSt11char_traitsIcESaIcEEE+0x41c>
	mov    0x28(%rsp),%rdi
	mov    (%rdi),%rax
	call   *0x28(%rax)
	jmp    <_ZN9benchmark22RunSpecifiedBenchmarksEPNS_17BenchmarkReporterES1_NSt7__cxx1112basic_stringIcSt11char_traitsIcESaIcEEE.cold+0x1a>

<_ZN9benchmark22RunSpecifiedBenchmarksEv.cold>:
	mov    %r12,%rdi
	call   <_ZNSt7__cxx1112basic_stringIcSt11char_traitsIcESaIcEE10_M_disposeEv>
	mov    %rbx,%rdi
	call   <_Unwind_Resume@plt>

<_ZN9benchmark22RunSpecifiedBenchmarksENSt7__cxx1112basic_stringIcSt11char_traitsIcESaIcEEE.cold>:
	mov    %rbx,%rdi
	call   <_ZNSt7__cxx1112basic_stringIcSt11char_traitsIcESaIcEE10_M_disposeEv>
	mov    %rbp,%rdi
	call   <_Unwind_Resume@plt>

<_ZN9benchmark22RunSpecifiedBenchmarksEPNS_17BenchmarkReporterE.cold>:
	mov    %r13,%rdi
	call   <_ZNSt7__cxx1112basic_stringIcSt11char_traitsIcESaIcEE10_M_disposeEv>
	mov    %rbx,%rdi
	call   <_Unwind_Resume@plt>

<_ZN9benchmark22RunSpecifiedBenchmarksEPNS_17BenchmarkReporterENSt7__cxx1112basic_stringIcSt11char_traitsIcESaIcEEE.cold>:
	mov    %rbx,%rdi
	call   <_ZNSt7__cxx1112basic_stringIcSt11char_traitsIcESaIcEE10_M_disposeEv>
	mov    %rbp,%rdi
	call   <_Unwind_Resume@plt>

<_ZN9benchmark22RunSpecifiedBenchmarksEPNS_17BenchmarkReporterES1_.cold>:
	mov    %r14,%rdi
	call   <_ZNSt7__cxx1112basic_stringIcSt11char_traitsIcESaIcEE10_M_disposeEv>
	mov    %rbx,%rdi
	call   <_Unwind_Resume@plt>

<_GLOBAL__sub_I__ZN9benchmark26FLAGS_benchmark_list_testsE.cold>:
	mov    0x10(%rsp),%rdi
	call   <_ZNSt8_Rb_treeINSt7__cxx1112basic_stringIcSt11char_traitsIcESaIcEEESt4pairIKS5_S5_ESt10_Select1stIS8_ESt4lessIS5_ESaIS8_EE8_M_eraseEPSt13_Rb_tree_nodeIS8_E.isra.0>
	mov    %rbx,%rdi
	call   <_Unwind_Resume@plt>
	nop

<_ZNK9benchmark13BenchmarkName3strB5cxx11Ev.cold>:
	mov    %rbx,%rdi
	call   <_ZNSt7__cxx1112basic_stringIcSt11char_traitsIcESaIcEE10_M_disposeEv>
	mov    %rbp,%rdi
	call   <_Unwind_Resume@plt>

<_ZSt19__throw_regex_errorNSt15regex_constants10error_typeEPKc>:
	endbr64
	push   %r12
	mov    %rsi,%r12
	push   %rbp
	mov    %edi,%ebp
	mov    $0x18,%edi
	push   %rbx
	call   <__cxa_allocate_exception@plt>
	mov    %r12,%rsi
	mov    %rax,%rdi
	mov    %rax,%rbx
	call   <_ZNSt13runtime_errorC2EPKc@plt>
	mov    0x6857e(%rip),%rdx        # <_ZNSt11regex_errorD1Ev@GLIBCXX_3.4.15>
	lea    0x6773f(%rip),%rax        # <_ZTVSt11regex_error@GLIBCXX_3.4.15+0x10>
	mov    %rbx,%rdi
	mov    %ebp,0x10(%rbx)
	lea    0x67b3a(%rip),%rsi        # <_ZTISt11regex_error@GLIBCXX_3.4.15>
	mov    %rax,(%rbx)
	call   <__cxa_throw@plt>
	endbr64
	mov    %rax,%rbp
	mov    %rbx,%rdi
	call   <__cxa_free_exception@plt>
	mov    %rbp,%rdi
	call   <_Unwind_Resume@plt>
	nop

<_ZN9benchmark8internal17BenchmarkFamilies15ClearBenchmarksEv.cold>:
	call   <__cxa_begin_catch@plt>
	call   <__cxa_end_catch@plt>
	jmp    <_ZN9benchmark8internal17BenchmarkFamilies15ClearBenchmarksEv+0x132>

<_ZN9benchmark16CreateDenseRangeElli.cold>:
	mov    0x0(%rbp),%rdi
	mov    0x10(%rbp),%rsi
	sub    %rdi,%rsi
	test   %rdi,%rdi
	je     <_ZN9benchmark16CreateDenseRangeElli.cold+0x15>
	call   <_ZdlPvm@plt>
	mov    %rbx,%rdi
	call   <_Unwind_Resume@plt>

<_ZN9benchmark8internal9Benchmark11ArgsProductERKSt6vectorIS2_IlSaIlEESaIS4_EE.cold>:
	mov    0x40(%rsp),%rdi
	mov    0x50(%rsp),%rsi
	sub    %rdi,%rsi
	test   %rdi,%rdi
	je     <_ZN9benchmark8internal9Benchmark11ArgsProductERKSt6vectorIS2_IlSaIlEESaIS4_EE.cold+0x17>
	call   <_ZdlPvm@plt>
	test   %rbx,%rbx
	je     <_ZN9benchmark8internal9Benchmark11ArgsProductERKSt6vectorIS2_IlSaIlEESaIS4_EE.cold+0x29>
	mov    0x38(%rsp),%rsi
	mov    %rbx,%rdi
	call   <_ZdlPvm@plt>
	mov    %rbp,%rdi
	call   <_Unwind_Resume@plt>
	nop

<_ZN9benchmark8internal9BenchmarkC2ERKNSt7__cxx1112basic_stringIcSt11char_traitsIcESaIcEEE.cold>:
	mov    %rbp,%rdi
	mov    %r12,%rbp
	call   <_ZNSt7__cxx1112basic_stringIcSt11char_traitsIcESaIcEE10_M_disposeEv>
	mov    0xb8(%rbx),%rdi
	mov    0xc8(%rbx),%rsi
	sub    %rdi,%rsi
	test   %rdi,%rdi
	je     <_ZN9benchmark8internal9BenchmarkC2ERKNSt7__cxx1112basic_stringIcSt11char_traitsIcESaIcEEE.cold+0x26>
	call   <_ZdlPvm@plt>
	mov    0xa8(%rbx),%r13
	mov    0xa0(%rbx),%r12
	cmp    %r12,%r13
	je     <_ZN9benchmark8internal9BenchmarkC2ERKNSt7__cxx1112basic_stringIcSt11char_traitsIcESaIcEEE.cold+0x5b>
	mov    (%r12),%rdi
	lea    0x10(%r12),%rax
	cmp    %rax,%rdi
	je     <_ZN9benchmark8internal9BenchmarkC2ERKNSt7__cxx1112basic_stringIcSt11char_traitsIcESaIcEEE.cold+0x55>
	mov    0x10(%r12),%rax
	lea    0x1(%rax),%rsi
	call   <_ZdlPvm@plt>
	add    $0x30,%r12
	jmp    <_ZN9benchmark8internal9BenchmarkC2ERKNSt7__cxx1112basic_stringIcSt11char_traitsIcESaIcEEE.cold+0x34>
	mov    0xa0(%rbx),%rdi
	mov    0xb0(%rbx),%rsi
	sub    %rdi,%rsi
	test   %rdi,%rdi
	je     <_ZN9benchmark8internal9BenchmarkC2ERKNSt7__cxx1112basic_stringIcSt11char_traitsIcESaIcEEE.cold+0x76>
	call   <_ZdlPvm@plt>
	lea    0x48(%rbx),%rdi
	call   <_ZNSt6vectorIS_IlSaIlEESaIS1_EED2Ev>
	lea    0x30(%rbx),%rdi
	call   <_ZNSt6vectorINSt7__cxx1112basic_stringIcSt11char_traitsIcESaIcEEESaIS5_EED2Ev>
	mov    %r14,%rdi
	call   <_ZNSt7__cxx1112basic_stringIcSt11char_traitsIcESaIcEE10_M_disposeEv>
	mov    %rbp,%rdi
	call   <_Unwind_Resume@plt>

<_ZN9benchmark8internal17BenchmarkFamilies12AddBenchmarkESt10unique_ptrINS0_9BenchmarkESt14default_deleteIS3_EE.cold>:
	mov    %r12,%rdi
	call   <pthread_mutex_unlock@plt>
	mov    %rbx,%rdi
	call   <_Unwind_Resume@plt>

<_ZN9benchmark8internal25RegisterBenchmarkInternalEPNS0_9BenchmarkE.cold>:
	mov    %rbp,%rdi
	call   <pthread_mutex_unlock@plt>
	mov    (%rsp),%rdi
	test   %rdi,%rdi
	je     <_ZN9benchmark8internal25RegisterBenchmarkInternalEPNS0_9BenchmarkE.cold+0x17>
	mov    (%rdi),%rax
	call   *0x8(%rax)
	mov    %rbx,%rdi
	call   <_Unwind_Resume@plt>
	nop

<_ZN9benchmark8internal9Benchmark3ArgEl.cold>:
	mov    (%rsp),%rdi
	mov    0x10(%rsp),%rsi
	sub    %rdi,%rsi
	test   %rdi,%rdi
	je     <_ZN9benchmark8internal9Benchmark3ArgEl.cold+0x16>
	call   <_ZdlPvm@plt>
	mov    %rbx,%rdi
	call   <_Unwind_Resume@plt>

<_ZN9benchmark8internal9Benchmark10DenseRangeElli.cold>:
	mov    (%rsp),%rdi
	mov    0x10(%rsp),%rsi
	sub    %rdi,%rsi
	test   %rdi,%rdi
	je     <_ZN9benchmark8internal9Benchmark10DenseRangeElli.cold+0x16>
	call   <_ZdlPvm@plt>
	mov    %rbx,%rdi
	call   <_Unwind_Resume@plt>

<_ZN9benchmark11CreateRangeElli.cold>:
	mov    (%rbx),%rdi
	mov    0x10(%rbx),%rsi
	sub    %rdi,%rsi
	test   %rdi,%rdi
	je     <_ZN9benchmark11CreateRangeElli.cold+0x14>
	call   <_ZdlPvm@plt>
	mov    %rbp,%rdi
	call   <_Unwind_Resume@plt>

<_ZN9benchmark8internal9Benchmark5RangeEll.cold>:
	mov    0x20(%rsp),%rdi
	mov    0x30(%rsp),%rsi
	sub    %rdi,%rsi
	test   %rdi,%rdi
	je     <_ZN9benchmark8internal9Benchmark5RangeEll.cold+0x17>
	call   <_ZdlPvm@plt>
	mov    (%rsp),%rdi
	mov    0x10(%rsp),%rsi
	sub    %rdi,%rsi
	test   %rdi,%rdi
	je     <_ZN9benchmark8internal9Benchmark5RangeEll.cold+0x2d>
	call   <_ZdlPvm@plt>
	mov    %rbx,%rdi
	call   <_Unwind_Resume@plt>
	nop

<_ZN9benchmark8internal9Benchmark6RangesERKSt6vectorISt4pairIllESaIS4_EE.cold>:
	mov    %r15,%rdi
	call   <_ZNSt6vectorIS_IlSaIlEESaIS1_EED2Ev>
	mov    %rbx,%rdi
	call   <_Unwind_Resume@plt>

<_ZN9benchmark8internal9Benchmark7ArgNameERKNSt7__cxx1112basic_stringIcSt11char_traitsIcESaIcEEE.cold>:
	call   <__cxa_begin_catch@plt>
	mov    $0x20,%esi
	mov    %r12,%rdi
	call   <_ZdlPvm@plt>
	call   <__cxa_rethrow@plt>
	endbr64
	mov    %rax,%rbx
	call   <__cxa_end_catch@plt>
	mov    %r15,%rdi
	call   <_ZNSt7__cxx1112basic_stringIcSt11char_traitsIcESaIcEE10_M_disposeEv>
	mov    %rbx,%rdi
	call   <_Unwind_Resume@plt>
	nop

<_ZN9benchmark8internal9Benchmark8ArgNamesERKSt6vectorINSt7__cxx1112basic_stringIcSt11char_traitsIcESaIcEEESaIS8_EE.cold>:
	call   <__cxa_begin_catch@plt>
	mov    %r13,%rsi
	mov    %rbp,%rdi
	call   <_ZdlPvm@plt>
	call   <__cxa_rethrow@plt>
	call   <__cxa_begin_catch@plt>
	cmp    %rbp,0x8(%rsp)
	je     <_ZN9benchmark8internal9Benchmark8ArgNamesERKSt6vectorINSt7__cxx1112basic_stringIcSt11char_traitsIcESaIcEEESaIS8_EE.cold+0x50>
	mov    0x8(%rsp),%rbx
	mov    %rbx,%rdi
	call   <_ZNSt7__cxx1112basic_stringIcSt11char_traitsIcESaIcEE10_M_disposeEv>
	mov    %rbx,%rax
	add    $0x20,%rax
	mov    %rax,0x8(%rsp)
	jmp    <_ZN9benchmark8internal9Benchmark8ArgNamesERKSt6vectorINSt7__cxx1112basic_stringIcSt11char_traitsIcESaIcEEESaIS8_EE.cold+0x1a>
	endbr64
	mov    %rax,%rbx
	call   <__cxa_end_catch@plt>
	mov    %rbx,%rdi
	call   <_Unwind_Resume@plt>
	call   <__cxa_rethrow@plt>
	endbr64
	mov    %rax,%rbx
	call   <__cxa_end_catch@plt>
	mov    %rbx,%rdi
	call   <_Unwind_Resume@plt>
	nop

<_ZNSt8__detail9_ExecutorIN9__gnu_cxx17__normal_iteratorIPKcNSt7__cxx1112basic_stringIcSt11char_traitsIcESaIcEEEEESaINS5_9sub_matchISB_EEENS5_12regex_traitsIcEELb0EE16_M_main_dispatchENSH_11_Match_modeESt17integral_constantIbLb0EE.constprop.0.cold>:
	lea    0x50(%rsp),%rdi
	call   <_ZNSt6vectorISt4pairIlS_INSt7__cxx119sub_matchIN9__gnu_cxx17__normal_iteratorIPKcNS1_12basic_stringIcSt11char_traitsIcESaIcEEEEEEESaISD_EEESaISG_EED2Ev>
	mov    %rbx,%rdi
	call   <_Unwind_Resume@plt>

<_ZN9benchmark8internal17BenchmarkFamilies14FindBenchmarksENSt7__cxx1112basic_stringIcSt11char_traitsIcESaIcEEEPSt6vectorINS0_17BenchmarkInstanceESaIS9_EEPSo.cold>:
	mov    -0x270(%rbp),%rdi
	mov    -0x260(%rbp),%rsi
	sub    %rdi,%rsi
	test   %rdi,%rdi
	jne    <_ZN9benchmark8internal17BenchmarkFamilies14FindBenchmarksENSt7__cxx1112basic_stringIcSt11char_traitsIcESaIcEEEPSt6vectorINS0_17BenchmarkInstanceESaIS9_EEPSo.cold+0xbb>
	mov    %r15,%rdi
	call   <_ZNSt7__cxx1112basic_stringIcSt11char_traitsIcESaIcEE10_M_disposeEv>
	mov    -0x98(%rbp),%rdi
	call   <_ZNSt8_Rb_treeINSt7__cxx1112basic_stringIcSt11char_traitsIcESaIcEEESt4pairIKS5_N9benchmark7CounterEESt10_Select1stISA_ESt4lessIS5_ESaISA_EE8_M_eraseEPSt13_Rb_tree_nodeISA_E.isra.0>
	mov    -0x2f0(%rbp),%rdi
	call   <_ZN9benchmark13BenchmarkNameD2Ev>
	mov    -0x330(%rbp),%rdi
	call   <pthread_mutex_unlock@plt>
	mov    -0x290(%rbp),%rdi
	mov    -0x280(%rbp),%rsi
	sub    %rdi,%rsi
	test   %rdi,%rdi
	je     <_ZN9benchmark8internal17BenchmarkFamilies14FindBenchmarksENSt7__cxx1112basic_stringIcSt11char_traitsIcESaIcEEEPSt6vectorINS0_17BenchmarkInstanceESaIS9_EEPSo.cold+0x61>
	call   <_ZdlPvm@plt>
	mov    %r12,%rdi
	call   <_ZNSt7__cxx1111basic_regexIcNS_12regex_traitsIcEEED2Ev>
	mov    -0x320(%rbp),%rdi
	call   <_ZNSt7__cxx1112basic_stringIcSt11char_traitsIcESaIcEE10_M_disposeEv>
	mov    %rbx,%rdi
	call   <_Unwind_Resume@plt>
	mov    -0x290(%rbp),%rdi
	mov    -0x280(%rbp),%rsi
	lea    -0x248(%rbp),%r12
	sub    %rdi,%rsi
	jmp    <_ZN9benchmark8internal17BenchmarkFamilies14FindBenchmarksENSt7__cxx1112basic_stringIcSt11char_traitsIcESaIcEEEPSt6vectorINS0_17BenchmarkInstanceESaIS9_EEPSo.cold+0x5c>
	mov    -0x270(%rbp),%rdi
	mov    -0x260(%rbp),%rsi
	sub    %rdi,%rsi
	test   %rdi,%rdi
	je     <_ZN9benchmark8internal17BenchmarkFamilies14FindBenchmarksENSt7__cxx1112basic_stringIcSt11char_traitsIcESaIcEEEPSt6vectorINS0_17BenchmarkInstanceESaIS9_EEPSo.cold+0x1a>
	call   <_ZdlPvm@plt>
	jmp    <_ZN9benchmark8internal17BenchmarkFamilies14FindBenchmarksENSt7__cxx1112basic_stringIcSt11char_traitsIcESaIcEEEPSt6vectorINS0_17BenchmarkInstanceESaIS9_EEPSo.cold+0x1a>
	call   <_ZdlPvm@plt>
	jmp    <_ZN9benchmark8internal17BenchmarkFamilies14FindBenchmarksENSt7__cxx1112basic_stringIcSt11char_traitsIcESaIcEEEPSt6vectorINS0_17BenchmarkInstanceESaIS9_EEPSo.cold+0x1a>
	mov    -0x258(%rbp),%rdi
	test   %rdi,%rdi
	je     <_ZN9benchmark8internal17BenchmarkFamilies14FindBenchmarksENSt7__cxx1112basic_stringIcSt11char_traitsIcESaIcEEEPSt6vectorINS0_17BenchmarkInstanceESaIS9_EEPSo.cold+0xd6>
	call   <_ZNSt16_Sp_counted_baseILN9__gnu_cxx12_Lock_policyE2EE10_M_releaseEv>
	mov    %r13,%rdi
	call   <_ZNSt6localeD1Ev@plt>
	mov    %r14,%rax
	sub    $0x1,%rax
	jne    <_ZN9benchmark8internal17BenchmarkFamilies14FindBenchmarksENSt7__cxx1112basic_stringIcSt11char_traitsIcESaIcEEEPSt6vectorINS0_17BenchmarkInstanceESaIS9_EEPSo.cold+0x1bd>
	mov    %rbx,%rdi
	call   <__cxa_begin_catch@plt>
	mov    %rax,%rdi
	mov    (%rax),%rax
	call   *0x10(%rax)
	mov    %rax,%rdi
	mov    %rax,%rbx
	call   <strlen@plt>
	mov    -0x218(%rbp),%rdx
	mov    %rbx,%rcx
	xor    %esi,%esi
	mov    %rax,%r8
	lea    -0x220(%rbp),%rax
	mov    %rax,%rdi
	mov    %rax,-0x320(%rbp)
	call   <_ZNSt7__cxx1112basic_stringIcSt11char_traitsIcESaIcEE10_M_replaceEmmPKcm@plt>
	call   <__cxa_end_catch@plt>
	movzbl -0x250(%rbp),%ebx
	test   %bl,%bl
	jne    <_ZN9benchmark8internal17BenchmarkFamilies14FindBenchmarksENSt7__cxx1112basic_stringIcSt11char_traitsIcESaIcEEEPSt6vectorINS0_17BenchmarkInstanceESaIS9_EEPSo.cold+0x1ef>
	mov    -0x338(%rbp),%r15
	mov    $0x20,%edx
	lea    0x57983(%rip),%rsi        # <_IO_stdin_used+0x7c8>
	mov    %r15,%rdi
	call   <_ZSt16__ostream_insertIcSt11char_traitsIcEERSt13basic_ostreamIT_T0_ES6_PKS3_l@plt>
	mov    -0x218(%rbp),%rdx
	mov    -0x220(%rbp),%rsi
	mov    %r15,%rdi
	call   <_ZSt16__ostream_insertIcSt11char_traitsIcEERSt13basic_ostreamIT_T0_ES6_PKS3_l@plt>
	mov    %rax,%r12
	mov    (%rax),%rax
	mov    -0x18(%rax),%rax
	mov    0xf0(%r12,%rax,1),%rax
	mov    %rax,%r14
	test   %rax,%rax
	je     <_ZN9benchmark8internal17BenchmarkFamilies14FindBenchmarksENSt7__cxx1112basic_stringIcSt11char_traitsIcESaIcEEEPSt6vectorINS0_17BenchmarkInstanceESaIS9_EEPSo.cold+0x1f4>
	cmpb   $0x0,0x38(%rax)
	je     <_ZN9benchmark8internal17BenchmarkFamilies14FindBenchmarksENSt7__cxx1112basic_stringIcSt11char_traitsIcESaIcEEEPSt6vectorINS0_17BenchmarkInstanceESaIS9_EEPSo.cold+0x1f9>
	movsbl 0x43(%rax),%esi
	mov    %r12,%rdi
	call   <_ZNSo3putEc@plt>
	mov    %rax,%rdi
	call   <_ZNSo5flushEv@plt>
	jmp    <_ZN9benchmark8internal17BenchmarkFamilies14FindBenchmarksENSt7__cxx1112basic_stringIcSt11char_traitsIcESaIcEEEPSt6vectorINS0_17BenchmarkInstanceESaIS9_EEPSo+0xb8c>
	endbr64
	mov    %rax,%rbx
	lea    -0x248(%rbp),%r12
	jmp    <_ZN9benchmark8internal17BenchmarkFamilies14FindBenchmarksENSt7__cxx1112basic_stringIcSt11char_traitsIcESaIcEEEPSt6vectorINS0_17BenchmarkInstanceESaIS9_EEPSo.cold+0x61>
	lea    -0x220(%rbp),%rax
	lea    -0x248(%rbp),%r12
	mov    %rax,-0x320(%rbp)
	jmp    <_ZN9benchmark8internal17BenchmarkFamilies14FindBenchmarksENSt7__cxx1112basic_stringIcSt11char_traitsIcESaIcEEEPSt6vectorINS0_17BenchmarkInstanceESaIS9_EEPSo.cold+0x61>
	endbr64
	mov    %rax,%rbx
	lea    -0x248(%rbp),%r12
	call   <__cxa_end_catch@plt>
	jmp    <_ZN9benchmark8internal17BenchmarkFamilies14FindBenchmarksENSt7__cxx1112basic_stringIcSt11char_traitsIcESaIcEEEPSt6vectorINS0_17BenchmarkInstanceESaIS9_EEPSo.cold+0x61>
	jmp    <_ZN9benchmark8internal17BenchmarkFamilies14FindBenchmarksENSt7__cxx1112basic_stringIcSt11char_traitsIcESaIcEEEPSt6vectorINS0_17BenchmarkInstanceESaIS9_EEPSo+0x21f>
	call   <_ZSt16__throw_bad_castv@plt>
	mov    %rax,%rdi
	call   <_ZNKSt5ctypeIcE13_M_widen_initEv@plt>
	mov    (%r14),%rax
	lea    0x11493(%rip),%rdx        # <_ZNKSt5ctypeIcE8do_widenEc>
	mov    $0xa,%esi
	mov    0x30(%rax),%rax
	cmp    %rdx,%rax
	je     <_ZN9benchmark8internal17BenchmarkFamilies14FindBenchmarksENSt7__cxx1112basic_stringIcSt11char_traitsIcESaIcEEEPSt6vectorINS0_17BenchmarkInstanceESaIS9_EEPSo.cold+0x195>
	mov    %r14,%rdi
	call   *%rax
	movsbl %al,%esi
	jmp    <_ZN9benchmark8internal17BenchmarkFamilies14FindBenchmarksENSt7__cxx1112basic_stringIcSt11char_traitsIcESaIcEEEPSt6vectorINS0_17BenchmarkInstanceESaIS9_EEPSo.cold+0x195>

<_ZN9benchmark8internal22FindBenchmarksInternalERKNSt7__cxx1112basic_stringIcSt11char_traitsIcESaIcEEEPSt6vectorINS0_17BenchmarkInstanceESaISA_EEPSo.cold>:
	mov    %r14,%rdi
	call   <_ZNSt7__cxx1112basic_stringIcSt11char_traitsIcESaIcEE10_M_disposeEv>
	mov    %rbx,%rdi
	call   <_Unwind_Resume@plt>

<_ZNSt8_Rb_treeINSt7__cxx1112basic_stringIcSt11char_traitsIcESaIcEEESt4pairIKS5_N9benchmark7CounterEESt10_Select1stISA_ESt4lessIS5_ESaISA_EE7_M_copyILb0ENSG_11_Alloc_nodeEEEPSt13_Rb_tree_nodeISA_ESL_PSt18_Rb_tree_node_baseRT0_.isra.0.cold>:
	call   <__cxa_begin_catch@plt>
	mov    $0x50,%esi
	mov    %rbx,%rdi
	call   <_ZdlPvm@plt>
	call   <__cxa_rethrow@plt>
	call   <__cxa_begin_catch@plt>
	mov    $0x50,%esi
	mov    %r12,%rdi
	call   <_ZdlPvm@plt>
	call   <__cxa_rethrow@plt>
	endbr64
	mov    %rax,%rbx
	call   <__cxa_end_catch@plt>
	mov    %rbx,%rdi
	call   <__cxa_begin_catch@plt>
	mov    %r12,%rdi
	call   <_ZNSt8_Rb_treeINSt7__cxx1112basic_stringIcSt11char_traitsIcESaIcEEESt4pairIKS5_N9benchmark7CounterEESt10_Select1stISA_ESt4lessIS5_ESaISA_EE8_M_eraseEPSt13_Rb_tree_nodeISA_E.isra.0>
	call   <__cxa_rethrow@plt>
	endbr64
	mov    %rax,%rbx
	call   <__cxa_end_catch@plt>
	mov    %rbx,%rdi
	call   <_Unwind_Resume@plt>
	endbr64
	mov    %rax,%rbx
	call   <__cxa_end_catch@plt>
	mov    %rbx,%rdi
	call   <_Unwind_Resume@plt>
	nop

<_ZNSt8_Rb_treeINSt7__cxx1112basic_stringIcSt11char_traitsIcESaIcEEESt4pairIKS5_N9benchmark7CounterEESt10_Select1stISA_ESt4lessIS5_ESaISA_EE7_M_copyILb0ENSG_20_Reuse_or_alloc_nodeEEEPSt13_Rb_tree_nodeISA_ESL_PSt18_Rb_tree_node_baseRT0_.isra.0.cold>:
	call   <__cxa_begin_catch@plt>
	mov    $0x50,%esi
	mov    %r12,%rdi
	call   <_ZdlPvm@plt>
	call   <__cxa_rethrow@plt>
	call   <__cxa_begin_catch@plt>
	mov    $0x50,%esi
	mov    %r12,%rdi
	call   <_ZdlPvm@plt>
	call   <__cxa_rethrow@plt>
	call   <__cxa_begin_catch@plt>
	mov    $0x50,%esi
	mov    %rbx,%rdi
	call   <_ZdlPvm@plt>
	call   <__cxa_rethrow@plt>
	endbr64
	mov    %rax,%rbx
	call   <__cxa_end_catch@plt>
	mov    %rbx,%rdi
	call   <__cxa_begin_catch@plt>
	mov    %r12,%rdi
	call   <_ZNSt8_Rb_treeINSt7__cxx1112basic_stringIcSt11char_traitsIcESaIcEEESt4pairIKS5_N9benchmark7CounterEESt10_Select1stISA_ESt4lessIS5_ESaISA_EE8_M_eraseEPSt13_Rb_tree_nodeISA_E.isra.0>
	call   <__cxa_rethrow@plt>
	call   <__cxa_begin_catch@plt>
	mov    $0x50,%esi
	mov    %rbx,%rdi
	call   <_ZdlPvm@plt>
	call   <__cxa_rethrow@plt>
	endbr64
	mov    %rax,%rbx
	call   <__cxa_end_catch@plt>
	mov    %rbx,%rdi
	call   <_Unwind_Resume@plt>
	endbr64
	mov    %rax,%rbx
	call   <__cxa_end_catch@plt>
	mov    %rbx,%rdi
	call   <_Unwind_Resume@plt>
	endbr64
	mov    %rax,%rbx
	call   <__cxa_end_catch@plt>
	mov    %rbx,%rdi
	call   <_Unwind_Resume@plt>
	endbr64
	mov    %rax,%rbx
	call   <__cxa_end_catch@plt>
	jmp    <_ZNSt8_Rb_treeINSt7__cxx1112basic_stringIcSt11char_traitsIcESaIcEEESt4pairIKS5_N9benchmark7CounterEESt10_Select1stISA_ESt4lessIS5_ESaISA_EE7_M_copyILb0ENSG_20_Reuse_or_alloc_nodeEEEPSt13_Rb_tree_nodeISA_ESL_PSt18_Rb_tree_node_baseRT0_.isra.0.cold+0x51>
	nop

<_ZNSt8_Rb_treeINSt7__cxx1112basic_stringIcSt11char_traitsIcESaIcEEESt4pairIKS5_N9benchmark7CounterEESt10_Select1stISA_ESt4lessIS5_ESaISA_EEaSERKSG_.isra.0.cold>:
	mov    (%rsp),%rdi
	call   <_ZNSt8_Rb_treeINSt7__cxx1112basic_stringIcSt11char_traitsIcESaIcEEESt4pairIKS5_N9benchmark7CounterEESt10_Select1stISA_ESt4lessIS5_ESaISA_EE8_M_eraseEPSt13_Rb_tree_nodeISA_E.isra.0>
	mov    %rbx,%rdi
	call   <_Unwind_Resume@plt>

<_ZN9benchmark8internal12_GLOBAL__N_111RunInThreadEPKNS0_17BenchmarkInstanceEliPNS0_13ThreadManagerEPNS0_23PerfCountersMeasurementEPNS_15ProfilerManagerE.cold>:
	mov    %r12,%rdi
	call   <pthread_mutex_unlock@plt>
	mov    %r13,%rdi
	call   <_ZN9benchmark5StateD2Ev>
	mov    %rbx,%rdi
	call   <_Unwind_Resume@plt>
	nop

<_ZN9benchmark8internal15BenchmarkRunnerC2ERKNS0_17BenchmarkInstanceEPNS0_23PerfCountersMeasurementEPNS_17BenchmarkReporter19PerFamilyRunReportsE.cold>:
	mov    0x90(%rbx),%rdi
	mov    0xa0(%rbx),%rsi
	sub    %rdi,%rsi
	test   %rdi,%rdi
	je     <_ZN9benchmark8internal15BenchmarkRunnerC2ERKNS0_17BenchmarkInstanceEPNS0_23PerfCountersMeasurementEPNS_17BenchmarkReporter19PerFamilyRunReportsE.cold+0x1b>
	call   <_ZdlPvm@plt>
	mov    0x78(%rbx),%rdi
	mov    0x80(%rbx),%rdx
	mov    %rdi,%rax
	cmp    %rax,%rdx
	je     <_ZN9benchmark8internal15BenchmarkRunnerC2ERKNS0_17BenchmarkInstanceEPNS0_23PerfCountersMeasurementEPNS_17BenchmarkReporter19PerFamilyRunReportsE.cold+0x39>
	cmpq   $0x0,(%rax)
	je     <_ZN9benchmark8internal15BenchmarkRunnerC2ERKNS0_17BenchmarkInstanceEPNS0_23PerfCountersMeasurementEPNS_17BenchmarkReporter19PerFamilyRunReportsE.cold+0x66>
	call   <_ZSt9terminatev@plt>
	mov    0x88(%rbx),%rsi
	sub    %rdi,%rsi
	test   %rdi,%rdi
	je     <_ZN9benchmark8internal15BenchmarkRunnerC2ERKNS0_17BenchmarkInstanceEPNS0_23PerfCountersMeasurementEPNS_17BenchmarkReporter19PerFamilyRunReportsE.cold+0x4d>
	call   <_ZdlPvm@plt>
	lea    0x18(%rbx),%rdi
	call   <_ZNSt6vectorIN9benchmark17BenchmarkReporter3RunESaIS2_EED2Ev>
	mov    %rbx,%rdi
	call   <_ZNSt6vectorIN9benchmark17BenchmarkReporter3RunESaIS2_EED2Ev>
	mov    %rbp,%rdi
	call   <_Unwind_Resume@plt>
	add    $0x8,%rax
	jmp    <_ZN9benchmark8internal15BenchmarkRunnerC2ERKNS0_17BenchmarkInstanceEPNS0_23PerfCountersMeasurementEPNS_17BenchmarkReporter19PerFamilyRunReportsE.cold+0x29>

<_ZN9benchmark8internal15BenchmarkRunner13DoNIterationsEv.cold>:
	mov    %rbp,%rdi
	call   <pthread_mutex_unlock@plt>
	mov    %r13,%rdi
	call   <_ZN9benchmark8internal13ThreadManager6ResultD2Ev>
	lea    0x20(%rsp),%rdi
	call   <_ZNSt10unique_ptrIN9benchmark8internal13ThreadManagerESt14default_deleteIS2_EED2Ev>
	mov    %rbx,%rdi
	call   <_Unwind_Resume@plt>
	cmpb   $0x0,0x38(%rsp)
	je     <_ZN9benchmark8internal15BenchmarkRunner13DoNIterationsEv.cold+0x10>
	mov    %r14,%rdi
	call   <_ZNSt11unique_lockISt5mutexE6unlockEv>
	jmp    <_ZN9benchmark8internal15BenchmarkRunner13DoNIterationsEv.cold+0x10>
	mov    0x30(%rsp),%rdi
	test   %rdi,%rdi
	je     <_ZN9benchmark8internal15BenchmarkRunner13DoNIterationsEv.cold+0x10>
	mov    (%rdi),%rax
	call   *0x8(%rax)
	jmp    <_ZN9benchmark8internal15BenchmarkRunner13DoNIterationsEv.cold+0x10>
	mov    %r12,%rdi
	call   <_ZNSt7__cxx1112basic_stringIcSt11char_traitsIcESaIcEE10_M_disposeEv>
	mov    %rbx,%rdi
	call   <_Unwind_Resume@plt>
	nop

<_ZN9benchmark8internal15BenchmarkRunner9RunWarmUpEv.cold>:
	mov    0x18(%rsp),%rdi
	call   <_ZN9benchmark8internal13ThreadManager6ResultD2Ev>
	mov    %rbx,%rdi
	call   <_Unwind_Resume@plt>

<_ZN9benchmark8internal15BenchmarkRunner18RunProfilerManagerEv.cold>:
	cmpb   $0x0,0x18(%rsp)
	je     <_ZN9benchmark8internal15BenchmarkRunner18RunProfilerManagerEv.cold+0xf>
	mov    %r13,%rdi
	call   <_ZNSt11unique_lockISt5mutexE6unlockEv>
	lea    0x8(%rsp),%rdi
	call   <_ZNSt10unique_ptrIN9benchmark8internal13ThreadManagerESt14default_deleteIS2_EED2Ev>
	mov    %rbx,%rdi
	call   <_Unwind_Resume@plt>
	nop

<_ZN9benchmark8internal15BenchmarkRunner16RunMemoryManagerEl.cold>:
	cmpb   $0x0,0x18(%rsp)
	je     <_ZN9benchmark8internal15BenchmarkRunner16RunMemoryManagerEl.cold+0xf>
	mov    %r14,%rdi
	call   <_ZNSt11unique_lockISt5mutexE6unlockEv>
	lea    0x8(%rsp),%rdi
	call   <_ZNSt10unique_ptrIN9benchmark8internal13ThreadManagerESt14default_deleteIS2_EED2Ev>
	mov    %rbx,%rdi
	call   <_Unwind_Resume@plt>
	nop

<_ZN9benchmark8internal15BenchmarkRunner15DoOneRepetitionEv.cold>:
	mov    0x98(%rsp),%rdi
	call   <_ZNSt7__cxx1112basic_stringIcSt11char_traitsIcESaIcEE10_M_disposeEv>
	mov    0x90(%rsp),%rdi
	call   <_ZNSt7__cxx1112basic_stringIcSt11char_traitsIcESaIcEE10_M_disposeEv>
	mov    0x88(%rsp),%rdi
	call   <_ZNSt7__cxx1112basic_stringIcSt11char_traitsIcESaIcEE10_M_disposeEv>
	mov    0x80(%rsp),%rdi
	call   <_ZNSt7__cxx1112basic_stringIcSt11char_traitsIcESaIcEE10_M_disposeEv>
	mov    0x78(%rsp),%rdi
	call   <_ZNSt7__cxx1112basic_stringIcSt11char_traitsIcESaIcEE10_M_disposeEv>
	mov    0x8(%rsp),%rdi
	call   <_ZNSt7__cxx1112basic_stringIcSt11char_traitsIcESaIcEE10_M_disposeEv>
	mov    %rbx,%rdi
	call   <_ZNSt7__cxx1112basic_stringIcSt11char_traitsIcESaIcEE10_M_disposeEv>
	mov    %r14,%rdi
	mov    %rbp,%rbx
	lea    0xb0(%rsp),%rbp
	call   <_ZN9benchmark17BenchmarkReporter3RunD2Ev>
	mov    %rbp,%rdi
	call   <_ZN9benchmark8internal13ThreadManager6ResultD2Ev>
	mov    %rbx,%rdi
	call   <_Unwind_Resume@plt>
	mov    %r12,%rdi
	call   <_ZNSt7__cxx1112basic_stringIcSt11char_traitsIcESaIcEE10_M_disposeEv>
	mov    0x90(%rsp),%rdi
	call   <_ZNSt7__cxx1112basic_stringIcSt11char_traitsIcESaIcEE10_M_disposeEv>
	mov    0x88(%rsp),%rdi
	call   <_ZNSt7__cxx1112basic_stringIcSt11char_traitsIcESaIcEE10_M_disposeEv>
	mov    0x80(%rsp),%rdi
	call   <_ZNSt7__cxx1112basic_stringIcSt11char_traitsIcESaIcEE10_M_disposeEv>
	mov    0x78(%rsp),%rdi
	call   <_ZNSt7__cxx1112basic_stringIcSt11char_traitsIcESaIcEE10_M_disposeEv>
	mov    0x8(%rsp),%rdi
	call   <_ZNSt7__cxx1112basic_stringIcSt11char_traitsIcESaIcEE10_M_disposeEv>
	jmp    <_ZN9benchmark8internal15BenchmarkRunner15DoOneRepetitionEv.cold+0x48>
	mov    %r13,%rdi
	call   <_ZNSt7__cxx1112basic_stringIcSt11char_traitsIcESaIcEE10_M_disposeEv>
	mov    0x78(%rsp),%rdi
	call   <_ZNSt7__cxx1112basic_stringIcSt11char_traitsIcESaIcEE10_M_disposeEv>
	mov    0x8(%rsp),%rdi
	call   <_ZNSt7__cxx1112basic_stringIcSt11char_traitsIcESaIcEE10_M_disposeEv>
	mov    %rbx,%rdi
	call   <_ZN9benchmark13BenchmarkNameD2Ev>
	jmp    <_ZN9benchmark8internal15BenchmarkRunner15DoOneRepetitionEv.cold+0x50>
	mov    0x80(%rsp),%rdi
	call   <_ZNSt7__cxx1112basic_stringIcSt11char_traitsIcESaIcEE10_M_disposeEv>
	mov    0x78(%rsp),%rdi
	call   <_ZNSt7__cxx1112basic_stringIcSt11char_traitsIcESaIcEE10_M_disposeEv>
	mov    0x8(%rsp),%rdi
	call   <_ZNSt7__cxx1112basic_stringIcSt11char_traitsIcESaIcEE10_M_disposeEv>
	jmp    <_ZN9benchmark8internal15BenchmarkRunner15DoOneRepetitionEv.cold+0xd4>
	mov    %r14,%rdi
	lea    0xb0(%rsp),%rbp
	call   <_ZN9benchmark17BenchmarkReporter3RunD2Ev>
	jmp    <_ZN9benchmark8internal15BenchmarkRunner15DoOneRepetitionEv.cold+0x63>
	lea    0x2c8(%rsp),%rdi
	lea    0xb0(%rsp),%rbp
	call   <_ZNSt7__cxx1112basic_stringIcSt11char_traitsIcESaIcEE10_M_disposeEv>
	lea    0x2a0(%rsp),%rdi
	call   <_ZNSt7__cxx1112basic_stringIcSt11char_traitsIcESaIcEE10_M_disposeEv>
	lea    0x278(%rsp),%rdi
	call   <_ZNSt7__cxx1112basic_stringIcSt11char_traitsIcESaIcEE10_M_disposeEv>
	mov    %r14,%rdi
	call   <_ZN9benchmark13BenchmarkNameD2Ev>
	jmp    <_ZN9benchmark8internal15BenchmarkRunner15DoOneRepetitionEv.cold+0x63>

<_ZN9benchmark12FormatStringB5cxx11EPKcP13__va_list_tag.cold>:
	mov    %r13,%rdi
	call   <_ZdaPv@plt>
	mov    %rbx,%rdi
	call   <_Unwind_Resume@plt>

<_ZN9benchmark11ColorPrintfERSoNS_8LogColorEPKcP13__va_list_tag.cold>:
	mov    %r13,%rdi
	call   <_ZNSt7__cxx1112basic_stringIcSt11char_traitsIcESaIcEE10_M_disposeEv>
	mov    %rbx,%rdi
	call   <_Unwind_Resume@plt>
	mov    %r13,%rdi
	call   <_ZNSt7__cxx1112basic_stringIcSt11char_traitsIcESaIcEE10_M_disposeEv>
	mov    %rbx,%rdi
	call   <_Unwind_Resume@plt>
	nop

<_ZN9benchmark12_GLOBAL__N_1L12FlagToEnvVarEPKc.cold>:
	mov    %rbx,%rdi
	call   <_ZNSt7__cxx1112basic_stringIcSt11char_traitsIcESaIcEE10_M_disposeEv>
	mov    0x18(%rsp),%rdi
	call   <_ZNSt7__cxx1112basic_stringIcSt11char_traitsIcESaIcEE10_M_disposeEv>
	mov    %rbp,%rdi
	call   <_Unwind_Resume@plt>

<_ZNSt8_Rb_treeINSt7__cxx1112basic_stringIcSt11char_traitsIcESaIcEEESt4pairIKS5_S5_ESt10_Select1stIS8_ESt4lessIS5_ESaIS8_EE7_M_copyILb0ENSE_20_Reuse_or_alloc_nodeEEEPSt13_Rb_tree_nodeIS8_ESJ_PSt18_Rb_tree_node_baseRT0_.isra.0.cold>:
	mov    0x8(%rsp),%rdi
	call   <_ZNSt7__cxx1112basic_stringIcSt11char_traitsIcESaIcEE10_M_disposeEv>
	mov    %rbx,%rdi
	call   <__cxa_begin_catch@plt>
	mov    $0x60,%esi
	mov    %r12,%rdi
	call   <_ZdlPvm@plt>
	call   <__cxa_rethrow@plt>
	mov    0x10(%rsp),%rdi
	call   <_ZNSt7__cxx1112basic_stringIcSt11char_traitsIcESaIcEE10_M_disposeEv>
	mov    %rbp,%rdi
	call   <__cxa_begin_catch@plt>
	mov    $0x60,%esi
	mov    %rbx,%rdi
	call   <_ZdlPvm@plt>
	call   <__cxa_rethrow@plt>
	endbr64
	mov    %rax,%rbx
	call   <__cxa_end_catch@plt>
	mov    %rbx,%rdi
	call   <__cxa_begin_catch@plt>
	mov    %r12,%rdi
	call   <_ZNSt8_Rb_treeINSt7__cxx1112basic_stringIcSt11char_traitsIcESaIcEEESt4pairIKS5_S5_ESt10_Select1stIS8_ESt4lessIS5_ESaIS8_EE8_M_eraseEPSt13_Rb_tree_nodeIS8_E.isra.0>
	call   <__cxa_rethrow@plt>
	mov    0x18(%rsp),%rdi
	call   <_ZNSt7__cxx1112basic_stringIcSt11char_traitsIcESaIcEE10_M_disposeEv>
	mov    %rbp,%rdi
	call   <__cxa_begin_catch@plt>
	mov    $0x60,%esi
	mov    %rbx,%rdi
	call   <_ZdlPvm@plt>
	call   <__cxa_rethrow@plt>
	endbr64
	mov    %rax,%rbx
	call   <__cxa_end_catch@plt>
	mov    %rbx,%rdi
	call   <_Unwind_Resume@plt>
	mov    0x10(%rsp),%rdi
	call   <_ZNSt7__cxx1112basic_stringIcSt11char_traitsIcESaIcEE10_M_disposeEv>
	mov    %rbx,%rdi
	call   <__cxa_begin_catch@plt>
	mov    $0x60,%esi
	mov    %r12,%rdi
	call   <_ZdlPvm@plt>
	call   <__cxa_rethrow@plt>
	endbr64
	mov    %rax,%rbx
	call   <__cxa_end_catch@plt>
	mov    %rbx,%rdi
	call   <_Unwind_Resume@plt>
	endbr64
	mov    %rax,%rbx
	call   <__cxa_end_catch@plt>
	jmp    <_ZNSt8_Rb_treeINSt7__cxx1112basic_stringIcSt11char_traitsIcESaIcEEESt4pairIKS5_S5_ESt10_Select1stIS8_ESt4lessIS5_ESaIS8_EE7_M_copyILb0ENSE_20_Reuse_or_alloc_nodeEEEPSt13_Rb_tree_nodeIS8_ESJ_PSt18_Rb_tree_node_baseRT0_.isra.0.cold+0x54>
	endbr64
	mov    %rax,%rbx
	call   <__cxa_end_catch@plt>
	mov    %rbx,%rdi
	call   <_Unwind_Resume@plt>

<_ZN9benchmark12Int32FromEnvEPKci.cold>:
	mov    0x8(%rsp),%rdi
	call   <_ZNSt7__cxx1112basic_stringIcSt11char_traitsIcESaIcEE10_M_disposeEv>
	mov    %r14,%rdi
	call   <_ZNSt7__cxx1112basic_stringIcSt11char_traitsIcESaIcEE10_M_disposeEv>
	mov    %r12,%rdi
	call   <_ZNSt7__cxx1112basic_stringIcSt11char_traitsIcESaIcEE10_M_disposeEv>
	mov    %rbx,%rdi
	call   <_Unwind_Resume@plt>

<_ZN9benchmark13DoubleFromEnvEPKcd.cold>:
	lea    0x60(%rsp),%rdi
	call   <_ZNSt7__cxx1112basic_stringIcSt11char_traitsIcESaIcEE10_M_disposeEv>
	mov    %r13,%rdi
	call   <_ZNSt7__cxx1112basic_stringIcSt11char_traitsIcESaIcEE10_M_disposeEv>
	mov    %rbp,%rdi
	call   <_ZNSt7__cxx1112basic_stringIcSt11char_traitsIcESaIcEE10_M_disposeEv>
	mov    %rbx,%rdi
	call   <_Unwind_Resume@plt>

<_ZN9benchmark14ParseFlagValueEPKcS1_b.cold>:
	mov    %r15,%rdi
	call   <_ZNSt7__cxx1112basic_stringIcSt11char_traitsIcESaIcEE10_M_disposeEv>
	mov    %r13,%rdi
	call   <_ZNSt7__cxx1112basic_stringIcSt11char_traitsIcESaIcEE10_M_disposeEv>
	mov    %rbx,%rdi
	call   <_Unwind_Resume@plt>

<_ZN9benchmark14ParseInt32FlagEPKcS1_Pi.cold>:
	mov    %r15,%rdi
	call   <_ZNSt7__cxx1112basic_stringIcSt11char_traitsIcESaIcEE10_M_disposeEv>
	mov    %r13,%rdi
	call   <_ZNSt7__cxx1112basic_stringIcSt11char_traitsIcESaIcEE10_M_disposeEv>
	mov    %rbx,%rdi
	call   <_Unwind_Resume@plt>

<_ZN9benchmark15ParseDoubleFlagEPKcS1_Pd.cold>:
	lea    0x30(%rsp),%rdi
	call   <_ZNSt7__cxx1112basic_stringIcSt11char_traitsIcESaIcEE10_M_disposeEv>
	mov    %r13,%rdi
	call   <_ZNSt7__cxx1112basic_stringIcSt11char_traitsIcESaIcEE10_M_disposeEv>
	mov    %rbx,%rdi
	call   <_Unwind_Resume@plt>

<_ZN9benchmark11BoolFromEnvEPKcb.cold>:
	mov    %r14,%rdi
	call   <_ZNSt7__cxx1112basic_stringIcSt11char_traitsIcESaIcEE10_M_disposeEv>
	mov    %r12,%rdi
	call   <_ZNSt7__cxx1112basic_stringIcSt11char_traitsIcESaIcEE10_M_disposeEv>
	mov    %rbx,%rdi
	call   <_Unwind_Resume@plt>

<_ZN9benchmark13ParseBoolFlagEPKcS1_Pb.cold>:
	mov    %r14,%rdi
	call   <_ZNSt7__cxx1112basic_stringIcSt11char_traitsIcESaIcEE10_M_disposeEv>
	mov    %rbx,%rdi
	call   <_Unwind_Resume@plt>

<_ZN9benchmark17ParseKeyValueFlagEPKcS1_PSt3mapINSt7__cxx1112basic_stringIcSt11char_traitsIcESaIcEEES8_St4lessIS8_ESaISt4pairIKS8_S8_EEE.cold>:
	mov    %r14,%rdi
	call   <_ZNSt6vectorINSt7__cxx1112basic_stringIcSt11char_traitsIcESaIcEEESaIS5_EED2Ev>
	mov    0x8(%rsp),%rdi
	call   <_ZNSt6vectorINSt7__cxx1112basic_stringIcSt11char_traitsIcESaIcEEESaIS5_EED2Ev>
	mov    %rbx,%rdi
	call   <_Unwind_Resume@plt>
	mov    %r12,%rdi
	call   <_ZNSt7__cxx1112basic_stringIcSt11char_traitsIcESaIcEE10_M_disposeEv>
	mov    %rbx,%rdi
	call   <_Unwind_Resume@plt>

<_ZN9benchmark14KvPairsFromEnvEPKcSt3mapINSt7__cxx1112basic_stringIcSt11char_traitsIcESaIcEEES8_St4lessIS8_ESaISt4pairIKS8_S8_EEE.cold>:
	mov    0x60(%rsp),%rdi
	call   <_ZNSt8_Rb_treeINSt7__cxx1112basic_stringIcSt11char_traitsIcESaIcEEESt4pairIKS5_S5_ESt10_Select1stIS8_ESt4lessIS5_ESaIS8_EE8_M_eraseEPSt13_Rb_tree_nodeIS8_E.isra.0>
	mov    0xc0(%rsp),%rdi
	call   <_ZNSt8_Rb_treeINSt7__cxx1112basic_stringIcSt11char_traitsIcESaIcEEESt4pairIKS5_S5_ESt10_Select1stIS8_ESt4lessIS5_ESaIS8_EE8_M_eraseEPSt13_Rb_tree_nodeIS8_E.isra.0>
	mov    0x18(%rsp),%rdi
	call   <_ZNSt7__cxx1112basic_stringIcSt11char_traitsIcESaIcEE10_M_disposeEv>
	mov    0x90(%rsp),%rdi
	call   <_ZNSt8_Rb_treeINSt7__cxx1112basic_stringIcSt11char_traitsIcESaIcEEESt4pairIKS5_S5_ESt10_Select1stIS8_ESt4lessIS5_ESaIS8_EE8_M_eraseEPSt13_Rb_tree_nodeIS8_E.isra.0>
	mov    0x28(%rsp),%rdi
	call   <_ZNSt7__cxx1112basic_stringIcSt11char_traitsIcESaIcEE10_M_disposeEv>
	mov    %rbx,%rdi
	call   <_Unwind_Resume@plt>
	mov    (%rsp),%rdi
	call   <_ZNSt6vectorINSt7__cxx1112basic_stringIcSt11char_traitsIcESaIcEEESaIS5_EED2Ev>
	mov    0x30(%rsp),%rdi
	call   <_ZNSt6vectorINSt7__cxx1112basic_stringIcSt11char_traitsIcESaIcEEESaIS5_EED2Ev>
	jmp    <_ZN9benchmark14KvPairsFromEnvEPKcSt3mapINSt7__cxx1112basic_stringIcSt11char_traitsIcESaIcEEES8_St4lessIS8_ESaISt4pairIKS8_S8_EEE.cold+0xa>
	mov    %r14,%rdi
	call   <_ZNSt7__cxx1112basic_stringIcSt11char_traitsIcESaIcEE10_M_disposeEv>
	jmp    <_ZN9benchmark14KvPairsFromEnvEPKcSt3mapINSt7__cxx1112basic_stringIcSt11char_traitsIcESaIcEEES8_St4lessIS8_ESaISt4pairIKS8_S8_EEE.cold+0xa>
	nop

<_ZNSt8_Rb_treeINSt7__cxx1112basic_stringIcSt11char_traitsIcESaIcEEESt4pairIKS5_N9benchmark7CounterEESt10_Select1stISA_ESt4lessIS5_ESaISA_EE7_M_copyILb0ENSG_11_Alloc_nodeEEEPSt13_Rb_tree_nodeISA_ESL_PSt18_Rb_tree_node_baseRT0_.isra.0.cold>:
	call   <__cxa_begin_catch@plt>
	mov    $0x50,%esi
	mov    %rbx,%rdi
	call   <_ZdlPvm@plt>
	call   <__cxa_rethrow@plt>
	call   <__cxa_begin_catch@plt>
	mov    $0x50,%esi
	mov    %r12,%rdi
	call   <_ZdlPvm@plt>
	call   <__cxa_rethrow@plt>
	endbr64
	mov    %rax,%rbx
	call   <__cxa_end_catch@plt>
	mov    %rbx,%rdi
	call   <__cxa_begin_catch@plt>
	mov    %r12,%rdi
	call   <_ZNSt8_Rb_treeINSt7__cxx1112basic_stringIcSt11char_traitsIcESaIcEEESt4pairIKS5_N9benchmark7CounterEESt10_Select1stISA_ESt4lessIS5_ESaISA_EE8_M_eraseEPSt13_Rb_tree_nodeISA_E.isra.0>
	call   <__cxa_rethrow@plt>
	endbr64
	mov    %rax,%rbx
	call   <__cxa_end_catch@plt>
	mov    %rbx,%rdi
	call   <_Unwind_Resume@plt>
	endbr64
	mov    %rax,%rbx
	call   <__cxa_end_catch@plt>
	mov    %rbx,%rdi
	call   <_Unwind_Resume@plt>

<_ZN9benchmark14MinimalLeastSqERKSt6vectorIlSaIlEERKS0_IdSaIdEENS_4BigOE.cold>:
	mov    0x10(%rsp),%rdi
	mov    $0x14,%esi
	call   <_ZdlPvm@plt>
	mov    %rbx,%rdi
	call   <_Unwind_Resume@plt>

<_ZN9benchmark11ComputeBigOERKSt6vectorINS_17BenchmarkReporter3RunESaIS2_EE.cold>:
	mov    %r13,%rdi
	call   <_ZNSt7__cxx1112basic_stringIcSt11char_traitsIcESaIcEE10_M_disposeEv>
	mov    %r12,%rdi
	call   <_ZNSt7__cxx1112basic_stringIcSt11char_traitsIcESaIcEE10_M_disposeEv>
	mov    0xb8(%rsp),%rdi
	call   <_ZNSt7__cxx1112basic_stringIcSt11char_traitsIcESaIcEE10_M_disposeEv>
	mov    0xa0(%rsp),%rdi
	call   <_ZNSt7__cxx1112basic_stringIcSt11char_traitsIcESaIcEE10_M_disposeEv>
	mov    0x28(%rsp),%rdi
	call   <_ZNSt7__cxx1112basic_stringIcSt11char_traitsIcESaIcEE10_M_disposeEv>
	mov    0x10(%rsp),%rdi
	call   <_ZNSt7__cxx1112basic_stringIcSt11char_traitsIcESaIcEE10_M_disposeEv>
	mov    %rbx,%rdi
	call   <_ZNSt7__cxx1112basic_stringIcSt11char_traitsIcESaIcEE10_M_disposeEv>
	mov    0x108(%rsp),%rdi
	mov    %rbp,%rbx
	call   <_ZN9benchmark17BenchmarkReporter3RunD2Ev>
	mov    0x100(%rsp),%rdi
	call   <_ZN9benchmark17BenchmarkReporter3RunD2Ev>
	mov    0x8(%rsp),%rdi
	call   <_ZN9benchmark13BenchmarkNameD2Ev>
	mov    0x150(%rsp),%rdi
	mov    0x160(%rsp),%rsi
	sub    %rdi,%rsi
	test   %rdi,%rdi
	je     <_ZN9benchmark11ComputeBigOERKSt6vectorINS_17BenchmarkReporter3RunESaIS2_EE.cold+0x8a>
	call   <_ZdlPvm@plt>
	mov    0x130(%rsp),%rdi
	mov    0x140(%rsp),%rsi
	sub    %rdi,%rsi
	test   %rdi,%rdi
	je     <_ZN9benchmark11ComputeBigOERKSt6vectorINS_17BenchmarkReporter3RunESaIS2_EE.cold+0xa7>
	call   <_ZdlPvm@plt>
	mov    0x110(%rsp),%rdi
	mov    0x120(%rsp),%rsi
	sub    %rdi,%rsi
	test   %rdi,%rdi
	je     <_ZN9benchmark11ComputeBigOERKSt6vectorINS_17BenchmarkReporter3RunESaIS2_EE.cold+0xc4>
	call   <_ZdlPvm@plt>
	mov    %r15,%rdi
	call   <_ZNSt6vectorIN9benchmark17BenchmarkReporter3RunESaIS2_EED2Ev>
	mov    %rbx,%rdi
	call   <_Unwind_Resume@plt>
	mov    %r13,%rdi
	call   <_ZNSt7__cxx1112basic_stringIcSt11char_traitsIcESaIcEE10_M_disposeEv>
	mov    %r12,%rdi
	call   <_ZNSt7__cxx1112basic_stringIcSt11char_traitsIcESaIcEE10_M_disposeEv>
	mov    0xb8(%rsp),%rdi
	call   <_ZNSt7__cxx1112basic_stringIcSt11char_traitsIcESaIcEE10_M_disposeEv>
	mov    0xa0(%rsp),%rdi
	call   <_ZNSt7__cxx1112basic_stringIcSt11char_traitsIcESaIcEE10_M_disposeEv>
	mov    0x28(%rsp),%rdi
	call   <_ZNSt7__cxx1112basic_stringIcSt11char_traitsIcESaIcEE10_M_disposeEv>
	mov    0x10(%rsp),%rdi
	call   <_ZNSt7__cxx1112basic_stringIcSt11char_traitsIcESaIcEE10_M_disposeEv>
	mov    %rbx,%rdi
	call   <_ZNSt7__cxx1112basic_stringIcSt11char_traitsIcESaIcEE10_M_disposeEv>
	jmp    <_ZN9benchmark11ComputeBigOERKSt6vectorINS_17BenchmarkReporter3RunESaIS2_EE.cold+0x46>
	mov    %r14,%rdi
	call   <_ZNSt7__cxx1112basic_stringIcSt11char_traitsIcESaIcEE10_M_disposeEv>
	mov    %r13,%rdi
	call   <_ZNSt7__cxx1112basic_stringIcSt11char_traitsIcESaIcEE10_M_disposeEv>
	mov    0x10(%rsp),%rdi
	call   <_ZNSt7__cxx1112basic_stringIcSt11char_traitsIcESaIcEE10_M_disposeEv>
	mov    %rbx,%rdi
	call   <_ZN9benchmark13BenchmarkNameD2Ev>
	jmp    <_ZN9benchmark11ComputeBigOERKSt6vectorINS_17BenchmarkReporter3RunESaIS2_EE.cold+0x46>
	mov    %r14,%rdi
	call   <_ZNSt7__cxx1112basic_stringIcSt11char_traitsIcESaIcEE10_M_disposeEv>
	mov    %r13,%rdi
	call   <_ZNSt7__cxx1112basic_stringIcSt11char_traitsIcESaIcEE10_M_disposeEv>
	mov    0x10(%rsp),%rdi
	call   <_ZNSt7__cxx1112basic_stringIcSt11char_traitsIcESaIcEE10_M_disposeEv>
	mov    %rbx,%rdi
	call   <_ZN9benchmark13BenchmarkNameD2Ev>
	jmp    <_ZN9benchmark11ComputeBigOERKSt6vectorINS_17BenchmarkReporter3RunESaIS2_EE.cold+0x46>
	lea    0x648(%rsp),%rdi
	lea    0x4e0(%rsp),%rbp
	call   <_ZNSt7__cxx1112basic_stringIcSt11char_traitsIcESaIcEE10_M_disposeEv>
	lea    0x620(%rsp),%rdi
	call   <_ZNSt7__cxx1112basic_stringIcSt11char_traitsIcESaIcEE10_M_disposeEv>
	lea    0x5f8(%rsp),%rdi
	call   <_ZNSt7__cxx1112basic_stringIcSt11char_traitsIcESaIcEE10_M_disposeEv>
	mov    %rbp,%rdi
	call   <_ZN9benchmark13BenchmarkNameD2Ev>
	jmp    <_ZN9benchmark11ComputeBigOERKSt6vectorINS_17BenchmarkReporter3RunESaIS2_EE.cold+0x56>
	lea    0x418(%rsp),%rdi
	lea    0x2b0(%rsp),%rbp
	call   <_ZNSt7__cxx1112basic_stringIcSt11char_traitsIcESaIcEE10_M_disposeEv>
	lea    0x3f0(%rsp),%rdi
	call   <_ZNSt7__cxx1112basic_stringIcSt11char_traitsIcESaIcEE10_M_disposeEv>
	lea    0x3c8(%rsp),%rdi
	call   <_ZNSt7__cxx1112basic_stringIcSt11char_traitsIcESaIcEE10_M_disposeEv>
	mov    %rbp,%rdi
	call   <_ZN9benchmark13BenchmarkNameD2Ev>
	jmp    <_ZN9benchmark11ComputeBigOERKSt6vectorINS_17BenchmarkReporter3RunESaIS2_EE.cold+0x63>
	nop

<_ZN9benchmarkL16IgnoreColorPrintERSoNS_8LogColorEPKcz.cold>:
	mov    %rbp,%rdi
	call   <_ZNSt7__cxx1112basic_stringIcSt11char_traitsIcESaIcEE10_M_disposeEv>
	mov    %rbx,%rdi
	call   <_Unwind_Resume@plt>

<_ZN9benchmark15ConsoleReporter11PrintHeaderERKNS_17BenchmarkReporter3RunE.cold>:
	mov    %r14,%rdi
	call   <_ZNSt7__cxx1112basic_stringIcSt11char_traitsIcESaIcEE10_M_disposeEv>
	mov    %r12,%rdi
	call   <_ZNSt7__cxx1112basic_stringIcSt11char_traitsIcESaIcEE10_M_disposeEv>
	mov    %rbx,%rdi
	call   <_Unwind_Resume@plt>
	mov    %r14,%rdi
	call   <_ZNSt7__cxx1112basic_stringIcSt11char_traitsIcESaIcEE10_M_disposeEv>
	jmp    <_ZN9benchmark15ConsoleReporter11PrintHeaderERKNS_17BenchmarkReporter3RunE.cold+0x8>

<_ZNSt8_Rb_treeINSt7__cxx1112basic_stringIcSt11char_traitsIcESaIcEEESt4pairIKS5_N9benchmark7CounterEESt10_Select1stISA_ESt4lessIS5_ESaISA_EE7_M_copyILb0ENSG_20_Reuse_or_alloc_nodeEEEPSt13_Rb_tree_nodeISA_ESL_PSt18_Rb_tree_node_baseRT0_.isra.0.cold>:
	call   <__cxa_begin_catch@plt>
	mov    $0x50,%esi
	mov    %r12,%rdi
	call   <_ZdlPvm@plt>
	call   <__cxa_rethrow@plt>
	call   <__cxa_begin_catch@plt>
	mov    $0x50,%esi
	mov    %r12,%rdi
	call   <_ZdlPvm@plt>
	call   <__cxa_rethrow@plt>
	call   <__cxa_begin_catch@plt>
	mov    $0x50,%esi
	mov    %rbx,%rdi
	call   <_ZdlPvm@plt>
	call   <__cxa_rethrow@plt>
	endbr64
	mov    %rax,%rbx
	call   <__cxa_end_catch@plt>
	mov    %rbx,%rdi
	call   <__cxa_begin_catch@plt>
	mov    %r12,%rdi
	call   <_ZNSt8_Rb_treeINSt7__cxx1112basic_stringIcSt11char_traitsIcESaIcEEESt4pairIKS5_N9benchmark7CounterEESt10_Select1stISA_ESt4lessIS5_ESaISA_EE8_M_eraseEPSt13_Rb_tree_nodeISA_E.isra.0>
	call   <__cxa_rethrow@plt>
	call   <__cxa_begin_catch@plt>
	mov    $0x50,%esi
	mov    %rbx,%rdi
	call   <_ZdlPvm@plt>
	call   <__cxa_rethrow@plt>
	endbr64
	mov    %rax,%rbx
	call   <__cxa_end_catch@plt>
	mov    %rbx,%rdi
	call   <_Unwind_Resume@plt>
	endbr64
	mov    %rax,%rbx
	call   <__cxa_end_catch@plt>
	mov    %rbx,%rdi
	call   <_Unwind_Resume@plt>
	endbr64
	mov    %rax,%rbx
	call   <__cxa_end_catch@plt>
	mov    %rbx,%rdi
	call   <_Unwind_Resume@plt>
	endbr64
	mov    %rax,%rbx
	call   <__cxa_end_catch@plt>
	jmp    <_ZNSt8_Rb_treeINSt7__cxx1112basic_stringIcSt11char_traitsIcESaIcEEESt4pairIKS5_N9benchmark7CounterEESt10_Select1stISA_ESt4lessIS5_ESaISA_EE7_M_copyILb0ENSG_20_Reuse_or_alloc_nodeEEEPSt13_Rb_tree_nodeISA_ESL_PSt18_Rb_tree_node_baseRT0_.isra.0.cold+0x51>
	nop

<_ZN9benchmark15ConsoleReporter10ReportRunsERKSt6vectorINS_17BenchmarkReporter3RunESaIS3_EE.cold>:
	mov    0x10(%rsp),%rdi
	call   <_ZNSt8_Rb_treeINSt7__cxx1112basic_stringIcSt11char_traitsIcESaIcEEESt4pairIKS5_N9benchmark7CounterEESt10_Select1stISA_ESt4lessIS5_ESaISA_EE8_M_eraseEPSt13_Rb_tree_nodeISA_E.isra.0>
	mov    %rbx,%rdi
	call   <_Unwind_Resume@plt>

<_ZN9benchmark15ConsoleReporter12PrintRunDataERKNS_17BenchmarkReporter3RunE.cold>:
	lea    -0x80(%rbp),%rdi
	call   <_ZNSt7__cxx1112basic_stringIcSt11char_traitsIcESaIcEE10_M_disposeEv>
	mov    -0x100(%rbp),%rdi
	call   <_ZNSt7__cxx1112basic_stringIcSt11char_traitsIcESaIcEE10_M_disposeEv>
	mov    -0xf8(%rbp),%rdi
	call   <_ZNSt7__cxx1112basic_stringIcSt11char_traitsIcESaIcEE10_M_disposeEv>
	mov    %rbx,%rdi
	call   <_Unwind_Resume@plt>
	mov    -0xe0(%rbp),%rdi
	call   <_ZNSt7__cxx1112basic_stringIcSt11char_traitsIcESaIcEE10_M_disposeEv>
	jmp    <_ZN9benchmark15ConsoleReporter12PrintRunDataERKNS_17BenchmarkReporter3RunE.cold+0x9>
	mov    -0xe0(%rbp),%rdi
	call   <_ZNSt7__cxx1112basic_stringIcSt11char_traitsIcESaIcEE10_M_disposeEv>
	mov    %rbx,%rdi
	call   <_Unwind_Resume@plt>

<_ZN9benchmark8internal9IncrementEPSt3mapINSt7__cxx1112basic_stringIcSt11char_traitsIcESaIcEEENS_7CounterESt4lessIS7_ESaISt4pairIKS7_S8_EEERKSF_.cold>:
	call   <__cxa_begin_catch@plt>
	mov    $0x50,%esi
	mov    %rbp,%rdi
	call   <_ZdlPvm@plt>
	call   <__cxa_rethrow@plt>
	endbr64
	mov    %rax,%rbx
	call   <__cxa_end_catch@plt>
	mov    %rbx,%rdi
	call   <_Unwind_Resume@plt>

<_ZN9benchmark9CsvEscapeERKNSt7__cxx1112basic_stringIcSt11char_traitsIcESaIcEEE.cold>:
	mov    %rbx,%rdi
	call   <_ZNSt7__cxx1112basic_stringIcSt11char_traitsIcESaIcEE10_M_disposeEv>
	mov    (%rsp),%rdi
	call   <_ZNSt7__cxx1112basic_stringIcSt11char_traitsIcESaIcEE10_M_disposeEv>
	mov    %rbp,%rdi
	call   <_Unwind_Resume@plt>
	mov    %rbx,%rdi
	call   <_ZNSt7__cxx1112basic_stringIcSt11char_traitsIcESaIcEE10_M_disposeEv>
	jmp    <_ZN9benchmark9CsvEscapeERKNSt7__cxx1112basic_stringIcSt11char_traitsIcESaIcEEE.cold+0x8>

<_Z41__static_initialization_and_destruction_0ii.constprop.0.cold>:
	lea    0x150(%rsp),%rbp
	sub    $0x20,%rbp
	mov    %rbp,%rdi
	call   <_ZNSt7__cxx1112basic_stringIcSt11char_traitsIcESaIcEE10_M_disposeEv>
	cmp    %r12,%rbp
	jne    <_Z41__static_initialization_and_destruction_0ii.constprop.0.cold+0x8>
	mov    $0x9,%eax
	mov    $0x9,%ebp
	sub    %rax,%rbp
	shl    $0x5,%rbp
	add    %r12,%rbp
	cmp    %r12,%rbp
	jne    <_Z41__static_initialization_and_destruction_0ii.constprop.0.cold+0x76>
	mov    %rbx,%rdi
	call   <_Unwind_Resume@plt>
	xor    %eax,%eax
	jmp    <_Z41__static_initialization_and_destruction_0ii.constprop.0.cold+0x1e>
	mov    $0x1,%eax
	jmp    <_Z41__static_initialization_and_destruction_0ii.constprop.0.cold+0x1e>
	mov    $0x2,%eax
	jmp    <_Z41__static_initialization_and_destruction_0ii.constprop.0.cold+0x1e>
	mov    $0x3,%eax
	jmp    <_Z41__static_initialization_and_destruction_0ii.constprop.0.cold+0x1e>
	mov    $0x6,%eax
	jmp    <_Z41__static_initialization_and_destruction_0ii.constprop.0.cold+0x1e>
	mov    $0x7,%eax
	jmp    <_Z41__static_initialization_and_destruction_0ii.constprop.0.cold+0x1e>
	mov    $0x8,%eax
	jmp    <_Z41__static_initialization_and_destruction_0ii.constprop.0.cold+0x1e>
	mov    $0x4,%eax
	jmp    <_Z41__static_initialization_and_destruction_0ii.constprop.0.cold+0x1e>
	mov    $0x5,%eax
	jmp    <_Z41__static_initialization_and_destruction_0ii.constprop.0.cold+0x1e>
	sub    $0x20,%rbp
	mov    %rbp,%rdi
	call   <_ZNSt7__cxx1112basic_stringIcSt11char_traitsIcESaIcEE10_M_disposeEv>
	jmp    <_Z41__static_initialization_and_destruction_0ii.constprop.0.cold+0x2d>
	nop

<_ZN9benchmark11CSVReporter12PrintRunDataERKNS_17BenchmarkReporter3RunE.cold>:
	mov    0x10(%rsp),%rdi
	call   <_ZNSt7__cxx1112basic_stringIcSt11char_traitsIcESaIcEE10_M_disposeEv>
	mov    %r13,%rdi
	call   <_ZNSt7__cxx1112basic_stringIcSt11char_traitsIcESaIcEE10_M_disposeEv>
	mov    %rbx,%rdi
	call   <_Unwind_Resume@plt>
	mov    0x10(%rsp),%rdi
	call   <_ZNSt7__cxx1112basic_stringIcSt11char_traitsIcESaIcEE10_M_disposeEv>
	mov    %rbx,%rdi
	call   <_Unwind_Resume@plt>
	mov    0x10(%rsp),%rdi
	call   <_ZNSt7__cxx1112basic_stringIcSt11char_traitsIcESaIcEE10_M_disposeEv>
	mov    %rbx,%rdi
	call   <_Unwind_Resume@plt>
	mov    0x10(%rsp),%rdi
	call   <_ZNSt7__cxx1112basic_stringIcSt11char_traitsIcESaIcEE10_M_disposeEv>
	mov    %rbx,%rdi
	call   <_Unwind_Resume@plt>
	mov    0x10(%rsp),%rdi
	call   <_ZNSt7__cxx1112basic_stringIcSt11char_traitsIcESaIcEE10_M_disposeEv>
	mov    %rbx,%rdi
	call   <_Unwind_Resume@plt>
	mov    0x10(%rsp),%rdi
	call   <_ZNSt7__cxx1112basic_stringIcSt11char_traitsIcESaIcEE10_M_disposeEv>
	mov    %rbx,%rdi
	call   <_Unwind_Resume@plt>
	mov    0x10(%rsp),%rdi
	call   <_ZNSt7__cxx1112basic_stringIcSt11char_traitsIcESaIcEE10_M_disposeEv>
	mov    %rbx,%rdi
	call   <_Unwind_Resume@plt>

<_ZN9benchmark11CSVReporter10ReportRunsERKSt6vectorINS_17BenchmarkReporter3RunESaIS3_EE.cold>:
	call   <__cxa_begin_catch@plt>
	mov    $0x40,%esi
	mov    %r14,%rdi
	call   <_ZdlPvm@plt>
	call   <__cxa_rethrow@plt>
	endbr64
	mov    %rax,%rbx
	call   <__cxa_end_catch@plt>
	mov    %rbx,%rdi
	call   <_Unwind_Resume@plt>
	nop

<_ZN9benchmark12_GLOBAL__N_19StrEscapeERKNSt7__cxx1112basic_stringIcSt11char_traitsIcESaIcEEE.cold>:
	mov    %r12,%rdi
	call   <_ZNSt7__cxx1112basic_stringIcSt11char_traitsIcESaIcEE10_M_disposeEv>
	mov    %rbx,%rdi
	call   <_Unwind_Resume@plt>

<_ZN9benchmark12_GLOBAL__N_18FormatKVERKNSt7__cxx1112basic_stringIcSt11char_traitsIcESaIcEEES8_.cold>:
	mov    %r13,%rdi
	call   <_ZNSt7__cxx1112basic_stringIcSt11char_traitsIcESaIcEE10_M_disposeEv>
	mov    %r12,%rdi
	call   <_ZNSt7__cxx1112basic_stringIcSt11char_traitsIcESaIcEE10_M_disposeEv>
	mov    %rbx,%rdi
	call   <_Unwind_Resume@plt>

<_ZN9benchmark12_GLOBAL__N_18FormatKVERKNSt7__cxx1112basic_stringIcSt11char_traitsIcESaIcEEEPKc.cold>:
	mov    %r15,%rdi
	call   <_ZNSt7__cxx1112basic_stringIcSt11char_traitsIcESaIcEE10_M_disposeEv>
	mov    %r14,%rdi
	call   <_ZNSt7__cxx1112basic_stringIcSt11char_traitsIcESaIcEE10_M_disposeEv>
	mov    %r13,%rdi
	call   <_ZNSt7__cxx1112basic_stringIcSt11char_traitsIcESaIcEE10_M_disposeEv>
	mov    %rbx,%rdi
	call   <_Unwind_Resume@plt>

<_ZN9benchmark12_GLOBAL__N_18FormatKVERKNSt7__cxx1112basic_stringIcSt11char_traitsIcESaIcEEEl.cold>:
	mov    %rbx,%rdi
	mov    %rbp,%rbx
	call   <_ZNSt7__cxx1112basic_stringIcSt11char_traitsIcESaIcEE10_M_disposeEv>
	mov    0x38(%rsp),%rdi
	call   <_ZNSt7__cxx1118basic_stringstreamIcSt11char_traitsIcESaIcEED1Ev@plt>
	mov    %rbx,%rdi
	call   <_Unwind_Resume@plt>
	lea    0x66a98(%rip),%rax        # <_ZTVNSt7__cxx1115basic_stringbufIcSt11char_traitsIcESaIcEEE@GLIBCXX_3.4.21+0x10>
	lea    0xd0(%rsp),%rdi
	mov    %rax,0x88(%rsp)
	call   <_ZNSt7__cxx1112basic_stringIcSt11char_traitsIcESaIcEE10_M_disposeEv>
	mov    (%rsp),%rdi
	lea    0x66718(%rip),%rax        # <_ZTVSt15basic_streambufIcSt11char_traitsIcEE@GLIBCXX_3.4+0x10>
	mov    %rax,0x88(%rsp)
	call   <_ZNSt6localeD1Ev@plt>
	mov    0x666ac(%rip),%rax        # <_ZTTNSt7__cxx1118basic_stringstreamIcSt11char_traitsIcESaIcEEE@GLIBCXX_3.4.21+0x8>
	mov    0x666cd(%rip),%rcx        # <_ZTTNSt7__cxx1118basic_stringstreamIcSt11char_traitsIcESaIcEEE@GLIBCXX_3.4.21+0x30>
	mov    -0x18(%rax),%rax
	mov    %rcx,0x70(%rsp,%rax,1)
	mov    -0x18(%r14),%rax
	mov    0x666b1(%rip),%rcx        # <_ZTTNSt7__cxx1118basic_stringstreamIcSt11char_traitsIcESaIcEEE@GLIBCXX_3.4.21+0x28>
	mov    %r14,0x80(%rsp)
	mov    %rcx,0x80(%rsp,%rax,1)
	mov    -0x18(%r12),%rax
	mov    0x66685(%rip),%rcx        # <_ZTTNSt7__cxx1118basic_stringstreamIcSt11char_traitsIcESaIcEEE@GLIBCXX_3.4.21+0x18>
	mov    %r12,0x70(%rsp)
	mov    %rcx,0x70(%rsp,%rax,1)
	xor    %eax,%eax
	mov    %rax,0x78(%rsp)
	mov    %r15,%rdi
	mov    %r13,0xf0(%rsp)
	call   <_ZNSt8ios_baseD2Ev@plt>
	mov    %rbx,%rdi
	call   <_Unwind_Resume@plt>
	mov    -0x18(%r12),%rax
	mov    0x66650(%rip),%rcx        # <_ZTTNSt7__cxx1118basic_stringstreamIcSt11char_traitsIcESaIcEEE@GLIBCXX_3.4.21+0x18>
	xor    %edx,%edx
	mov    %r12,0x70(%rsp)
	mov    %rcx,0x70(%rsp,%rax,1)
	mov    %rdx,0x78(%rsp)
	jmp    <_ZN9benchmark12_GLOBAL__N_18FormatKVERKNSt7__cxx1112basic_stringIcSt11char_traitsIcESaIcEEEl.cold+0xa0>
	mov    0x30(%rsp),%rdi
	call   <_ZNSt7__cxx1112basic_stringIcSt11char_traitsIcESaIcEE10_M_disposeEv>
	jmp    <_ZN9benchmark12_GLOBAL__N_18FormatKVERKNSt7__cxx1112basic_stringIcSt11char_traitsIcESaIcEEEl.cold+0xb>

<_ZN9benchmark12JSONReporter13ReportContextERKNS_17BenchmarkReporter7ContextE.cold>:
	mov    (%rsp),%rdi
	call   <_ZNSt7__cxx1112basic_stringIcSt11char_traitsIcESaIcEE10_M_disposeEv>
	mov    0x10(%rsp),%rdi
	call   <_ZNSt7__cxx1112basic_stringIcSt11char_traitsIcESaIcEE10_M_disposeEv>
	mov    0x40(%rsp),%rdi
	call   <_ZNSt7__cxx1112basic_stringIcSt11char_traitsIcESaIcEE10_M_disposeEv>
	mov    0x38(%rsp),%rdi
	call   <_ZNSt7__cxx1112basic_stringIcSt11char_traitsIcESaIcEE10_M_disposeEv>
	mov    0x30(%rsp),%rdi
	call   <_ZNSt7__cxx1112basic_stringIcSt11char_traitsIcESaIcEE10_M_disposeEv>
	mov    %rbx,%rdi
	call   <_Unwind_Resume@plt>
	mov    (%rsp),%rdi
	call   <_ZNSt7__cxx1112basic_stringIcSt11char_traitsIcESaIcEE10_M_disposeEv>
	mov    0x10(%rsp),%rdi
	call   <_ZNSt7__cxx1112basic_stringIcSt11char_traitsIcESaIcEE10_M_disposeEv>
	mov    0x48(%rsp),%rdi
	call   <_ZNSt7__cxx1112basic_stringIcSt11char_traitsIcESaIcEE10_M_disposeEv>
	jmp    <_ZN9benchmark12JSONReporter13ReportContextERKNS_17BenchmarkReporter7ContextE.cold+0x13>
	mov    (%rsp),%rdi
	call   <_ZNSt7__cxx1112basic_stringIcSt11char_traitsIcESaIcEE10_M_disposeEv>
	jmp    <_ZN9benchmark12JSONReporter13ReportContextERKNS_17BenchmarkReporter7ContextE.cold+0x42>
	mov    (%rsp),%rdi
	call   <_ZNSt7__cxx1112basic_stringIcSt11char_traitsIcESaIcEE10_M_disposeEv>
	jmp    <_ZN9benchmark12JSONReporter13ReportContextERKNS_17BenchmarkReporter7ContextE.cold+0x42>
	mov    (%rsp),%rdi
	call   <_ZNSt7__cxx1112basic_stringIcSt11char_traitsIcESaIcEE10_M_disposeEv>
	jmp    <_ZN9benchmark12JSONReporter13ReportContextERKNS_17BenchmarkReporter7ContextE.cold+0x4c>
	mov    (%rsp),%rdi
	call   <_ZNSt7__cxx1112basic_stringIcSt11char_traitsIcESaIcEE10_M_disposeEv>
	jmp    <_ZN9benchmark12JSONReporter13ReportContextERKNS_17BenchmarkReporter7ContextE.cold+0x42>
	mov    (%rsp),%rdi
	call   <_ZNSt7__cxx1112basic_stringIcSt11char_traitsIcESaIcEE10_M_disposeEv>
	mov    0x10(%rsp),%rdi
	call   <_ZNSt7__cxx1112basic_stringIcSt11char_traitsIcESaIcEE10_M_disposeEv>
	mov    %r15,%rdi
	call   <_ZNSt7__cxx1112basic_stringIcSt11char_traitsIcESaIcEE10_M_disposeEv>
	jmp    <_ZN9benchmark12JSONReporter13ReportContextERKNS_17BenchmarkReporter7ContextE.cold+0x4c>
	mov    (%rsp),%rdi
	call   <_ZNSt7__cxx1112basic_stringIcSt11char_traitsIcESaIcEE10_M_disposeEv>
	jmp    <_ZN9benchmark12JSONReporter13ReportContextERKNS_17BenchmarkReporter7ContextE.cold+0x9>
	mov    (%rsp),%rdi
	call   <_ZNSt7__cxx1112basic_stringIcSt11char_traitsIcESaIcEE10_M_disposeEv>
	jmp    <_ZN9benchmark12JSONReporter13ReportContextERKNS_17BenchmarkReporter7ContextE.cold+0x9>
	mov    (%rsp),%rdi
	call   <_ZNSt7__cxx1112basic_stringIcSt11char_traitsIcESaIcEE10_M_disposeEv>
	mov    %r15,%rdi
	call   <_ZNSt7__cxx1112basic_stringIcSt11char_traitsIcESaIcEE10_M_disposeEv>
	jmp    <_ZN9benchmark12JSONReporter13ReportContextERKNS_17BenchmarkReporter7ContextE.cold+0x13>
	mov    0x10(%rsp),%rdi
	call   <_ZNSt7__cxx1112basic_stringIcSt11char_traitsIcESaIcEE10_M_disposeEv>
	jmp    <_ZN9benchmark12JSONReporter13ReportContextERKNS_17BenchmarkReporter7ContextE.cold+0xc6>
	mov    (%rsp),%rdi
	call   <_ZNSt7__cxx1112basic_stringIcSt11char_traitsIcESaIcEE10_M_disposeEv>
	jmp    <_ZN9benchmark12JSONReporter13ReportContextERKNS_17BenchmarkReporter7ContextE.cold+0x42>
	mov    (%rsp),%rdi
	call   <_ZNSt7__cxx1112basic_stringIcSt11char_traitsIcESaIcEE10_M_disposeEv>
	jmp    <_ZN9benchmark12JSONReporter13ReportContextERKNS_17BenchmarkReporter7ContextE.cold+0x42>
	mov    (%rsp),%rdi
	call   <_ZNSt7__cxx1112basic_stringIcSt11char_traitsIcESaIcEE10_M_disposeEv>
	jmp    <_ZN9benchmark12JSONReporter13ReportContextERKNS_17BenchmarkReporter7ContextE.cold+0x9>
	mov    (%rsp),%rdi
	call   <_ZNSt7__cxx1112basic_stringIcSt11char_traitsIcESaIcEE10_M_disposeEv>
	jmp    <_ZN9benchmark12JSONReporter13ReportContextERKNS_17BenchmarkReporter7ContextE.cold+0x9>

<_ZN9benchmark12_GLOBAL__N_18FormatKVERKNSt7__cxx1112basic_stringIcSt11char_traitsIcESaIcEEEd.cold>:
	mov    %rbx,%rdi
	mov    %rbp,%rbx
	call   <_ZNSt7__cxx1112basic_stringIcSt11char_traitsIcESaIcEE10_M_disposeEv>
	jmp    <_ZN9benchmark12_GLOBAL__N_18FormatKVERKNSt7__cxx1112basic_stringIcSt11char_traitsIcESaIcEEEd.cold+0x17>
	mov    0x40(%rsp),%rdi
	call   <_ZNSt7__cxx1112basic_stringIcSt11char_traitsIcESaIcEE10_M_disposeEv>
	mov    0x48(%rsp),%rdi
	call   <_ZNSt7__cxx1118basic_stringstreamIcSt11char_traitsIcESaIcEED1Ev@plt>
	mov    %rbx,%rdi
	call   <_Unwind_Resume@plt>
	mov    -0x18(%r12),%rax
	mov    0x664e2(%rip),%rdx        # <_ZTTNSt7__cxx1118basic_stringstreamIcSt11char_traitsIcESaIcEEE@GLIBCXX_3.4.21+0x18>
	mov    %r12,0x80(%rsp)
	mov    %rdx,0x80(%rsp,%rax,1)
	xor    %edx,%edx
	mov    %rdx,0x88(%rsp)
	mov    %r14,%rdi
	mov    %r15,0x100(%rsp)
	call   <_ZNSt8ios_baseD2Ev@plt>
	mov    %rbx,%rdi
	call   <_Unwind_Resume@plt>
	lea    0x66851(%rip),%rax        # <_ZTVNSt7__cxx1115basic_stringbufIcSt11char_traitsIcESaIcEEE@GLIBCXX_3.4.21+0x10>
	lea    0xe0(%rsp),%rdi
	mov    %rax,0x98(%rsp)
	call   <_ZNSt7__cxx1112basic_stringIcSt11char_traitsIcESaIcEE10_M_disposeEv>
	mov    0x10(%rsp),%rdi
	lea    0x664d0(%rip),%rax        # <_ZTVSt15basic_streambufIcSt11char_traitsIcEE@GLIBCXX_3.4+0x10>
	mov    %rax,0x98(%rsp)
	call   <_ZNSt6localeD1Ev@plt>
	mov    0x66464(%rip),%rax        # <_ZTTNSt7__cxx1118basic_stringstreamIcSt11char_traitsIcESaIcEEE@GLIBCXX_3.4.21+0x8>
	mov    0x66485(%rip),%rdx        # <_ZTTNSt7__cxx1118basic_stringstreamIcSt11char_traitsIcESaIcEEE@GLIBCXX_3.4.21+0x30>
	mov    -0x18(%rax),%rax
	mov    %rdx,0x80(%rsp,%rax,1)
	mov    -0x18(%r13),%rax
	mov    0x66466(%rip),%rdx        # <_ZTTNSt7__cxx1118basic_stringstreamIcSt11char_traitsIcESaIcEEE@GLIBCXX_3.4.21+0x28>
	mov    %r13,0x90(%rsp)
	mov    %rdx,0x90(%rsp,%rax,1)
	mov    -0x18(%r12),%rax
	mov    0x6643a(%rip),%rdx        # <_ZTTNSt7__cxx1118basic_stringstreamIcSt11char_traitsIcESaIcEEE@GLIBCXX_3.4.21+0x18>
	mov    %r12,0x80(%rsp)
	mov    %rdx,0x80(%rsp,%rax,1)
	xor    %eax,%eax
	mov    %rax,0x88(%rsp)
	jmp    <_ZN9benchmark12_GLOBAL__N_18FormatKVERKNSt7__cxx1112basic_stringIcSt11char_traitsIcESaIcEEEd.cold+0x4f>
	nop

<_ZN9benchmark12JSONReporter12PrintRunDataERKNS_17BenchmarkReporter3RunE.cold>:
	mov    0x8(%rsp),%rdi
	call   <_ZNSt7__cxx1112basic_stringIcSt11char_traitsIcESaIcEE10_M_disposeEv>
	mov    0x10(%rsp),%rdi
	call   <_ZNSt7__cxx1112basic_stringIcSt11char_traitsIcESaIcEE10_M_disposeEv>
	mov    0x38(%rsp),%rdi
	call   <_ZNSt7__cxx1112basic_stringIcSt11char_traitsIcESaIcEE10_M_disposeEv>
	mov    %rbx,%rdi
	call   <_Unwind_Resume@plt>
	mov    0x8(%rsp),%rdi
	call   <_ZNSt7__cxx1112basic_stringIcSt11char_traitsIcESaIcEE10_M_disposeEv>
	mov    0x10(%rsp),%rdi
	call   <_ZNSt7__cxx1112basic_stringIcSt11char_traitsIcESaIcEE10_M_disposeEv>
	mov    %r12,%rdi
	call   <_ZNSt7__cxx1112basic_stringIcSt11char_traitsIcESaIcEE10_M_disposeEv>
	jmp    <_ZN9benchmark12JSONReporter12PrintRunDataERKNS_17BenchmarkReporter3RunE.cold+0x14>
	mov    0x8(%rsp),%rdi
	call   <_ZNSt7__cxx1112basic_stringIcSt11char_traitsIcESaIcEE10_M_disposeEv>
	mov    0x10(%rsp),%rdi
	call   <_ZNSt7__cxx1112basic_stringIcSt11char_traitsIcESaIcEE10_M_disposeEv>
	jmp    <_ZN9benchmark12JSONReporter12PrintRunDataERKNS_17BenchmarkReporter3RunE.cold+0x14>
	mov    0x8(%rsp),%rdi
	call   <_ZNSt7__cxx1112basic_stringIcSt11char_traitsIcESaIcEE10_M_disposeEv>
	mov    0x10(%rsp),%rdi
	call   <_ZNSt7__cxx1112basic_stringIcSt11char_traitsIcESaIcEE10_M_disposeEv>
	jmp    <_ZN9benchmark12JSONReporter12PrintRunDataERKNS_17BenchmarkReporter3RunE.cold+0x14>
	mov    0x8(%rsp),%rdi
	call   <_ZNSt7__cxx1112basic_stringIcSt11char_traitsIcESaIcEE10_M_disposeEv>
	mov    %r12,%rdi
	call   <_ZNSt7__cxx1112basic_stringIcSt11char_traitsIcESaIcEE10_M_disposeEv>
	jmp    <_ZN9benchmark12JSONReporter12PrintRunDataERKNS_17BenchmarkReporter3RunE.cold+0x14>
	mov    0x8(%rsp),%rdi
	call   <_ZNSt7__cxx1112basic_stringIcSt11char_traitsIcESaIcEE10_M_disposeEv>
	mov    0x10(%rsp),%rdi
	call   <_ZNSt7__cxx1112basic_stringIcSt11char_traitsIcESaIcEE10_M_disposeEv>
	jmp    <_ZN9benchmark12JSONReporter12PrintRunDataERKNS_17BenchmarkReporter3RunE.cold+0x14>
	mov    0x8(%rsp),%rdi
	call   <_ZNSt7__cxx1112basic_stringIcSt11char_traitsIcESaIcEE10_M_disposeEv>
	mov    0x10(%rsp),%rdi
	call   <_ZNSt7__cxx1112basic_stringIcSt11char_traitsIcESaIcEE10_M_disposeEv>
	jmp    <_ZN9benchmark12JSONReporter12PrintRunDataERKNS_17BenchmarkReporter3RunE.cold+0x14>
	mov    0x8(%rsp),%rdi
	call   <_ZNSt7__cxx1112basic_stringIcSt11char_traitsIcESaIcEE10_M_disposeEv>
	mov    0x10(%rsp),%rdi
	call   <_ZNSt7__cxx1112basic_stringIcSt11char_traitsIcESaIcEE10_M_disposeEv>
	jmp    <_ZN9benchmark12JSONReporter12PrintRunDataERKNS_17BenchmarkReporter3RunE.cold+0x14>
	mov    0x8(%rsp),%rdi
	call   <_ZNSt7__cxx1112basic_stringIcSt11char_traitsIcESaIcEE10_M_disposeEv>
	mov    0x10(%rsp),%rdi
	call   <_ZNSt7__cxx1112basic_stringIcSt11char_traitsIcESaIcEE10_M_disposeEv>
	jmp    <_ZN9benchmark12JSONReporter12PrintRunDataERKNS_17BenchmarkReporter3RunE.cold+0x14>
	mov    0x8(%rsp),%rdi
	call   <_ZNSt7__cxx1112basic_stringIcSt11char_traitsIcESaIcEE10_M_disposeEv>
	mov    0x10(%rsp),%rdi
	call   <_ZNSt7__cxx1112basic_stringIcSt11char_traitsIcESaIcEE10_M_disposeEv>
	jmp    <_ZN9benchmark12JSONReporter12PrintRunDataERKNS_17BenchmarkReporter3RunE.cold+0x14>
	mov    0x8(%rsp),%rdi
	call   <_ZNSt7__cxx1112basic_stringIcSt11char_traitsIcESaIcEE10_M_disposeEv>
	mov    0x10(%rsp),%rdi
	call   <_ZNSt7__cxx1112basic_stringIcSt11char_traitsIcESaIcEE10_M_disposeEv>
	jmp    <_ZN9benchmark12JSONReporter12PrintRunDataERKNS_17BenchmarkReporter3RunE.cold+0x14>
	mov    0x8(%rsp),%rdi
	call   <_ZNSt7__cxx1112basic_stringIcSt11char_traitsIcESaIcEE10_M_disposeEv>
	mov    0x10(%rsp),%rdi
	call   <_ZNSt7__cxx1112basic_stringIcSt11char_traitsIcESaIcEE10_M_disposeEv>
	jmp    <_ZN9benchmark12JSONReporter12PrintRunDataERKNS_17BenchmarkReporter3RunE.cold+0x14>
	mov    0x8(%rsp),%rdi
	call   <_ZNSt7__cxx1112basic_stringIcSt11char_traitsIcESaIcEE10_M_disposeEv>
	mov    0x10(%rsp),%rdi
	call   <_ZNSt7__cxx1112basic_stringIcSt11char_traitsIcESaIcEE10_M_disposeEv>
	mov    %r12,%rdi
	call   <_ZNSt7__cxx1112basic_stringIcSt11char_traitsIcESaIcEE10_M_disposeEv>
	jmp    <_ZN9benchmark12JSONReporter12PrintRunDataERKNS_17BenchmarkReporter3RunE.cold+0x14>
	mov    0x8(%rsp),%rdi
	call   <_ZNSt7__cxx1112basic_stringIcSt11char_traitsIcESaIcEE10_M_disposeEv>
	mov    0x10(%rsp),%rdi
	call   <_ZNSt7__cxx1112basic_stringIcSt11char_traitsIcESaIcEE10_M_disposeEv>
	jmp    <_ZN9benchmark12JSONReporter12PrintRunDataERKNS_17BenchmarkReporter3RunE.cold+0x14>
	mov    0x8(%rsp),%rdi
	call   <_ZNSt7__cxx1112basic_stringIcSt11char_traitsIcESaIcEE10_M_disposeEv>
	mov    0x10(%rsp),%rdi
	call   <_ZNSt7__cxx1112basic_stringIcSt11char_traitsIcESaIcEE10_M_disposeEv>
	jmp    <_ZN9benchmark12JSONReporter12PrintRunDataERKNS_17BenchmarkReporter3RunE.cold+0x14>
	mov    0x8(%rsp),%rdi
	call   <_ZNSt7__cxx1112basic_stringIcSt11char_traitsIcESaIcEE10_M_disposeEv>
	jmp    <_ZN9benchmark12JSONReporter12PrintRunDataERKNS_17BenchmarkReporter3RunE.cold+0x14>
	mov    0x8(%rsp),%rdi
	call   <_ZNSt7__cxx1112basic_stringIcSt11char_traitsIcESaIcEE10_M_disposeEv>
	mov    0x10(%rsp),%rdi
	call   <_ZNSt7__cxx1112basic_stringIcSt11char_traitsIcESaIcEE10_M_disposeEv>
	jmp    <_ZN9benchmark12JSONReporter12PrintRunDataERKNS_17BenchmarkReporter3RunE.cold+0x14>
	mov    0x8(%rsp),%rdi
	call   <_ZNSt7__cxx1112basic_stringIcSt11char_traitsIcESaIcEE10_M_disposeEv>
	mov    0x10(%rsp),%rdi
	call   <_ZNSt7__cxx1112basic_stringIcSt11char_traitsIcESaIcEE10_M_disposeEv>
	jmp    <_ZN9benchmark12JSONReporter12PrintRunDataERKNS_17BenchmarkReporter3RunE.cold+0x14>
	mov    0x8(%rsp),%rdi
	call   <_ZNSt7__cxx1112basic_stringIcSt11char_traitsIcESaIcEE10_M_disposeEv>
	mov    0x10(%rsp),%rdi
	call   <_ZNSt7__cxx1112basic_stringIcSt11char_traitsIcESaIcEE10_M_disposeEv>
	jmp    <_ZN9benchmark12JSONReporter12PrintRunDataERKNS_17BenchmarkReporter3RunE.cold+0x14>
	mov    0x8(%rsp),%rdi
	call   <_ZNSt7__cxx1112basic_stringIcSt11char_traitsIcESaIcEE10_M_disposeEv>
	mov    0x10(%rsp),%rdi
	call   <_ZNSt7__cxx1112basic_stringIcSt11char_traitsIcESaIcEE10_M_disposeEv>
	mov    %r12,%rdi
	call   <_ZNSt7__cxx1112basic_stringIcSt11char_traitsIcESaIcEE10_M_disposeEv>
	jmp    <_ZN9benchmark12JSONReporter12PrintRunDataERKNS_17BenchmarkReporter3RunE.cold+0x14>
	mov    0x8(%rsp),%rdi
	call   <_ZNSt7__cxx1112basic_stringIcSt11char_traitsIcESaIcEE10_M_disposeEv>
	mov    0x10(%rsp),%rdi
	call   <_ZNSt7__cxx1112basic_stringIcSt11char_traitsIcESaIcEE10_M_disposeEv>
	jmp    <_ZN9benchmark12JSONReporter12PrintRunDataERKNS_17BenchmarkReporter3RunE.cold+0x14>
	mov    0x8(%rsp),%rdi
	call   <_ZNSt7__cxx1112basic_stringIcSt11char_traitsIcESaIcEE10_M_disposeEv>
	mov    0x10(%rsp),%rdi
	call   <_ZNSt7__cxx1112basic_stringIcSt11char_traitsIcESaIcEE10_M_disposeEv>
	jmp    <_ZN9benchmark12JSONReporter12PrintRunDataERKNS_17BenchmarkReporter3RunE.cold+0x14>
	mov    0x8(%rsp),%rdi
	call   <_ZNSt7__cxx1112basic_stringIcSt11char_traitsIcESaIcEE10_M_disposeEv>
	mov    0x10(%rsp),%rdi
	call   <_ZNSt7__cxx1112basic_stringIcSt11char_traitsIcESaIcEE10_M_disposeEv>
	jmp    <_ZN9benchmark12JSONReporter12PrintRunDataERKNS_17BenchmarkReporter3RunE.cold+0x14>
	mov    0x8(%rsp),%rdi
	call   <_ZNSt7__cxx1112basic_stringIcSt11char_traitsIcESaIcEE10_M_disposeEv>
	mov    0x10(%rsp),%rdi
	call   <_ZNSt7__cxx1112basic_stringIcSt11char_traitsIcESaIcEE10_M_disposeEv>
	jmp    <_ZN9benchmark12JSONReporter12PrintRunDataERKNS_17BenchmarkReporter3RunE.cold+0x14>
	mov    0x8(%rsp),%rdi
	call   <_ZNSt7__cxx1112basic_stringIcSt11char_traitsIcESaIcEE10_M_disposeEv>
	mov    0x10(%rsp),%rdi
	call   <_ZNSt7__cxx1112basic_stringIcSt11char_traitsIcESaIcEE10_M_disposeEv>
	jmp    <_ZN9benchmark12JSONReporter12PrintRunDataERKNS_17BenchmarkReporter3RunE.cold+0x14>
	mov    0x8(%rsp),%rdi
	call   <_ZNSt7__cxx1112basic_stringIcSt11char_traitsIcESaIcEE10_M_disposeEv>
	mov    0x10(%rsp),%rdi
	call   <_ZNSt7__cxx1112basic_stringIcSt11char_traitsIcESaIcEE10_M_disposeEv>
	jmp    <_ZN9benchmark12JSONReporter12PrintRunDataERKNS_17BenchmarkReporter3RunE.cold+0x14>
	mov    0x8(%rsp),%rdi
	call   <_ZNSt7__cxx1112basic_stringIcSt11char_traitsIcESaIcEE10_M_disposeEv>
	mov    0x10(%rsp),%rdi
	call   <_ZNSt7__cxx1112basic_stringIcSt11char_traitsIcESaIcEE10_M_disposeEv>
	jmp    <_ZN9benchmark12JSONReporter12PrintRunDataERKNS_17BenchmarkReporter3RunE.cold+0x14>
	mov    0x8(%rsp),%rdi
	call   <_ZNSt7__cxx1112basic_stringIcSt11char_traitsIcESaIcEE10_M_disposeEv>
	mov    %r12,%rdi
	call   <_ZNSt7__cxx1112basic_stringIcSt11char_traitsIcESaIcEE10_M_disposeEv>
	jmp    <_ZN9benchmark12JSONReporter12PrintRunDataERKNS_17BenchmarkReporter3RunE.cold+0x14>
	mov    0x8(%rsp),%rdi
	call   <_ZNSt7__cxx1112basic_stringIcSt11char_traitsIcESaIcEE10_M_disposeEv>
	mov    0x10(%rsp),%rdi
	call   <_ZNSt7__cxx1112basic_stringIcSt11char_traitsIcESaIcEE10_M_disposeEv>
	jmp    <_ZN9benchmark12JSONReporter12PrintRunDataERKNS_17BenchmarkReporter3RunE.cold+0x14>
	mov    0x8(%rsp),%rdi
	call   <_ZNSt7__cxx1112basic_stringIcSt11char_traitsIcESaIcEE10_M_disposeEv>
	mov    0x10(%rsp),%rdi
	call   <_ZNSt7__cxx1112basic_stringIcSt11char_traitsIcESaIcEE10_M_disposeEv>
	jmp    <_ZN9benchmark12JSONReporter12PrintRunDataERKNS_17BenchmarkReporter3RunE.cold+0x14>
	mov    0x10(%rsp),%rdi
	call   <_ZNSt7__cxx1112basic_stringIcSt11char_traitsIcESaIcEE10_M_disposeEv>
	jmp    <_ZN9benchmark12JSONReporter12PrintRunDataERKNS_17BenchmarkReporter3RunE.cold+0x7a>
	mov    0x8(%rsp),%rdi
	call   <_ZNSt7__cxx1112basic_stringIcSt11char_traitsIcESaIcEE10_M_disposeEv>
	mov    0x10(%rsp),%rdi
	call   <_ZNSt7__cxx1112basic_stringIcSt11char_traitsIcESaIcEE10_M_disposeEv>
	jmp    <_ZN9benchmark12JSONReporter12PrintRunDataERKNS_17BenchmarkReporter3RunE.cold+0x14>
	mov    0x10(%rsp),%rdi
	call   <_ZNSt7__cxx1112basic_stringIcSt11char_traitsIcESaIcEE10_M_disposeEv>
	jmp    <_ZN9benchmark12JSONReporter12PrintRunDataERKNS_17BenchmarkReporter3RunE.cold+0x2ba>
	nop

<_ZN9benchmark12JSONReporter10ReportRunsERKSt6vectorINS_17BenchmarkReporter3RunESaIS3_EE.cold>:
	mov    0x8(%rsp),%rdi
	call   <_ZNSt7__cxx1112basic_stringIcSt11char_traitsIcESaIcEE10_M_disposeEv>
	mov    %rbx,%rdi
	call   <_Unwind_Resume@plt>

<_ZN9benchmark8internal12PerfCounters10InitializeEv.cold>:
	mov    %rbx,%rdi
	call   <__cxa_guard_abort@plt>
	mov    %rbp,%rdi
	call   <_Unwind_Resume@plt>

<_ZN9benchmark8internal12PerfCounters18IsCounterSupportedERKNSt7__cxx1112basic_stringIcSt11char_traitsIcESaIcEEE.cold>:
	mov    %rbp,%rdi
	call   <__cxa_guard_abort@plt>
	mov    %rbx,%rdi
	call   <_Unwind_Resume@plt>

<_ZN9benchmark8internal12PerfCounters6CreateERKSt6vectorINSt7__cxx1112basic_stringIcSt11char_traitsIcESaIcEEESaIS8_EE.cold>:
	mov    %rbp,%rdi
	call   <__cxa_guard_abort@plt>
	mov    %rbx,%rdi
	call   <_Unwind_Resume@plt>
	call   <__cxa_begin_catch@plt>
	mov    0x18(%rsp),%rbp
	cmp    %rbx,%rbp
	je     <_ZN9benchmark8internal12PerfCounters6CreateERKSt6vectorINSt7__cxx1112basic_stringIcSt11char_traitsIcESaIcEEESaIS8_EE.cold+0xfc>
	mov    %rbp,%rdi
	add    $0x20,%rbp
	call   <_ZNSt7__cxx1112basic_stringIcSt11char_traitsIcESaIcEE10_M_disposeEv>
	jmp    <_ZN9benchmark8internal12PerfCounters6CreateERKSt6vectorINSt7__cxx1112basic_stringIcSt11char_traitsIcESaIcEEESaIS8_EE.cold+0x1a>
	endbr64
	mov    %rax,%rbx
	call   <__cxa_end_catch@plt>
	mov    0x10(%rsp),%rax
	mov    0x30(%rax),%rdi
	mov    0x40(%rax),%rax
	mov    %rax,%rsi
	mov    %rax,0x8(%rsp)
	sub    %rdi,%rsi
	test   %rdi,%rdi
	je     <_ZN9benchmark8internal12PerfCounters6CreateERKSt6vectorINSt7__cxx1112basic_stringIcSt11char_traitsIcESaIcEEESaIS8_EE.cold+0x5f>
	call   <_ZdlPvm@plt>
	mov    0x10(%rsp),%rax
	mov    0x18(%rax),%rdi
	mov    0x28(%rax),%rax
	mov    %rax,%rsi
	mov    %rax,0x8(%rsp)
	sub    %rdi,%rsi
	test   %rdi,%rdi
	jne    <_ZN9benchmark8internal12PerfCounters6CreateERKSt6vectorINSt7__cxx1112basic_stringIcSt11char_traitsIcESaIcEEESaIS8_EE.cold+0x11e>
	mov    0x10(%rsp),%rax
	mov    (%rax),%rdi
	mov    0x10(%rax),%rsi
	sub    %rdi,%rsi
	test   %rdi,%rdi
	je     <_ZN9benchmark8internal12PerfCounters6CreateERKSt6vectorINSt7__cxx1112basic_stringIcSt11char_traitsIcESaIcEEESaIS8_EE.cold+0x99>
	call   <_ZdlPvm@plt>
	mov    0x70(%rsp),%rdi
	mov    0x80(%rsp),%rsi
	sub    %rdi,%rsi
	test   %rdi,%rdi
	je     <_ZN9benchmark8internal12PerfCounters6CreateERKSt6vectorINSt7__cxx1112basic_stringIcSt11char_traitsIcESaIcEEESaIS8_EE.cold+0xb3>
	call   <_ZdlPvm@plt>
	mov    0x50(%rsp),%rdi
	mov    0x60(%rsp),%rsi
	sub    %rdi,%rsi
	test   %rdi,%rdi
	je     <_ZN9benchmark8internal12PerfCounters6CreateERKSt6vectorINSt7__cxx1112basic_stringIcSt11char_traitsIcESaIcEEESaIS8_EE.cold+0xca>
	call   <_ZdlPvm@plt>
	mov    0x30(%rsp),%r12
	mov    0x38(%rsp),%r13
	mov    %r12,%rbp
	cmp    %rbp,%r13
	je     <_ZN9benchmark8internal12PerfCounters6CreateERKSt6vectorINSt7__cxx1112basic_stringIcSt11char_traitsIcESaIcEEESaIS8_EE.cold+0x101>
	mov    0x0(%rbp),%rdi
	lea    0x10(%rbp),%rax
	cmp    %rax,%rdi
	je     <_ZN9benchmark8internal12PerfCounters6CreateERKSt6vectorINSt7__cxx1112basic_stringIcSt11char_traitsIcESaIcEEESaIS8_EE.cold+0xf6>
	mov    0x10(%rbp),%rax
	lea    0x1(%rax),%rsi
	call   <_ZdlPvm@plt>
	add    $0x20,%rbp
	jmp    <_ZN9benchmark8internal12PerfCounters6CreateERKSt6vectorINSt7__cxx1112basic_stringIcSt11char_traitsIcESaIcEEESaIS8_EE.cold+0xd7>
	call   <__cxa_rethrow@plt>
	mov    0x40(%rsp),%rsi
	sub    %r12,%rsi
	test   %r12,%r12
	je     <_ZN9benchmark8internal12PerfCounters6CreateERKSt6vectorINSt7__cxx1112basic_stringIcSt11char_traitsIcESaIcEEESaIS8_EE.cold+0x116>
	mov    %r12,%rdi
	call   <_ZdlPvm@plt>
	mov    %rbx,%rdi
	call   <_Unwind_Resume@plt>
	call   <_ZdlPvm@plt>
	jmp    <_ZN9benchmark8internal12PerfCounters6CreateERKSt6vectorINSt7__cxx1112basic_stringIcSt11char_traitsIcESaIcEEESaIS8_EE.cold+0x80>

<_ZN9benchmark8internal23PerfCountersMeasurementC2ERKSt6vectorINSt7__cxx1112basic_stringIcSt11char_traitsIcESaIcEEESaIS8_EE.cold>:
	mov    %rbx,%rdi
	call   <_ZN9benchmark8internal12PerfCountersD2Ev>
	mov    %rbp,%rdi
	call   <_Unwind_Resume@plt>

<_ZN9benchmark17BenchmarkReporter17PrintBasicContextEPSoRKNS0_7ContextE.cold>:
	mov    0x8(%rsp),%rdi
	call   <_ZNSt7__cxx1112basic_stringIcSt11char_traitsIcESaIcEE10_M_disposeEv>
	mov    %rbx,%rdi
	call   <_Unwind_Resume@plt>

<_ZNK9benchmark17BenchmarkReporter3Run14benchmark_nameB5cxx11Ev.cold>:
	mov    %r12,%rdi
	call   <_ZNSt7__cxx1112basic_stringIcSt11char_traitsIcESaIcEE10_M_disposeEv>
	mov    %rbp,%rdi
	call   <_ZNSt7__cxx1112basic_stringIcSt11char_traitsIcESaIcEE10_M_disposeEv>
	mov    %rbx,%rdi
	call   <_Unwind_Resume@plt>

<_ZNSt8_Rb_treeINSt7__cxx1112basic_stringIcSt11char_traitsIcESaIcEEESt4pairIKS5_N9benchmark7CounterEESt10_Select1stISA_ESt4lessIS5_ESaISA_EE7_M_copyILb0ENSG_11_Alloc_nodeEEEPSt13_Rb_tree_nodeISA_ESL_PSt18_Rb_tree_node_baseRT0_.isra.0.cold>:
	call   <__cxa_begin_catch@plt>
	mov    $0x50,%esi
	mov    %rbx,%rdi
	call   <_ZdlPvm@plt>
	call   <__cxa_rethrow@plt>
	call   <__cxa_begin_catch@plt>
	mov    $0x50,%esi
	mov    %r12,%rdi
	call   <_ZdlPvm@plt>
	call   <__cxa_rethrow@plt>
	endbr64
	mov    %rax,%rbx
	call   <__cxa_end_catch@plt>
	mov    %rbx,%rdi
	call   <__cxa_begin_catch@plt>
	mov    %r12,%rdi
	call   <_ZNSt8_Rb_treeINSt7__cxx1112basic_stringIcSt11char_traitsIcESaIcEEESt4pairIKS5_N9benchmark7CounterEESt10_Select1stISA_ESt4lessIS5_ESaISA_EE8_M_eraseEPSt13_Rb_tree_nodeISA_E.isra.0>
	call   <__cxa_rethrow@plt>
	endbr64
	mov    %rax,%rbx
	call   <__cxa_end_catch@plt>
	mov    %rbx,%rdi
	call   <_Unwind_Resume@plt>
	endbr64
	mov    %rax,%rbx
	call   <__cxa_end_catch@plt>
	mov    %rbx,%rdi
	call   <_Unwind_Resume@plt>
	nop

<_ZNSt8_Rb_treeINSt7__cxx1112basic_stringIcSt11char_traitsIcESaIcEEESt4pairIKS5_ZN9benchmark12ComputeStatsERKSt6vectorINS8_17BenchmarkReporter3RunESaISB_EEE11CounterStatESt10_Select1stISH_ESt4lessIS5_ESaISH_EE22_M_emplace_hint_uniqueIJRKSt21piecewise_construct_tSt5tupleIJRS7_EESS_IJEEEEESt17_Rb_tree_iteratorISH_ESt23_Rb_tree_const_iteratorISH_EDpOT_.constprop.0.isra.0.cold>:
	call   <__cxa_begin_catch@plt>
	mov    $0x68,%esi
	mov    %rbx,%rdi
	call   <_ZdlPvm@plt>
	call   <__cxa_rethrow@plt>
	endbr64
	mov    %rax,%rbx
	call   <__cxa_end_catch@plt>
	mov    %rbx,%rdi
	call   <_Unwind_Resume@plt>

<_ZN9benchmark12ComputeStatsERKSt6vectorINS_17BenchmarkReporter3RunESaIS2_EE.cold>:
	call   <__cxa_begin_catch@plt>
	mov    $0x68,%esi
	mov    %rbp,%rdi
	call   <_ZdlPvm@plt>
	call   <__cxa_rethrow@plt>
	endbr64
	mov    %rax,%rbx
	call   <__cxa_end_catch@plt>
	mov    0x150(%rsp),%rdi
	call   <_ZNSt8_Rb_treeINSt7__cxx1112basic_stringIcSt11char_traitsIcESaIcEEESt4pairIKS5_ZN9benchmark12ComputeStatsERKSt6vectorINS8_17BenchmarkReporter3RunESaISB_EEE11CounterStatESt10_Select1stISH_ESt4lessIS5_ESaISH_EE8_M_eraseEPSt13_Rb_tree_nodeISH_E.isra.0>
	mov    0x120(%rsp),%rdi
	mov    0x130(%rsp),%rsi
	sub    %rdi,%rsi
	test   %rdi,%rdi
	je     <_ZN9benchmark12ComputeStatsERKSt6vectorINS_17BenchmarkReporter3RunESaIS2_EE.cold+0x4d>
	call   <_ZdlPvm@plt>
	mov    0x100(%rsp),%rdi
	mov    0x110(%rsp),%rsi
	sub    %rdi,%rsi
	test   %rdi,%rdi
	je     <_ZN9benchmark12ComputeStatsERKSt6vectorINS_17BenchmarkReporter3RunESaIS2_EE.cold+0x6a>
	call   <_ZdlPvm@plt>
	mov    0x50(%rsp),%rdi
	call   <_ZNSt6vectorIN9benchmark17BenchmarkReporter3RunESaIS2_EED2Ev>
	mov    %rbx,%rdi
	call   <_Unwind_Resume@plt>
	lea    0x2f8(%rsp),%rdi
	call   <_ZNSt7__cxx1112basic_stringIcSt11char_traitsIcESaIcEE10_M_disposeEv>
	lea    0x2d0(%rsp),%rdi
	call   <_ZNSt7__cxx1112basic_stringIcSt11char_traitsIcESaIcEE10_M_disposeEv>
	lea    0x2a8(%rsp),%rdi
	call   <_ZNSt7__cxx1112basic_stringIcSt11char_traitsIcESaIcEE10_M_disposeEv>
	mov    0x98(%rsp),%rdi
	call   <_ZN9benchmark13BenchmarkNameD2Ev>
	mov    0x70(%rsp),%rdi
	call   <_ZNSt7__cxx1112basic_stringIcSt11char_traitsIcESaIcEE10_M_disposeEv>
	jmp    <_ZN9benchmark12ComputeStatsERKSt6vectorINS_17BenchmarkReporter3RunESaIS2_EE.cold+0x23>
	mov    0x30(%rsp),%rdi
	call   <_ZNSt7__cxx1112basic_stringIcSt11char_traitsIcESaIcEE10_M_disposeEv>
	mov    %r14,%rdi
	call   <_ZNSt7__cxx1112basic_stringIcSt11char_traitsIcESaIcEE10_M_disposeEv>
	mov    %r15,%rdi
	call   <_ZNSt7__cxx1112basic_stringIcSt11char_traitsIcESaIcEE10_M_disposeEv>
	mov    0x20(%rsp),%rdi
	call   <_ZNSt7__cxx1112basic_stringIcSt11char_traitsIcESaIcEE10_M_disposeEv>
	mov    0x18(%rsp),%rdi
	call   <_ZNSt7__cxx1112basic_stringIcSt11char_traitsIcESaIcEE10_M_disposeEv>
	mov    0x10(%rsp),%rdi
	call   <_ZNSt7__cxx1112basic_stringIcSt11char_traitsIcESaIcEE10_M_disposeEv>
	mov    %rbx,%rdi
	mov    %rbp,%rbx
	call   <_ZNSt7__cxx1112basic_stringIcSt11char_traitsIcESaIcEE10_M_disposeEv>
	mov    0x98(%rsp),%rdi
	call   <_ZN9benchmark17BenchmarkReporter3RunD2Ev>
	jmp    <_ZN9benchmark12ComputeStatsERKSt6vectorINS_17BenchmarkReporter3RunESaIS2_EE.cold+0xb0>
	mov    0x10(%rsp),%rdi
	call   <_ZNSt7__cxx1112basic_stringIcSt11char_traitsIcESaIcEE10_M_disposeEv>
	mov    %r14,%rdi
	call   <_ZNSt7__cxx1112basic_stringIcSt11char_traitsIcESaIcEE10_M_disposeEv>
	mov    %r15,%rdi
	call   <_ZNSt7__cxx1112basic_stringIcSt11char_traitsIcESaIcEE10_M_disposeEv>
	mov    %rbx,%rdi
	mov    %rbp,%rbx
	call   <_ZN9benchmark13BenchmarkNameD2Ev>
	jmp    <_ZN9benchmark12ComputeStatsERKSt6vectorINS_17BenchmarkReporter3RunESaIS2_EE.cold+0x102>
	call   <__cxa_begin_catch@plt>
	mov    $0x50,%esi
	mov    %rbp,%rdi
	call   <_ZdlPvm@plt>
	call   <__cxa_rethrow@plt>
	endbr64
	mov    %rax,%rbx
	call   <__cxa_end_catch@plt>
	jmp    <_ZN9benchmark12ComputeStatsERKSt6vectorINS_17BenchmarkReporter3RunESaIS2_EE.cold+0x102>

<_ZN9benchmark12_GLOBAL__N_112StrFormatImpEPKcP13__va_list_tag.cold>:
	mov    %r15,%rdi
	call   <_ZdaPv@plt>
	mov    %rbx,%rdi
	call   <_Unwind_Resume@plt>

<_ZN9benchmark19HumanReadableNumberB5cxx11EdNS_7Counter4OneKE.cold>:
	mov    (%rsp),%rdi
	call   <_ZNSt7__cxx1112basic_stringIcSt11char_traitsIcESaIcEE10_M_disposeEv>
	mov    0x28(%rsp),%rdi
	call   <_ZNSt7__cxx1118basic_stringstreamIcSt11char_traitsIcESaIcEED1Ev@plt>
	lea    0x60(%rsp),%rdi
	call   <_ZNSt7__cxx1112basic_stringIcSt11char_traitsIcESaIcEE10_M_disposeEv>
	mov    %rbx,%rdi
	call   <_Unwind_Resume@plt>
	mov    -0x18(%rbp),%rax
	mov    0x65d18(%rip),%rcx        # <_ZTTNSt7__cxx1118basic_stringstreamIcSt11char_traitsIcESaIcEEE@GLIBCXX_3.4.21+0x18>
	xor    %edx,%edx
	mov    %rbp,0xa0(%rsp)
	mov    %rcx,0xa0(%rsp,%rax,1)
	mov    %rdx,0xa8(%rsp)
	mov    0x8(%rsp),%rdi
	lea    0x65c72(%rip),%rax        # <_ZTVSt9basic_iosIcSt11char_traitsIcEE@GLIBCXX_3.4+0x10>
	mov    %rax,0x120(%rsp)
	call   <_ZNSt8ios_baseD2Ev@plt>
	jmp    <_ZN9benchmark19HumanReadableNumberB5cxx11EdNS_7Counter4OneKE.cold+0x13>
	lea    0x100(%rsp),%rdi
	mov    %r13,0xb8(%rsp)
	call   <_ZNSt7__cxx1112basic_stringIcSt11char_traitsIcESaIcEE10_M_disposeEv>
	mov    0x10(%rsp),%rdi
	lea    0x65d0a(%rip),%rax        # <_ZTVSt15basic_streambufIcSt11char_traitsIcEE@GLIBCXX_3.4+0x10>
	mov    %rax,0xb8(%rsp)
	call   <_ZNSt6localeD1Ev@plt>
	mov    0x65c9e(%rip),%rax        # <_ZTTNSt7__cxx1118basic_stringstreamIcSt11char_traitsIcESaIcEEE@GLIBCXX_3.4.21+0x8>
	mov    0x65cbf(%rip),%rcx        # <_ZTTNSt7__cxx1118basic_stringstreamIcSt11char_traitsIcESaIcEEE@GLIBCXX_3.4.21+0x30>
	mov    -0x18(%rax),%rax
	mov    %rcx,0xa0(%rsp,%rax,1)
	mov    -0x18(%r15),%rax
	mov    0x65ca0(%rip),%rcx        # <_ZTTNSt7__cxx1118basic_stringstreamIcSt11char_traitsIcESaIcEEE@GLIBCXX_3.4.21+0x28>
	mov    %r15,0xb0(%rsp)
	mov    %rcx,0xb0(%rsp,%rax,1)
	mov    -0x18(%rbp),%rax
	mov    0x65c75(%rip),%rcx        # <_ZTTNSt7__cxx1118basic_stringstreamIcSt11char_traitsIcESaIcEEE@GLIBCXX_3.4.21+0x18>
	mov    %rbp,0xa0(%rsp)
	mov    %rcx,0xa0(%rsp,%rax,1)
	xor    %eax,%eax
	mov    %rax,0xa8(%rsp)
	jmp    <_ZN9benchmark19HumanReadableNumberB5cxx11EdNS_7Counter4OneKE.cold+0x4a>
	mov    (%rsp),%rdi
	call   <_ZNSt7__cxx1112basic_stringIcSt11char_traitsIcESaIcEE10_M_disposeEv>
	jmp    <_ZN9benchmark19HumanReadableNumberB5cxx11EdNS_7Counter4OneKE.cold+0x9>
	mov    (%rsp),%rdi
	call   <_ZNSt7__cxx1112basic_stringIcSt11char_traitsIcESaIcEE10_M_disposeEv>
	jmp    <_ZN9benchmark19HumanReadableNumberB5cxx11EdNS_7Counter4OneKE.cold+0x9>
	mov    0x28(%rsp),%rdi
	call   <_ZNSt7__cxx1112basic_stringIcSt11char_traitsIcESaIcEE10_M_disposeEv>
	jmp    <_ZN9benchmark19HumanReadableNumberB5cxx11EdNS_7Counter4OneKE.cold+0x13>

<_ZN9benchmark8StrSplitERKNSt7__cxx1112basic_stringIcSt11char_traitsIcESaIcEEEc.cold>:
	mov    0x10(%rsp),%rdi
	call   <_ZNSt7__cxx1112basic_stringIcSt11char_traitsIcESaIcEE10_M_disposeEv>
	mov    0x30(%rsp),%r12
	mov    0x38(%rsp),%r13
	mov    %r12,%rbp
	cmp    %rbp,%r13
	je     <_ZN9benchmark8StrSplitERKNSt7__cxx1112basic_stringIcSt11char_traitsIcESaIcEEEc.cold+0x47>
	mov    0x0(%rbp),%rdi
	lea    0x10(%rbp),%rax
	cmp    %rax,%rdi
	je     <_ZN9benchmark8StrSplitERKNSt7__cxx1112basic_stringIcSt11char_traitsIcESaIcEEEc.cold+0x36>
	mov    0x10(%rbp),%rax
	lea    0x1(%rax),%rsi
	call   <_ZdlPvm@plt>
	add    $0x20,%rbp
	jmp    <_ZN9benchmark8StrSplitERKNSt7__cxx1112basic_stringIcSt11char_traitsIcESaIcEEEc.cold+0x17>
	mov    (%rsp),%rdi
	call   <_ZNSt7__cxx1112basic_stringIcSt11char_traitsIcESaIcEE10_M_disposeEv>
	jmp    <_ZN9benchmark8StrSplitERKNSt7__cxx1112basic_stringIcSt11char_traitsIcESaIcEEEc.cold+0xa>
	mov    0x40(%rsp),%rsi
	sub    %r12,%rsi
	test   %r12,%r12
	je     <_ZN9benchmark8StrSplitERKNSt7__cxx1112basic_stringIcSt11char_traitsIcESaIcEEEc.cold+0x5c>
	mov    %r12,%rdi
	call   <_ZdlPvm@plt>
	mov    %rbx,%rdi
	call   <_Unwind_Resume@plt>
	nop

<_ZN9benchmark10SystemInfo3GetEv.cold>:
	mov    $0x20,%esi
	mov    %rbx,%rdi
	call   <_ZdlPvm@plt>
	mov    %rbp,%rdi
	call   <__cxa_guard_abort@plt>
	mov    %r12,%rdi
	call   <_Unwind_Resume@plt>

<_ZN9benchmark12_GLOBAL__N_110CpuScalingEi.cold>:
	lea    0x65f4a(%rip),%rax        # <_ZTVNSt7__cxx1115basic_stringbufIcSt11char_traitsIcESaIcEEE@GLIBCXX_3.4.21+0x10>
	lea    0xf0(%rsp),%rdi
	mov    %rax,0xa8(%rsp)
	call   <_ZNSt7__cxx1112basic_stringIcSt11char_traitsIcESaIcEE10_M_disposeEv>
	lea    0x65bce(%rip),%rax        # <_ZTVSt15basic_streambufIcSt11char_traitsIcEE@GLIBCXX_3.4+0x10>
	mov    %rbx,%rdi
	mov    %rax,0xa8(%rsp)
	call   <_ZNSt6localeD1Ev@plt>
	mov    0x65d9f(%rip),%rbx        # <_ZTTNSt7__cxx1119basic_ostringstreamIcSt11char_traitsIcESaIcEEE@GLIBCXX_3.4.21+0x10>
	mov    -0x18(%r14),%rax
	mov    %r14,0xa0(%rsp)
	mov    %rbx,0xa0(%rsp,%rax,1)
	mov    %rbp,%rbx
	mov    0x8(%rsp),%rdi
	mov    %r15,0x110(%rsp)
	lea    0x60(%rsp),%rbp
	call   <_ZNSt8ios_baseD2Ev@plt>
	jmp    <_ZN9benchmark12_GLOBAL__N_110CpuScalingEi.cold+0xcb>
	call   <__cxa_begin_catch@plt>
	call   <__cxa_end_catch@plt>
	jmp    <_ZN9benchmark12_GLOBAL__N_110CpuScalingEi+0x121>
	mov    %rbx,%rdi
	mov    %rbp,%rbx
	call   <_ZNSt13basic_filebufIcSt11char_traitsIcEED1Ev@plt>
	mov    -0x18(%r12),%rax
	mov    0x65ea1(%rip),%rdx        # <_ZTTSt14basic_ifstreamIcSt11char_traitsIcEE@GLIBCXX_3.4+0x10>
	mov    %r12,0xa0(%rsp)
	mov    %rdx,0xa0(%rsp,%rax,1)
	xor    %edx,%edx
	mov    %rdx,0xa8(%rsp)
	mov    0x10(%rsp),%rdi
	mov    %r15,0x1a0(%rsp)
	lea    0x60(%rsp),%rbp
	call   <_ZNSt8ios_baseD2Ev@plt>
	mov    0x18(%rsp),%rdi
	call   <_ZNSt7__cxx1112basic_stringIcSt11char_traitsIcESaIcEE10_M_disposeEv>
	mov    %rbp,%rdi
	call   <_ZNSt7__cxx1112basic_stringIcSt11char_traitsIcESaIcEE10_M_disposeEv>
	mov    %rbx,%rdi
	call   <_Unwind_Resume@plt>
	mov    0x18(%rsp),%rdi
	call   <_ZNSt7__cxx1112basic_stringIcSt11char_traitsIcESaIcEE10_M_disposeEv>
	mov    %r13,%rdi
	lea    0x60(%rsp),%rbp
	call   <_ZNSt7__cxx1119basic_ostringstreamIcSt11char_traitsIcESaIcEED1Ev@plt>
	jmp    <_ZN9benchmark12_GLOBAL__N_110CpuScalingEi.cold+0xcb>
	mov    %r13,%rdi
	call   <_ZNSt14basic_ifstreamIcSt11char_traitsIcEED1Ev@plt>
	jmp    <_ZN9benchmark12_GLOBAL__N_110CpuScalingEi.cold+0xc1>

<_ZN9benchmark12_GLOBAL__N_112ReadFromFileIlEEbRKNSt7__cxx1112basic_stringIcSt11char_traitsIcESaIcEEEPT_.isra.0.cold>:
	mov    %r12,%rdi
	call   <_ZNSt13basic_filebufIcSt11char_traitsIcEED1Ev@plt>
	mov    %rbp,%rax
	mov    -0x18(%rbx),%rdx
	mov    0x65e1d(%rip),%rcx        # <_ZTTSt14basic_ifstreamIcSt11char_traitsIcEE@GLIBCXX_3.4+0x10>
	mov    %rbx,0x10(%rsp)
	mov    %rax,%rbx
	mov    %rcx,0x10(%rsp,%rdx,1)
	xor    %edx,%edx
	mov    %rdx,0x18(%rsp)
	mov    %r13,%rdi
	mov    %r15,0x110(%rsp)
	call   <_ZNSt8ios_baseD2Ev@plt>
	mov    %rbx,%rdi
	call   <_Unwind_Resume@plt>
	call   <__cxa_begin_catch@plt>
	call   <__cxa_end_catch@plt>
	jmp    <_ZN9benchmark12_GLOBAL__N_112ReadFromFileIlEEbRKNSt7__cxx1112basic_stringIcSt11char_traitsIcESaIcEEEPT_.isra.0+0x15b>
	mov    %r14,%rdi
	call   <_ZNSt14basic_ifstreamIcSt11char_traitsIcEED1Ev@plt>
	mov    %rbx,%rdi
	call   <_Unwind_Resume@plt>

<_ZN9benchmark12_GLOBAL__N_121GetCPUCyclesPerSecondENS_7CPUInfo7ScalingE.cold>:
	cmpl   $0x0,(%rbx)
	jne    <_ZN9benchmark12_GLOBAL__N_121GetCPUCyclesPerSecondENS_7CPUInfo7ScalingE.cold+0x8>
	mov    %r13d,(%rbx)
	mov    %rax,%rbx
	mov    0x28(%rsp),%rdi
	call   <_ZNSt7__cxx1112basic_stringIcSt11char_traitsIcESaIcEE10_M_disposeEv>
	mov    %r14,%rdi
	call   <_ZNSt7__cxx1112basic_stringIcSt11char_traitsIcESaIcEE10_M_disposeEv>
	mov    %r15,%rdi
	call   <_ZNSt14basic_ifstreamIcSt11char_traitsIcEED1Ev@plt>
	mov    %rbx,%rdi
	call   <_Unwind_Resume@plt>
	mov    %r15,%rdi
	call   <_ZNSt7__cxx1112basic_stringIcSt11char_traitsIcESaIcEE10_M_disposeEv>
	test   %bl,%bl
	je     <_ZN9benchmark12_GLOBAL__N_121GetCPUCyclesPerSecondENS_7CPUInfo7ScalingE.cold+0x49>
	lea    0x100(%rsp),%rbx
	mov    %rbx,%rdi
	call   <_ZNSt7__cxx1112basic_stringIcSt11char_traitsIcESaIcEE10_M_disposeEv>
	mov    0x28(%rsp),%rdi
	call   <_ZNSt7__cxx1112basic_stringIcSt11char_traitsIcESaIcEE10_M_disposeEv>
	mov    %rbp,%rdi
	call   <_Unwind_Resume@plt>
	call   <__cxa_begin_catch@plt>
	call   <__cxa_end_catch@plt>
	jmp    <_ZN9benchmark12_GLOBAL__N_121GetCPUCyclesPerSecondENS_7CPUInfo7ScalingE+0x955>
	cmpl   $0x0,(%rbx)
	jne    <_ZN9benchmark12_GLOBAL__N_121GetCPUCyclesPerSecondENS_7CPUInfo7ScalingE.cold+0x72>
	mov    %r13d,(%rbx)
	mov    %rax,%rbx
	jmp    <_ZN9benchmark12_GLOBAL__N_121GetCPUCyclesPerSecondENS_7CPUInfo7ScalingE.cold+0xb>
	mov    0x20(%rsp),%rdi
	call   <_ZNSt13basic_filebufIcSt11char_traitsIcEED1Ev@plt>
	mov    %rbp,%rax
	mov    -0x18(%rbx),%rdx
	mov    %rbx,0x190(%rsp)
	mov    %rax,%rbx
	mov    %r12,0x190(%rsp,%rdx,1)
	xor    %edx,%edx
	mov    %rdx,0x198(%rsp)
	mov    0x30(%rsp),%rdi
	lea    0x65919(%rip),%rax        # <_ZTVSt9basic_iosIcSt11char_traitsIcEE@GLIBCXX_3.4+0x10>
	mov    %rax,0x290(%rsp)
	call   <_ZNSt8ios_baseD2Ev@plt>
	mov    %rbx,%rdi
	call   <_Unwind_Resume@plt>

<_ZN9benchmark12_GLOBAL__N_112ReadFromFileINSt7__cxx1112basic_stringIcSt11char_traitsIcESaIcEEEEEbRKS7_PT_.cold>:
	mov    %rbx,%rdi
	mov    %r12,%rbx
	call   <_ZNSt13basic_filebufIcSt11char_traitsIcEED1Ev@plt>
	mov    -0x18(%rbp),%rax
	mov    0x65cf6(%rip),%rdx        # <_ZTTSt14basic_ifstreamIcSt11char_traitsIcEE@GLIBCXX_3.4+0x10>
	mov    %rbp,0x10(%rsp)
	mov    %rdx,0x10(%rsp,%rax,1)
	xor    %edx,%edx
	mov    %rdx,0x18(%rsp)
	mov    (%rsp),%rdi
	mov    %r15,0x110(%rsp)
	call   <_ZNSt8ios_baseD2Ev@plt>
	mov    %rbx,%rdi
	call   <_Unwind_Resume@plt>
	call   <__cxa_begin_catch@plt>
	call   <__cxa_end_catch@plt>
	jmp    <_ZN9benchmark12_GLOBAL__N_112ReadFromFileINSt7__cxx1112basic_stringIcSt11char_traitsIcESaIcEEEEEbRKS7_PT_+0x1a0>
	mov    %r14,%rdi
	call   <_ZNSt14basic_ifstreamIcSt11char_traitsIcEED1Ev@plt>
	mov    %rbx,%rdi
	call   <_Unwind_Resume@plt>

<_ZN9benchmark12_GLOBAL__N_114GetNumCPUsImplEv.cold>:
	cmpl   $0x0,(%rbx)
	je     <_ZN9benchmark12_GLOBAL__N_114GetNumCPUsImplEv.cold+0x92>
	mov    %rax,%rbx
	lea    0x90(%rsp),%rdi
	call   <_ZNSt7__cxx1112basic_stringIcSt11char_traitsIcESaIcEE10_M_disposeEv>
	mov    %rbp,%rdi
	call   <_ZNSt7__cxx1112basic_stringIcSt11char_traitsIcESaIcEE10_M_disposeEv>
	mov    0x28(%rsp),%rdi
	call   <_ZNSt7__cxx1112basic_stringIcSt11char_traitsIcESaIcEE10_M_disposeEv>
	mov    %r14,%rdi
	call   <_ZNSt14basic_ifstreamIcSt11char_traitsIcEED1Ev@plt>
	mov    %rbx,%rdi
	call   <_Unwind_Resume@plt>
	mov    0x8(%rsp),%rdi
	call   <_ZNSt13basic_filebufIcSt11char_traitsIcEED1Ev@plt>
	mov    0x65c59(%rip),%rax        # <_ZTTSt14basic_ifstreamIcSt11char_traitsIcEE@GLIBCXX_3.4+0x8>
	mov    0x65c5a(%rip),%rcx        # <_ZTTSt14basic_ifstreamIcSt11char_traitsIcEE@GLIBCXX_3.4+0x10>
	mov    %rax,0xd0(%rsp)
	mov    -0x18(%rax),%rax
	mov    %rcx,0xd0(%rsp,%rax,1)
	xor    %eax,%eax
	mov    %rax,0xd8(%rsp)
	mov    0x18(%rsp),%rdi
	lea    0x65828(%rip),%rax        # <_ZTVSt9basic_iosIcSt11char_traitsIcEE@GLIBCXX_3.4+0x10>
	mov    %rax,0x1d0(%rsp)
	call   <_ZNSt8ios_baseD2Ev@plt>
	mov    %rbx,%rdi
	call   <_Unwind_Resume@plt>
	mov    %r13d,(%rbx)
	jmp    <_ZN9benchmark12_GLOBAL__N_114GetNumCPUsImplEv.cold+0x9>
	call   <__cxa_begin_catch@plt>
	call   <__cxa_end_catch@plt>
	jmp    <_ZN9benchmark12_GLOBAL__N_114GetNumCPUsImplEv+0x544>

<_ZN9benchmark12_GLOBAL__N_121GetCacheSizesFromKVFSEv.cold>:
	mov    0x98(%rsp),%rdi
	call   <_ZNSt13basic_filebufIcSt11char_traitsIcEED1Ev@plt>
	mov    0x65be8(%rip),%rax        # <_ZTTSt14basic_ifstreamIcSt11char_traitsIcEE@GLIBCXX_3.4+0x8>
	mov    0x65be9(%rip),%rcx        # <_ZTTSt14basic_ifstreamIcSt11char_traitsIcEE@GLIBCXX_3.4+0x10>
	xor    %r9d,%r9d
	mov    %rax,0x200(%rsp)
	mov    -0x18(%rax),%rax
	mov    %rcx,0x200(%rsp,%rax,1)
	mov    %r9,0x208(%rsp)
	mov    0x68(%rsp),%rdi
	lea    0x657b6(%rip),%rax        # <_ZTVSt9basic_iosIcSt11char_traitsIcEE@GLIBCXX_3.4+0x10>
	mov    %rax,0x300(%rsp)
	call   <_ZNSt8ios_baseD2Ev@plt>
	mov    0x10(%rsp),%rdi
	call   <_ZNSt7__cxx1112basic_stringIcSt11char_traitsIcESaIcEE10_M_disposeEv>
	lea    0x1d0(%rsp),%rax
	mov    %rax,0x78(%rsp)
	mov    0x80(%rsp),%rdi
	call   <_ZNSt7__cxx1112basic_stringIcSt11char_traitsIcESaIcEE10_M_disposeEv>
	mov    0x78(%rsp),%rdi
	call   <_ZNSt7__cxx1112basic_stringIcSt11char_traitsIcESaIcEE10_M_disposeEv>
	mov    0xd8(%rsp),%rdi
	call   <_ZNSt7__cxx1112basic_stringIcSt11char_traitsIcESaIcEE10_M_disposeEv>
	mov    0x90(%rsp),%rdi
	call   <_ZNSt6vectorIN9benchmark7CPUInfo9CacheInfoESaIS2_EED2Ev>
	mov    %rbx,%rdi
	call   <_Unwind_Resume@plt>
	lea    0x65b7a(%rip),%rax        # <_ZTVNSt7__cxx1115basic_stringbufIcSt11char_traitsIcESaIcEEE@GLIBCXX_3.4.21+0x10>
	lea    0x460(%rsp),%rdi
	mov    %rax,0x418(%rsp)
	call   <_ZNSt7__cxx1112basic_stringIcSt11char_traitsIcESaIcEE10_M_disposeEv>
	lea    0x657fe(%rip),%rax        # <_ZTVSt15basic_streambufIcSt11char_traitsIcEE@GLIBCXX_3.4+0x10>
	mov    %r14,%rdi
	mov    %rax,0x418(%rsp)
	call   <_ZNSt6localeD1Ev@plt>
	mov    0x659c7(%rip),%rax        # <_ZTTNSt7__cxx1119basic_ostringstreamIcSt11char_traitsIcESaIcEEE@GLIBCXX_3.4.21+0x8>
	mov    0x659c8(%rip),%rcx        # <_ZTTNSt7__cxx1119basic_ostringstreamIcSt11char_traitsIcESaIcEEE@GLIBCXX_3.4.21+0x10>
	mov    %rax,0x410(%rsp)
	mov    -0x18(%rax),%rax
	mov    %rcx,0x410(%rsp,%rax,1)
	mov    0x50(%rsp),%rdi
	lea    0x656f8(%rip),%rax        # <_ZTVSt9basic_iosIcSt11char_traitsIcEE@GLIBCXX_3.4+0x10>
	mov    %rbx,%rbp
	lea    0x130(%rsp),%rbx
	mov    %rax,0x480(%rsp)
	call   <_ZNSt8ios_baseD2Ev@plt>
	mov    %rbx,%rdi
	mov    %rbp,%rbx
	call   <_ZNSt7__cxx1112basic_stringIcSt11char_traitsIcESaIcEE10_M_disposeEv>
	mov    0x60(%rsp),%rdi
	call   <_ZNSt14basic_ifstreamIcSt11char_traitsIcEED1Ev@plt>
	jmp    <_ZN9benchmark12_GLOBAL__N_121GetCacheSizesFromKVFSEv.cold+0x6a>
	mov    0x80(%rsp),%rdi
	call   <_ZNSt7__cxx1112basic_stringIcSt11char_traitsIcESaIcEE10_M_disposeEv>
	mov    0x8(%rsp),%rdi
	call   <_ZNSt7__cxx1119basic_ostringstreamIcSt11char_traitsIcESaIcEED1Ev@plt>
	lea    0x1d0(%rsp),%rax
	mov    %rax,0x78(%rsp)
	jmp    <_ZN9benchmark12_GLOBAL__N_121GetCacheSizesFromKVFSEv.cold+0x77>
	lea    0x65abe(%rip),%rax        # <_ZTVNSt7__cxx1115basic_stringbufIcSt11char_traitsIcESaIcEEE@GLIBCXX_3.4.21+0x10>
	lea    0x460(%rsp),%rdi
	mov    %rax,0x418(%rsp)
	call   <_ZNSt7__cxx1112basic_stringIcSt11char_traitsIcESaIcEE10_M_disposeEv>
	lea    0x65742(%rip),%rax        # <_ZTVSt15basic_streambufIcSt11char_traitsIcEE@GLIBCXX_3.4+0x10>
	mov    %r14,%rdi
	mov    %rax,0x418(%rsp)
	call   <_ZNSt6localeD1Ev@plt>
	mov    0x6590b(%rip),%rax        # <_ZTTNSt7__cxx1119basic_ostringstreamIcSt11char_traitsIcESaIcEEE@GLIBCXX_3.4.21+0x8>
	mov    0x6590c(%rip),%rcx        # <_ZTTNSt7__cxx1119basic_ostringstreamIcSt11char_traitsIcESaIcEEE@GLIBCXX_3.4.21+0x10>
	mov    %rax,0x410(%rsp)
	mov    -0x18(%rax),%rax
	mov    %rcx,0x410(%rsp,%rax,1)
	mov    0x50(%rsp),%rdi
	lea    0x6563c(%rip),%rax        # <_ZTVSt9basic_iosIcSt11char_traitsIcEE@GLIBCXX_3.4+0x10>
	mov    %rax,0x480(%rsp)
	call   <_ZNSt8ios_baseD2Ev@plt>
	lea    0x1d0(%rsp),%rax
	mov    %rax,0x78(%rsp)
	jmp    <_ZN9benchmark12_GLOBAL__N_121GetCacheSizesFromKVFSEv.cold+0x6a>
	cmpl   $0x0,0x0(%rbp)
	je     <_ZN9benchmark12_GLOBAL__N_121GetCacheSizesFromKVFSEv.cold+0x22d>
	mov    0x8(%rsp),%rdi
	call   <_ZNSt7__cxx1112basic_stringIcSt11char_traitsIcESaIcEE10_M_disposeEv>
	mov    0x20(%rsp),%rdi
	call   <_ZNSt7__cxx1112basic_stringIcSt11char_traitsIcESaIcEE10_M_disposeEv>
	mov    0xc8(%rsp),%rdi
	mov    %rbx,%rbp
	lea    0x130(%rsp),%rbx
	call   <_ZNSt7__cxx1112basic_stringIcSt11char_traitsIcESaIcEE10_M_disposeEv>
	jmp    <_ZN9benchmark12_GLOBAL__N_121GetCacheSizesFromKVFSEv.cold+0x11c>
	cmpl   $0x0,(%rbx)
	jne    <_ZN9benchmark12_GLOBAL__N_121GetCacheSizesFromKVFSEv.cold+0x21e>
	mov    %r12d,(%rbx)
	mov    %rax,%rbx
	mov    0x10(%rsp),%rdi
	call   <_ZNSt7__cxx1112basic_stringIcSt11char_traitsIcESaIcEE10_M_disposeEv>
	jmp    <_ZN9benchmark12_GLOBAL__N_121GetCacheSizesFromKVFSEv.cold+0x1ef>
	mov    %r15d,0x0(%rbp)
	jmp    <_ZN9benchmark12_GLOBAL__N_121GetCacheSizesFromKVFSEv.cold+0x1e5>
	lea    0x659ea(%rip),%rax        # <_ZTVNSt7__cxx1115basic_stringbufIcSt11char_traitsIcESaIcEEE@GLIBCXX_3.4.21+0x10>
	lea    0x460(%rsp),%rdi
	mov    %rax,0x418(%rsp)
	call   <_ZNSt7__cxx1112basic_stringIcSt11char_traitsIcESaIcEE10_M_disposeEv>
	lea    0x6566e(%rip),%rax        # <_ZTVSt15basic_streambufIcSt11char_traitsIcEE@GLIBCXX_3.4+0x10>
	mov    %r14,%rdi
	mov    %rax,0x418(%rsp)
	call   <_ZNSt6localeD1Ev@plt>
	mov    0x65837(%rip),%rax        # <_ZTTNSt7__cxx1119basic_ostringstreamIcSt11char_traitsIcESaIcEEE@GLIBCXX_3.4.21+0x8>
	mov    0x65838(%rip),%rcx        # <_ZTTNSt7__cxx1119basic_ostringstreamIcSt11char_traitsIcESaIcEEE@GLIBCXX_3.4.21+0x10>
	mov    %rax,0x410(%rsp)
	mov    -0x18(%rax),%rax
	mov    %rcx,0x410(%rsp,%rax,1)
	mov    0x50(%rsp),%rdi
	lea    0x65568(%rip),%rax        # <_ZTVSt9basic_iosIcSt11char_traitsIcEE@GLIBCXX_3.4+0x10>
	mov    %rbx,%rbp
	lea    0x130(%rsp),%rbx
	mov    %rax,0x480(%rsp)
	call   <_ZNSt8ios_baseD2Ev@plt>
	lea    0x1d0(%rsp),%rax
	mov    %rax,0x78(%rsp)
	jmp    <_ZN9benchmark12_GLOBAL__N_121GetCacheSizesFromKVFSEv.cold+0x11c>
	mov    0x10(%rsp),%rdi
	call   <_ZNSt7__cxx1112basic_stringIcSt11char_traitsIcESaIcEE10_M_disposeEv>
	mov    0x8(%rsp),%rdi
	mov    %rbx,%rbp
	lea    0x130(%rsp),%rbx
	call   <_ZNSt7__cxx1119basic_ostringstreamIcSt11char_traitsIcESaIcEED1Ev@plt>
	lea    0x1d0(%rsp),%rax
	mov    %rax,0x78(%rsp)
	jmp    <_ZN9benchmark12_GLOBAL__N_121GetCacheSizesFromKVFSEv.cold+0x11c>
	call   <__cxa_begin_catch@plt>
	call   <__cxa_end_catch@plt>
	jmp    <_ZN9benchmark12_GLOBAL__N_121GetCacheSizesFromKVFSEv+0x1de6>
	mov    0x10(%rsp),%rdi
	call   <_ZNSt7__cxx1112basic_stringIcSt11char_traitsIcESaIcEE10_M_disposeEv>
	mov    0x8(%rsp),%rdi
	call   <_ZNSt7__cxx1119basic_ostringstreamIcSt11char_traitsIcESaIcEED1Ev@plt>
	lea    0x150(%rsp),%rax
	mov    %rax,0xc8(%rsp)
	jmp    <_ZN9benchmark12_GLOBAL__N_121GetCacheSizesFromKVFSEv.cold+0x1f9>
	lea    0x658f6(%rip),%rax        # <_ZTVNSt7__cxx1115basic_stringbufIcSt11char_traitsIcESaIcEEE@GLIBCXX_3.4.21+0x10>
	lea    0x460(%rsp),%rdi
	mov    %rax,0x418(%rsp)
	call   <_ZNSt7__cxx1112basic_stringIcSt11char_traitsIcESaIcEE10_M_disposeEv>
	lea    0x6557a(%rip),%rax        # <_ZTVSt15basic_streambufIcSt11char_traitsIcEE@GLIBCXX_3.4+0x10>
	mov    %r14,%rdi
	mov    %rax,0x418(%rsp)
	call   <_ZNSt6localeD1Ev@plt>
	mov    0x65743(%rip),%rax        # <_ZTTNSt7__cxx1119basic_ostringstreamIcSt11char_traitsIcESaIcEEE@GLIBCXX_3.4.21+0x8>
	mov    0x65744(%rip),%rcx        # <_ZTTNSt7__cxx1119basic_ostringstreamIcSt11char_traitsIcESaIcEEE@GLIBCXX_3.4.21+0x10>
	mov    %rax,0x410(%rsp)
	mov    -0x18(%rax),%rax
	mov    %rcx,0x410(%rsp,%rax,1)
	mov    0x50(%rsp),%rdi
	lea    0x65474(%rip),%rax        # <_ZTVSt9basic_iosIcSt11char_traitsIcEE@GLIBCXX_3.4+0x10>
	mov    %rax,0x480(%rsp)
	call   <_ZNSt8ios_baseD2Ev@plt>
	lea    0x150(%rsp),%rax
	mov    %rax,0xc8(%rsp)
	jmp    <_ZN9benchmark12_GLOBAL__N_121GetCacheSizesFromKVFSEv.cold+0x1f9>
	call   <__cxa_begin_catch@plt>
	call   <__cxa_end_catch@plt>
	jmp    <_ZN9benchmark12_GLOBAL__N_121GetCacheSizesFromKVFSEv+0xddb>
	mov    0x8(%rsp),%rdi
	call   <_ZNSt14basic_ifstreamIcSt11char_traitsIcEED1Ev@plt>
	mov    0x10(%rsp),%rdi
	mov    %rbx,%rbp
	lea    0x130(%rsp),%rbx
	call   <_ZNSt7__cxx1112basic_stringIcSt11char_traitsIcESaIcEE10_M_disposeEv>
	jmp    <_ZN9benchmark12_GLOBAL__N_121GetCacheSizesFromKVFSEv.cold+0x11c>
	mov    %r12,%rdi
	call   <_ZNSt13basic_filebufIcSt11char_traitsIcEED1Ev@plt>
	mov    0x65810(%rip),%rax        # <_ZTTSt14basic_ifstreamIcSt11char_traitsIcEE@GLIBCXX_3.4+0x8>
	mov    0x65811(%rip),%rcx        # <_ZTTSt14basic_ifstreamIcSt11char_traitsIcEE@GLIBCXX_3.4+0x10>
	mov    %rax,0x410(%rsp)
	mov    -0x18(%rax),%rax
	mov    %rcx,0x410(%rsp,%rax,1)
	xor    %ecx,%ecx
	mov    %rcx,0x418(%rsp)
	mov    0x28(%rsp),%rdi
	lea    0x653df(%rip),%rax        # <_ZTVSt9basic_iosIcSt11char_traitsIcEE@GLIBCXX_3.4+0x10>
	mov    %rax,0x510(%rsp)
	call   <_ZNSt8ios_baseD2Ev@plt>
	jmp    <_ZN9benchmark12_GLOBAL__N_121GetCacheSizesFromKVFSEv.cold+0x3c3>
	mov    0x10(%rsp),%rdi
	lea    0x130(%rsp),%rbx
	call   <_ZNSt7__cxx1112basic_stringIcSt11char_traitsIcESaIcEE10_M_disposeEv>
	jmp    <_ZN9benchmark12_GLOBAL__N_121GetCacheSizesFromKVFSEv.cold+0x11c>
	mov    0x10(%rsp),%rdi
	call   <_ZNSt7__cxx1112basic_stringIcSt11char_traitsIcESaIcEE10_M_disposeEv>
	mov    0x8(%rsp),%rdi
	mov    %rbx,%rbp
	lea    0x130(%rsp),%rbx
	call   <_ZNSt7__cxx1119basic_ostringstreamIcSt11char_traitsIcESaIcEED1Ev@plt>
	jmp    <_ZN9benchmark12_GLOBAL__N_121GetCacheSizesFromKVFSEv.cold+0x11c>
	call   <__cxa_begin_catch@plt>
	call   <__cxa_end_catch@plt>
	jmp    <_ZN9benchmark12_GLOBAL__N_121GetCacheSizesFromKVFSEv+0x1771>
	mov    0x10(%rsp),%rdi
	call   <_ZNSt7__cxx1112basic_stringIcSt11char_traitsIcESaIcEE10_M_disposeEv>
	jmp    <_ZN9benchmark12_GLOBAL__N_121GetCacheSizesFromKVFSEv.cold+0x1f9>
	lea    0x65798(%rip),%rax        # <_ZTVNSt7__cxx1115basic_stringbufIcSt11char_traitsIcESaIcEEE@GLIBCXX_3.4.21+0x10>
	lea    0x460(%rsp),%rdi
	mov    %rax,0x418(%rsp)
	call   <_ZNSt7__cxx1112basic_stringIcSt11char_traitsIcESaIcEE10_M_disposeEv>
	lea    0x6541c(%rip),%rax        # <_ZTVSt15basic_streambufIcSt11char_traitsIcEE@GLIBCXX_3.4+0x10>
	mov    %r14,%rdi
	mov    %rax,0x418(%rsp)
	call   <_ZNSt6localeD1Ev@plt>
	mov    0x655e5(%rip),%rax        # <_ZTTNSt7__cxx1119basic_ostringstreamIcSt11char_traitsIcESaIcEEE@GLIBCXX_3.4.21+0x8>
	mov    0x655e6(%rip),%rcx        # <_ZTTNSt7__cxx1119basic_ostringstreamIcSt11char_traitsIcESaIcEEE@GLIBCXX_3.4.21+0x10>
	mov    %rax,0x410(%rsp)
	mov    -0x18(%rax),%rax
	mov    %rcx,0x410(%rsp,%rax,1)
	mov    0x50(%rsp),%rdi
	lea    0x65316(%rip),%rax        # <_ZTVSt9basic_iosIcSt11char_traitsIcEE@GLIBCXX_3.4+0x10>
	mov    %rax,0x480(%rsp)
	call   <_ZNSt8ios_baseD2Ev@plt>
	lea    0x1d0(%rsp),%rax
	mov    %rax,0x78(%rsp)
	jmp    <_ZN9benchmark12_GLOBAL__N_121GetCacheSizesFromKVFSEv.cold+0x77>
	mov    0x10(%rsp),%rdi
	call   <_ZNSt7__cxx1112basic_stringIcSt11char_traitsIcESaIcEE10_M_disposeEv>
	mov    0x8(%rsp),%rdi
	call   <_ZNSt7__cxx1119basic_ostringstreamIcSt11char_traitsIcESaIcEED1Ev@plt>
	lea    0x1d0(%rsp),%rax
	mov    %rax,0x78(%rsp)
	jmp    <_ZN9benchmark12_GLOBAL__N_121GetCacheSizesFromKVFSEv.cold+0x6a>
	nop

<_ZN9benchmark7CPUInfoC2Ev.cold>:
	mov    0x28(%rbx),%rdi
	mov    0x38(%rbx),%rsi
	sub    %rdi,%rsi
	test   %rdi,%rdi
	je     <_ZN9benchmark7CPUInfoC2Ev.cold+0x15>
	call   <_ZdlPvm@plt>
	mov    %rbp,%rdi
	call   <_ZNSt6vectorIN9benchmark7CPUInfo9CacheInfoESaIS2_EED2Ev>
	mov    %r12,%rdi
	call   <_Unwind_Resume@plt>
	nop

<_ZN9benchmark7CPUInfo3GetEv.cold>:
	mov    $0x40,%esi
	mov    %rbp,%rdi
	call   <_ZdlPvm@plt>
	mov    %rbx,%rdi
	call   <__cxa_guard_abort@plt>
	mov    %r12,%rdi
	call   <_Unwind_Resume@plt>
	nop

<_ZN9benchmark8internal17BenchmarkInstanceC2EPNS0_9BenchmarkEiiRKSt6vectorIlSaIlEEi.cold>:
	mov    (%rsp),%rdi
	call   <_ZNSt7__cxx1112basic_stringIcSt11char_traitsIcESaIcEE10_M_disposeEv>
	mov    0x148(%rbx),%rdi
	call   <_ZNSt8_Rb_treeINSt7__cxx1112basic_stringIcSt11char_traitsIcESaIcEEESt4pairIKS5_N9benchmark7CounterEESt10_Select1stISA_ESt4lessIS5_ESaISA_EE8_M_eraseEPSt13_Rb_tree_nodeISA_E.isra.0>
	mov    %rbx,%rdi
	call   <_ZN9benchmark13BenchmarkNameD2Ev>
	mov    %rbp,%rdi
	call   <_Unwind_Resume@plt>
	mov    (%rsp),%rdi
	call   <_ZNSt7__cxx1112basic_stringIcSt11char_traitsIcESaIcEE10_M_disposeEv>
	jmp    <_ZN9benchmark8internal17BenchmarkInstanceC2EPNS0_9BenchmarkEiiRKSt6vectorIlSaIlEEi.cold+0x9>

<_ZNK9benchmark8internal17BenchmarkInstance3RunEliPNS0_11ThreadTimerEPNS0_13ThreadManagerEPNS0_23PerfCountersMeasurementEPNS_15ProfilerManagerE.cold>:
	mov    %r15,%rdi
	call   <_ZNSt7__cxx1112basic_stringIcSt11char_traitsIcESaIcEE10_M_disposeEv>
	mov    %rbx,%rdi
	call   <_Unwind_Resume@plt>
	mov    %r12,%rdi
	call   <_ZN9benchmark5StateD2Ev>
	mov    %rbx,%rdi
	call   <_Unwind_Resume@plt>

<_ZNK9benchmark8internal17BenchmarkInstance5SetupEv.cold>:
	mov    %r12,%rdi
	call   <_ZN9benchmark5StateD2Ev>
	mov    %rbx,%rdi
	call   <_Unwind_Resume@plt>
	mov    %r14,%rdi
	call   <_ZNSt7__cxx1112basic_stringIcSt11char_traitsIcESaIcEE10_M_disposeEv>
	mov    %rbx,%rdi
	call   <_Unwind_Resume@plt>

<_ZNK9benchmark8internal17BenchmarkInstance8TeardownEv.cold>:
	mov    %r12,%rdi
	call   <_ZN9benchmark5StateD2Ev>
	mov    %rbx,%rdi
	call   <_Unwind_Resume@plt>
	mov    %r14,%rdi
	call   <_ZNSt7__cxx1112basic_stringIcSt11char_traitsIcESaIcEE10_M_disposeEv>
	mov    %rbx,%rdi
	call   <_Unwind_Resume@plt>
	nopl   0x0(%rax)

<main>:
	endbr64
	push   %rbx
	mov    %rsi,%rbx
	sub    $0x30,%rsp
	mov    %edi,0xc(%rsp)
	mov    %fs:0x28,%rax
	mov    %rax,0x28(%rsp)
	movabs $0x72616d68636e6562,%rax
	mov    %rax,0x1e(%rsp)
	mov    $0x6b,%eax
	mov    %ax,0x26(%rsp)
	lea    0x1e(%rsp),%rax
	mov    %rax,0x10(%rsp)
	test   %rsi,%rsi
	je     <main+0x93>
	lea    0x54e3(%rip),%rdx        # <_ZN9benchmark16PrintDefaultHelpEv>
	lea    0xc(%rsp),%rdi
	mov    %rbx,%rsi
	call   <_ZN9benchmark10InitializeEPiPPcPFvvE>
	mov    0xc(%rsp),%edi
	mov    %rbx,%rsi
	call   <_ZN9benchmark27ReportUnrecognizedArgumentsEiPPc>
	mov    %eax,%edx
	mov    $0x1,%eax
	test   %dl,%dl
	jne    <main+0x7d>
	call   <_ZN9benchmark22RunSpecifiedBenchmarksEv>
	call   <_ZN9benchmark8ShutdownEv>
	xor    %eax,%eax
	mov    0x28(%rsp),%rdx
	sub    %fs:0x28,%rdx
	jne    <main+0xa2>
	add    $0x30,%rsp
	pop    %rbx
	ret
	movl   $0x1,0xc(%rsp)
	lea    0x10(%rsp),%rbx
	jmp    <main+0x46>
	call   <__stack_chk_fail@plt>
	nopw   0x0(%rax,%rax,1)

<_GLOBAL__sub_I_main>:
	endbr64
	push   %rbp
	mov    %rsp,%rbp
	push   %r14
	push   %r13
	push   %r12
	push   %rbx
	sub    $0x30,%rsp
	mov    %fs:0x28,%rax
	mov    %rax,0x28(%rsp)
	xor    %eax,%eax
	call   <_ZN9benchmark8internal17InitializeStreamsEv>
	mov    $0xe8,%edi
	call   <_Znwm@plt>
	mov    $0x34,%edi
	mov    %rax,%rbx
	lea    0x10(%rsp),%rax
	mov    %rax,(%rsp)
	call   <_Znwm@plt>
	vmovdqa 0x56e40(%rip),%ymm0        # <_ZSt19piecewise_construct+0x3f>
	mov    %rax,(%rsp)
	mov    %rsp,%rsi
	mov    %rbx,%rdi
	movq   $0x33,0x10(%rsp)
	mov    %rsp,%r12
	vmovdqu %ymm0,(%rax)
	vmovdqa 0x56e3e(%rip),%ymm0        # <_ZSt19piecewise_construct+0x5f>
	movq   $0x33,0x8(%rsp)
	movb   $0x0,0x33(%rax)
	vmovdqu %ymm0,0x13(%rax)
	vzeroupper
	call   <_ZN9benchmark8internal9BenchmarkC1ERKNSt7__cxx1112basic_stringIcSt11char_traitsIcESaIcEEE>
	lea    0x64d5d(%rip),%rax        # <_ZTVN9benchmark8internal17FunctionBenchmarkE+0x10>
	mov    %rbx,%rdi
	mov    %rax,(%rbx)
	lea    0xb30(%rip),%rax        # <_Z18BM_ComputeBoundSoAI7SoA2VecIdLm10000000EEEvRN9benchmark5StateE>
	mov    %rax,0xe0(%rbx)
	call   <_ZN9benchmark8internal25RegisterBenchmarkInternalEPNS0_9BenchmarkE>
	mov    %rax,%rdi
	mov    $0x2,%esi
	call   <_ZN9benchmark8internal9Benchmark4UnitENS_8TimeUnitE>
	mov    %rax,%rdi
	call   <_ZN9benchmark8internal9Benchmark13UseManualTimeEv>
	mov    %rsp,%rdi
	call   <_ZNSt7__cxx1112basic_stringIcSt11char_traitsIcESaIcEE10_M_disposeEv>
	mov    0x28(%rsp),%rax
	sub    %fs:0x28,%rax
	jne    <_GLOBAL__sub_I_main+0xe6>
	add    $0x30,%rsp
	pop    %rbx
	pop    %r12
	pop    %r13
	pop    %r14
	pop    %rbp
	ret
	call   <__stack_chk_fail@plt>
	endbr64
	mov    %rax,%r13
	jmp    <_GLOBAL__sub_I_main.cold+0x40>
	endbr64
	mov    %rax,%r13
	jmp    <_GLOBAL__sub_I_main.cold+0x40>
	endbr64
	mov    %rax,%r13
	jmp    <_GLOBAL__sub_I_main.cold>
	endbr64
	mov    %rax,%r13
	vzeroupper
	jmp    <_GLOBAL__sub_I_main.cold+0x16>
	endbr64
	mov    %rax,%r13
	jmp    <_GLOBAL__sub_I_main.cold+0x40>
	nopw   0x0(%rax,%rax,1)

<_ZNSt7__cxx1112basic_stringIcSt11char_traitsIcESaIcEEC2EPKcRKS3_.constprop.0>:
	push   %r13
	lea    0x10(%rdi),%r13
	push   %r12
	push   %rbp
	push   %rbx
	sub    $0x18,%rsp
	mov    %fs:0x28,%rax
	mov    %rax,0x8(%rsp)
	xor    %eax,%eax
	mov    %r13,(%rdi)
	test   %rsi,%rsi
	je     <_ZNSt7__cxx1112basic_stringIcSt11char_traitsIcESaIcEEC2EPKcRKS3_.constprop.0+0xb4>
	mov    %rdi,%rbx
	mov    %rsi,%rdi
	mov    %rsi,%r12
	call   <strlen@plt>
	mov    %rax,(%rsp)
	mov    %rax,%rbp
	cmp    $0xf,%rax
	ja     <_ZNSt7__cxx1112basic_stringIcSt11char_traitsIcESaIcEEC2EPKcRKS3_.constprop.0+0x84>
	cmp    $0x1,%rax
	jne    <_ZNSt7__cxx1112basic_stringIcSt11char_traitsIcESaIcEEC2EPKcRKS3_.constprop.0+0x7d>
	movzbl (%r12),%eax
	mov    %al,0x10(%rbx)
	mov    (%rsp),%rax
	mov    (%rbx),%rdx
	mov    %rax,0x8(%rbx)
	movb   $0x0,(%rdx,%rax,1)
	mov    0x8(%rsp),%rax
	sub    %fs:0x28,%rax
	jne    <_ZNSt7__cxx1112basic_stringIcSt11char_traitsIcESaIcEEC2EPKcRKS3_.constprop.0+0xaf>
	add    $0x18,%rsp
	pop    %rbx
	pop    %rbp
	pop    %r12
	pop    %r13
	ret
	test   %rax,%rax
	je     <_ZNSt7__cxx1112basic_stringIcSt11char_traitsIcESaIcEEC2EPKcRKS3_.constprop.0+0x53>
	jmp    <_ZNSt7__cxx1112basic_stringIcSt11char_traitsIcESaIcEEC2EPKcRKS3_.constprop.0+0x9f>
	mov    %rsp,%rsi
	xor    %edx,%edx
	mov    %rbx,%rdi
	call   <_ZNSt7__cxx1112basic_stringIcSt11char_traitsIcESaIcEE9_M_createERmm@plt>
	mov    %rax,(%rbx)
	mov    %rax,%r13
	mov    (%rsp),%rax
	mov    %rax,0x10(%rbx)
	mov    %rbp,%rdx
	mov    %r12,%rsi
	mov    %r13,%rdi
	call   <memcpy@plt>
	jmp    <_ZNSt7__cxx1112basic_stringIcSt11char_traitsIcESaIcEEC2EPKcRKS3_.constprop.0+0x53>
	call   <__stack_chk_fail@plt>
	lea    0x54e75(%rip),%rdi        # <_IO_stdin_used+0xd0>
	call   <_ZSt19__throw_logic_errorPKc@plt>

<_GLOBAL__sub_I__ZN9benchmark26FLAGS_benchmark_list_testsE>:
	endbr64
	push   %r13
	lea    0x66733(%rip),%r13        # <_ZN9benchmark24FLAGS_benchmark_min_timeB5cxx11E>
	push   %r12
	lea    0x560cc(%rip),%r12        # <_IO_stdin_used+0x1342>
	push   %rbp
	lea    0x66792(%rip),%rbp        # <_ZStL8__ioinit>
	push   %rbx
	lea    0x65d82(%rip),%rbx        # <__dso_handle>
	sub    $0x48,%rsp
	mov    %fs:0x28,%rax
	mov    %rax,0x38(%rsp)
	xor    %eax,%eax
	call   <_ZN9benchmark8internal17InitializeStreamsEv>
	mov    %rbp,%rdi
	call   <_ZNSt8ios_base4InitC1Ev@plt>
	mov    0x65d3a(%rip),%rdi        # <_ZNSt8ios_base4InitD1Ev@GLIBCXX_3.4>
	mov    %rbx,%rdx
	mov    %rbp,%rsi
	lea    0x66705(%rip),%rbp        # <_ZN9benchmark22FLAGS_benchmark_filterB5cxx11E>
	call   <__cxa_atexit@plt>
	xor    %esi,%esi
	lea    0x56082(%rip),%rdi        # <_IO_stdin_used+0x134b>
	call   <_ZN9benchmark11BoolFromEnvEPKcb>
	mov    %r12,%rsi
	lea    0x56088(%rip),%rdi        # <_IO_stdin_used+0x1360>
	mov    %al,0x66702(%rip)        # <_ZN9benchmark26FLAGS_benchmark_list_testsE>
	call   <_ZN9benchmark13StringFromEnvEPKcS1_>
	mov    %rbp,%rdi
	mov    %rax,%rsi
	call   <_ZNSt7__cxx1112basic_stringIcSt11char_traitsIcESaIcEEC2EPKcRKS3_.constprop.0>
	mov    %rbp,%rsi
	mov    0x65cc0(%rip),%rbp        # <_ZNSt7__cxx1112basic_stringIcSt11char_traitsIcESaIcEED1Ev@GLIBCXX_3.4.21>
	mov    %rbx,%rdx
	mov    %rbp,%rdi
	call   <__cxa_atexit@plt>
	lea    0x56cf6(%rip),%rsi        # <_ZN9benchmarkL18kDefaultMinTimeStrE>
	lea    0x56060(%rip),%rdi        # <_IO_stdin_used+0x1371>
	call   <_ZN9benchmark13StringFromEnvEPKcS1_>
	mov    %r13,%rdi
	mov    %rax,%rsi
	call   <_ZNSt7__cxx1112basic_stringIcSt11char_traitsIcESaIcEEC2EPKcRKS3_.constprop.0>
	mov    %rbx,%rdx
	mov    %r13,%rsi
	mov    %rbp,%rdi
	call   <__cxa_atexit@plt>
	lea    0x5604e(%rip),%rdi        # <_IO_stdin_used+0x1384>
	pxor   %xmm0,%xmm0
	lea    0x6661f(%rip),%r13        # <_ZN9benchmark22FLAGS_benchmark_formatB5cxx11E>
	call   <_ZN9benchmark13DoubleFromEnvEPKcd>
	mov    $0x1,%esi
	lea    0x5604c(%rip),%rdi        # <_IO_stdin_used+0x139e>
	movsd  %xmm0,0x6662e(%rip)        # <_ZN9benchmark31FLAGS_benchmark_min_warmup_timeE>
	call   <_ZN9benchmark12Int32FromEnvEPKci>
	xor    %esi,%esi
	lea    0x5604c(%rip),%rdi        # <_IO_stdin_used+0x13b4>
	mov    %eax,0x66616(%rip)        # <_ZN9benchmark27FLAGS_benchmark_repetitionsE>
	call   <_ZN9benchmark11BoolFromEnvEPKcb>
	xor    %esi,%esi
	lea    0x55174(%rip),%rdi        # <_IO_stdin_used+0x4f0>
	mov    %al,0x66601(%rip)        # <_ZN9benchmark23FLAGS_benchmark_dry_runE>
	call   <_ZN9benchmark11BoolFromEnvEPKcb>
	xor    %esi,%esi
	lea    0x55188(%rip),%rdi        # <_IO_stdin_used+0x518>
	mov    %al,0x665ec(%rip)        # <_ZN9benchmark42FLAGS_benchmark_enable_random_interleavingE>
	call   <_ZN9benchmark11BoolFromEnvEPKcb>
	xor    %esi,%esi
	lea    0x5519c(%rip),%rdi        # <_IO_stdin_used+0x540>
	mov    %al,0x665d7(%rip)        # <_ZN9benchmark38FLAGS_benchmark_report_aggregates_onlyE>
	call   <_ZN9benchmark11BoolFromEnvEPKcb>
	lea    0x55f31(%rip),%rsi        # <_IO_stdin_used+0x12e7>
	lea    0x56009(%rip),%rdi        # <_IO_stdin_used+0x13c6>
	mov    %al,0x665bd(%rip)        # <_ZN9benchmark39FLAGS_benchmark_display_aggregates_onlyE>
	call   <_ZN9benchmark13StringFromEnvEPKcS1_>
	mov    %r13,%rdi
	mov    %rax,%rsi
	call   <_ZNSt7__cxx1112basic_stringIcSt11char_traitsIcESaIcEEC2EPKcRKS3_.constprop.0>
	mov    %rbx,%rdx
	mov    %r13,%rsi
	mov    %rbp,%rdi
	call   <__cxa_atexit@plt>
	lea    0x55f07(%rip),%rsi        # <_IO_stdin_used+0x12ef>
	lea    0x55ff6(%rip),%rdi        # <_IO_stdin_used+0x13e5>
	call   <_ZN9benchmark13StringFromEnvEPKcS1_>
	lea    0x66545(%rip),%r13        # <_ZN9benchmark26FLAGS_benchmark_out_formatB5cxx11E>
	mov    %rax,%rsi
	mov    %r13,%rdi
	call   <_ZNSt7__cxx1112basic_stringIcSt11char_traitsIcESaIcEEC2EPKcRKS3_.constprop.0>
	mov    %rbx,%rdx
	mov    %r13,%rsi
	mov    %rbp,%rdi
	call   <__cxa_atexit@plt>
	mov    %r12,%rsi
	lea    0x55fb9(%rip),%rdi        # <_IO_stdin_used+0x13d7>
	lea    0x664fb(%rip),%r13        # <_ZN9benchmark19FLAGS_benchmark_outB5cxx11E>
	call   <_ZN9benchmark13StringFromEnvEPKcS1_>
	mov    %r13,%rdi
	mov    %rax,%rsi
	call   <_ZNSt7__cxx1112basic_stringIcSt11char_traitsIcESaIcEEC2EPKcRKS3_.constprop.0>
	mov    %rbx,%rdx
	mov    %r13,%rsi
	mov    %rbp,%rdi
	call   <__cxa_atexit@plt>
	lea    0x55ec6(%rip),%rsi        # <_IO_stdin_used+0x1310>
	lea    0x55fa9(%rip),%rdi        # <_IO_stdin_used+0x13fa>
	call   <_ZN9benchmark13StringFromEnvEPKcS1_>
	lea    0x664a3(%rip),%r13        # <_ZN9benchmark21FLAGS_benchmark_colorB5cxx11E>
	mov    %rax,%rsi
	mov    %r13,%rdi
	call   <_ZNSt7__cxx1112basic_stringIcSt11char_traitsIcESaIcEEC2EPKcRKS3_.constprop.0>
	mov    %rbx,%rdx
	mov    %r13,%rsi
	mov    %rbp,%rdi
	call   <__cxa_atexit@plt>
	xor    %esi,%esi
	lea    0x55f8b(%rip),%rdi        # <_IO_stdin_used+0x140a>
	lea    0x6643a(%rip),%r13        # <_ZN9benchmark29FLAGS_benchmark_perf_countersB5cxx11E>
	call   <_ZN9benchmark11BoolFromEnvEPKcb>
	mov    %r12,%rsi
	lea    0x55f90(%rip),%rdi        # <_IO_stdin_used+0x1425>
	mov    %al,0x66445(%rip)        # <_ZN9benchmark32FLAGS_benchmark_counters_tabularE>
	call   <_ZN9benchmark13StringFromEnvEPKcS1_>
	mov    %r13,%rdi
	mov    %rax,%rsi
	call   <_ZNSt7__cxx1112basic_stringIcSt11char_traitsIcESaIcEEC2EPKcRKS3_.constprop.0>
	mov    %r13,%rsi
	mov    %rbx,%rdx
	mov    %rbp,%rdi
	call   <__cxa_atexit@plt>
	lea    0x663c0(%rip),%r13        # <_ZN9benchmark23FLAGS_benchmark_contextB5cxx11E>
	mov    %rsp,%rdx
	lea    0x8(%rsp),%rax
	lea    0x55f6e(%rip),%rsi        # <_IO_stdin_used+0x143d>
	mov    %r13,%rdi
	movl   $0x0,0x8(%rsp)
	movq   $0x0,0x10(%rsp)
	mov    %rax,0x18(%rsp)
	mov    %rax,0x20(%rsp)
	movq   $0x0,0x28(%rsp)
	call   <_ZN9benchmark14KvPairsFromEnvEPKcSt3mapINSt7__cxx1112basic_stringIcSt11char_traitsIcESaIcEEES8_St4lessIS8_ESaISt4pairIKS8_S8_EEE>
	mov    0x10(%rsp),%rdi
	call   <_ZNSt8_Rb_treeINSt7__cxx1112basic_stringIcSt11char_traitsIcESaIcEEESt4pairIKS5_S5_ESt10_Select1stIS8_ESt4lessIS5_ESaIS8_EE8_M_eraseEPSt13_Rb_tree_nodeIS8_E.isra.0>
	mov    %rbx,%rdx
	mov    %r13,%rsi
	lea    0xee8e(%rip),%rdi        # <_ZNSt3mapINSt7__cxx1112basic_stringIcSt11char_traitsIcESaIcEEES5_St4lessIS5_ESaISt4pairIKS5_S5_EEED1Ev>
	call   <__cxa_atexit@plt>
	mov    %r12,%rsi
	lea    0x55f2e(%rip),%rdi        # <_IO_stdin_used+0x144f>
	lea    0x66338(%rip),%r12        # <_ZN9benchmark25FLAGS_benchmark_time_unitB5cxx11E>
	call   <_ZN9benchmark13StringFromEnvEPKcS1_>
	mov    %r12,%rdi
	mov    %rax,%rsi
	call   <_ZNSt7__cxx1112basic_stringIcSt11char_traitsIcESaIcEEC2EPKcRKS3_.constprop.0>
	mov    %rbx,%rdx
	mov    %r12,%rsi
	mov    %rbp,%rdi
	call   <__cxa_atexit@plt>
	xor    %esi,%esi
	lea    0x55da7(%rip),%rdi        # <_IO_stdin_used+0x12f6>
	call   <_ZN9benchmark12Int32FromEnvEPKci>
	mov    %eax,0x662f6(%rip)        # <_ZN9benchmark7FLAGS_vE>
	mov    0x38(%rsp),%rax
	sub    %fs:0x28,%rax
	jne    <_GLOBAL__sub_I__ZN9benchmark26FLAGS_benchmark_list_testsE+0x315>
	add    $0x48,%rsp
	pop    %rbx
	pop    %rbp
	pop    %r12
	pop    %r13
	ret
	call   <__stack_chk_fail@plt>
	endbr64
	mov    %rax,%rbx
	jmp    <_GLOBAL__sub_I__ZN9benchmark26FLAGS_benchmark_list_testsE.cold>
	cs nopw 0x0(%rax,%rax,1)

<_GLOBAL__sub_I__ZNK9benchmark13BenchmarkName3strB5cxx11Ev>:
	endbr64
	jmp    <_ZN9benchmark8internal17InitializeStreamsEv>
	nopl   0x0(%rax)

<_GLOBAL__sub_I__ZN9benchmark8internal17BenchmarkFamilies11GetInstanceEv>:
	endbr64
	push   %rbx
	lea    0x664f4(%rip),%rbx        # <_ZStL8__ioinit>
	mov    %rbx,%rdi
	call   <_ZNSt8ios_base4InitC1Ev@plt>
	mov    0x65a2d(%rip),%rdi        # <_ZNSt8ios_base4InitD1Ev@GLIBCXX_3.4>
	mov    %rbx,%rsi
	lea    0x65a43(%rip),%rdx        # <__dso_handle>
	call   <__cxa_atexit@plt>
	pop    %rbx
	jmp    <_ZN9benchmark8internal17InitializeStreamsEv>

<_GLOBAL__sub_I__ZN9benchmark8internal14memory_managerE>:
	endbr64
	push   %rbx
	lea    0x66524(%rip),%rbx        # <_ZStL8__ioinit>
	call   <_ZN9benchmark8internal17InitializeStreamsEv>
	mov    %rbx,%rdi
	call   <_ZNSt8ios_base4InitC1Ev@plt>
	mov    0x659f8(%rip),%rdi        # <_ZNSt8ios_base4InitD1Ev@GLIBCXX_3.4>
	mov    %rbx,%rsi
	lea    0x65a0e(%rip),%rdx        # <__dso_handle>
	call   <__cxa_atexit@plt>
	xor    %esi,%esi
	lea    0x57556(%rip),%rdi        # <_ZN9benchmarkL18kDefaultMinTimeStrE>
	call   <strtod@plt>
	pop    %rbx
	movsd  %xmm0,0x664e2(%rip)        # <_ZN9benchmark8internal12_GLOBAL__N_1L15kDefaultMinTimeE>
	ret
	nopw   0x0(%rax,%rax,1)

<_GLOBAL__sub_I__ZN9benchmark12FormatStringB5cxx11EPKcP13__va_list_tag>:
	endbr64
	push   %rbx
	lea    0x664d5(%rip),%rbx        # <_ZStL8__ioinit>
	mov    %rbx,%rdi
	call   <_ZNSt8ios_base4InitC1Ev@plt>
	mov    0x659ad(%rip),%rdi        # <_ZNSt8ios_base4InitD1Ev@GLIBCXX_3.4>
	mov    %rbx,%rsi
	pop    %rbx
	lea    0x659c2(%rip),%rdx        # <__dso_handle>
	jmp    <__cxa_atexit@plt>
	nopl   0x0(%rax,%rax,1)

<_GLOBAL__sub_I__ZN9benchmark11BoolFromEnvEPKcb>:
	endbr64
	push   %rbx
	lea    0x664a6(%rip),%rbx        # <_ZStL8__ioinit>
	mov    %rbx,%rdi
	call   <_ZNSt8ios_base4InitC1Ev@plt>
	mov    0x6597d(%rip),%rdi        # <_ZNSt8ios_base4InitD1Ev@GLIBCXX_3.4>
	mov    %rbx,%rsi
	lea    0x65993(%rip),%rdx        # <__dso_handle>
	call   <__cxa_atexit@plt>
	pop    %rbx
	jmp    <_ZN9benchmark8internal17InitializeStreamsEv>

<_GLOBAL__sub_I__ZN9benchmark12FittingCurveENS_4BigOE>:
	endbr64
	push   %rbx
	lea    0x66477(%rip),%rbx        # <_ZStL8__ioinit>
	call   <_ZN9benchmark8internal17InitializeStreamsEv>
	mov    %rbx,%rdi
	call   <_ZNSt8ios_base4InitC1Ev@plt>
	mov    0x65948(%rip),%rdi        # <_ZNSt8ios_base4InitD1Ev@GLIBCXX_3.4>
	mov    %rbx,%rsi
	pop    %rbx
	lea    0x6595d(%rip),%rdx        # <__dso_handle>
	jmp    <__cxa_atexit@plt>

<_GLOBAL__sub_I__ZN9benchmark15ConsoleReporter13ReportContextERKNS_17BenchmarkReporter7ContextE>:
	endbr64
	push   %rbx
	lea    0x66448(%rip),%rbx        # <_ZStL8__ioinit>
	mov    %rbx,%rdi
	call   <_ZNSt8ios_base4InitC1Ev@plt>
	mov    0x6591d(%rip),%rdi        # <_ZNSt8ios_base4InitD1Ev@GLIBCXX_3.4>
	mov    %rbx,%rsi
	lea    0x65933(%rip),%rdx        # <__dso_handle>
	call   <__cxa_atexit@plt>
	pop    %rbx
	jmp    <_ZN9benchmark8internal17InitializeStreamsEv>

<_GLOBAL__sub_I__ZN9benchmark8internal6FinishERKNS_7CounterEldd>:
	endbr64
	jmp    <_ZN9benchmark8internal17InitializeStreamsEv>
	nopl   0x0(%rax)

<_ZNSt7__cxx1112basic_stringIcSt11char_traitsIcESaIcEEC2EPKcRKS3_.constprop.0>:
	push   %r13
	lea    0x10(%rdi),%r13
	push   %r12
	push   %rbp
	push   %rbx
	sub    $0x18,%rsp
	mov    %fs:0x28,%rax
	mov    %rax,0x8(%rsp)
	xor    %eax,%eax
	mov    %r13,(%rdi)
	test   %rsi,%rsi
	je     <_ZNSt7__cxx1112basic_stringIcSt11char_traitsIcESaIcEEC2EPKcRKS3_.constprop.0+0xb4>
	mov    %rdi,%rbx
	mov    %rsi,%rdi
	mov    %rsi,%r12
	call   <strlen@plt>
	mov    %rax,(%rsp)
	mov    %rax,%rbp
	cmp    $0xf,%rax
	ja     <_ZNSt7__cxx1112basic_stringIcSt11char_traitsIcESaIcEEC2EPKcRKS3_.constprop.0+0x84>
	cmp    $0x1,%rax
	jne    <_ZNSt7__cxx1112basic_stringIcSt11char_traitsIcESaIcEEC2EPKcRKS3_.constprop.0+0x7d>
	movzbl (%r12),%eax
	mov    %al,0x10(%rbx)
	mov    (%rsp),%rax
	mov    (%rbx),%rdx
	mov    %rax,0x8(%rbx)
	movb   $0x0,(%rdx,%rax,1)
	mov    0x8(%rsp),%rax
	sub    %fs:0x28,%rax
	jne    <_ZNSt7__cxx1112basic_stringIcSt11char_traitsIcESaIcEEC2EPKcRKS3_.constprop.0+0xaf>
	add    $0x18,%rsp
	pop    %rbx
	pop    %rbp
	pop    %r12
	pop    %r13
	ret
	test   %rax,%rax
	je     <_ZNSt7__cxx1112basic_stringIcSt11char_traitsIcESaIcEEC2EPKcRKS3_.constprop.0+0x53>
	jmp    <_ZNSt7__cxx1112basic_stringIcSt11char_traitsIcESaIcEEC2EPKcRKS3_.constprop.0+0x9f>
	mov    %rsp,%rsi
	xor    %edx,%edx
	mov    %rbx,%rdi
	call   <_ZNSt7__cxx1112basic_stringIcSt11char_traitsIcESaIcEE9_M_createERmm@plt>
	mov    %rax,(%rbx)
	mov    %rax,%r13
	mov    (%rsp),%rax
	mov    %rax,0x10(%rbx)
	mov    %rbp,%rdx
	mov    %r12,%rsi
	mov    %r13,%rdi
	call   <memcpy@plt>
	jmp    <_ZNSt7__cxx1112basic_stringIcSt11char_traitsIcESaIcEEC2EPKcRKS3_.constprop.0+0x53>
	call   <__stack_chk_fail@plt>
	lea    0x54925(%rip),%rdi        # <_IO_stdin_used+0xd0>
	call   <_ZSt19__throw_logic_errorPKc@plt>

<_Z41__static_initialization_and_destruction_0ii.constprop.0>:
	push   %r13
	push   %r12
	push   %rbp
	lea    0x6584c(%rip),%rbp        # <__dso_handle>
	push   %rbx
	lea    0x66364(%rip),%rbx        # <_ZStL8__ioinit>
	mov    %rbx,%rdi
	sub    $0x168,%rsp
	mov    %fs:0x28,%rax
	mov    %rax,0x158(%rsp)
	xor    %eax,%eax
	lea    0x10(%rsp),%r12
	call   <_ZNSt8ios_base4InitC1Ev@plt>
	mov    0x657f6(%rip),%rdi        # <_ZNSt8ios_base4InitD1Ev@GLIBCXX_3.4>
	mov    %rbx,%rsi
	mov    %rbp,%rdx
	call   <__cxa_atexit@plt>
	call   <_ZN9benchmark8internal17InitializeStreamsEv>
	lea    0x5631b(%rip),%rsi        # <_IO_stdin_used+0x1b24>
	mov    %r12,%rdi
	call   <_ZNSt7__cxx1112basic_stringIcSt11char_traitsIcESaIcEEC2EPKcRKS3_.constprop.0>
	lea    0x30(%rsp),%rdi
	lea    0x5630c(%rip),%rsi        # <_IO_stdin_used+0x1b29>
	call   <_ZNSt7__cxx1112basic_stringIcSt11char_traitsIcESaIcEEC2EPKcRKS3_.constprop.0>
	lea    0x50(%rsp),%rdi
	lea    0x56306(%rip),%rsi        # <_IO_stdin_used+0x1b34>
	call   <_ZNSt7__cxx1112basic_stringIcSt11char_traitsIcESaIcEEC2EPKcRKS3_.constprop.0>
	lea    0x70(%rsp),%rdi
	lea    0x562ff(%rip),%rsi        # <_IO_stdin_used+0x1b3e>
	call   <_ZNSt7__cxx1112basic_stringIcSt11char_traitsIcESaIcEEC2EPKcRKS3_.constprop.0>
	lea    0x90(%rsp),%rdi
	lea    0x55c06(%rip),%rsi        # <_IO_stdin_used+0x1459>
	call   <_ZNSt7__cxx1112basic_stringIcSt11char_traitsIcESaIcEEC2EPKcRKS3_.constprop.0>
	lea    0xb0(%rsp),%rdi
	lea    0x562e0(%rip),%rsi        # <_IO_stdin_used+0x1b47>
	call   <_ZNSt7__cxx1112basic_stringIcSt11char_traitsIcESaIcEEC2EPKcRKS3_.constprop.0>
	lea    0xd0(%rsp),%rdi
	lea    0x562dd(%rip),%rsi        # <_IO_stdin_used+0x1b58>
	call   <_ZNSt7__cxx1112basic_stringIcSt11char_traitsIcESaIcEEC2EPKcRKS3_.constprop.0>
	lea    0xf0(%rsp),%rdi
	lea    0x562da(%rip),%rsi        # <_IO_stdin_used+0x1b69>
	call   <_ZNSt7__cxx1112basic_stringIcSt11char_traitsIcESaIcEEC2EPKcRKS3_.constprop.0>
	lea    0x110(%rsp),%rdi
	lea    0x562cc(%rip),%rsi        # <_IO_stdin_used+0x1b6f>
	call   <_ZNSt7__cxx1112basic_stringIcSt11char_traitsIcESaIcEEC2EPKcRKS3_.constprop.0>
	lea    0x130(%rsp),%rbx
	lea    0x562c7(%rip),%rsi        # <_IO_stdin_used+0x1b7e>
	mov    %rbx,%rdi
	call   <_ZNSt7__cxx1112basic_stringIcSt11char_traitsIcESaIcEEC2EPKcRKS3_.constprop.0>
	lea    0x6624a(%rip),%r13        # <_ZN9benchmark12_GLOBAL__N_18elementsE>
	lea    0xf(%rsp),%rcx
	mov    %r12,%rsi
	mov    $0xa,%edx
	mov    %r13,%rdi
	call   <_ZNSt6vectorINSt7__cxx1112basic_stringIcSt11char_traitsIcESaIcEEESaIS5_EEC2ESt16initializer_listIS5_ERKS6_>
	jmp    <_Z41__static_initialization_and_destruction_0ii.constprop.0+0x130>
	mov    %rax,%rbx
	mov    %rbx,%rdi
	call   <_ZNSt7__cxx1112basic_stringIcSt11char_traitsIcESaIcEE10_M_disposeEv>
	lea    -0x20(%rbx),%rax
	cmp    %r12,%rbx
	jne    <_Z41__static_initialization_and_destruction_0ii.constprop.0+0x12d>
	mov    0x158(%rsp),%rax
	sub    %fs:0x28,%rax
	jne    <_Z41__static_initialization_and_destruction_0ii.constprop.0+0x173>
	add    $0x168,%rsp
	mov    %rbp,%rdx
	mov    %r13,%rsi
	pop    %rbx
	lea    0xf167(%rip),%rdi        # <_ZNSt6vectorINSt7__cxx1112basic_stringIcSt11char_traitsIcESaIcEEESaIS5_EED2Ev>
	pop    %rbp
	pop    %r12
	pop    %r13
	jmp    <__cxa_atexit@plt>
	call   <__stack_chk_fail@plt>
	endbr64
	mov    %rax,%rbx
	jmp    <_Z41__static_initialization_and_destruction_0ii.constprop.0.cold>
	endbr64
	mov    %rax,%rbx
	jmp    <_Z41__static_initialization_and_destruction_0ii.constprop.0.cold+0x3a>
	endbr64
	mov    %rax,%rbx
	jmp    <_Z41__static_initialization_and_destruction_0ii.constprop.0.cold+0x3e>
	endbr64
	mov    %rax,%rbx
	jmp    <_Z41__static_initialization_and_destruction_0ii.constprop.0.cold+0x45>
	endbr64
	mov    %rax,%rbx
	jmp    <_Z41__static_initialization_and_destruction_0ii.constprop.0.cold+0x4c>
	endbr64
	mov    %rax,%rbx
	jmp    <_Z41__static_initialization_and_destruction_0ii.constprop.0.cold+0x53>
	endbr64
	mov    %rax,%rbx
	jmp    <_Z41__static_initialization_and_destruction_0ii.constprop.0.cold+0x5a>
	endbr64
	mov    %rax,%rbx
	jmp    <_Z41__static_initialization_and_destruction_0ii.constprop.0.cold+0x61>
	endbr64
	mov    %rax,%rbx
	jmp    <_Z41__static_initialization_and_destruction_0ii.constprop.0.cold+0x19>
	endbr64
	mov    %rax,%rbx
	jmp    <_Z41__static_initialization_and_destruction_0ii.constprop.0.cold+0x68>
	endbr64
	mov    %rax,%rbx
	jmp    <_Z41__static_initialization_and_destruction_0ii.constprop.0.cold+0x6f>
	nopl   0x0(%rax)

<_GLOBAL__sub_I__ZN9benchmark9CsvEscapeERKNSt7__cxx1112basic_stringIcSt11char_traitsIcESaIcEEE>:
	endbr64
	jmp    <_Z41__static_initialization_and_destruction_0ii.constprop.0>
	nopl   0x0(%rax)

<_GLOBAL__sub_I__ZN9benchmark12JSONReporter13ReportContextERKNS_17BenchmarkReporter7ContextE>:
	endbr64
	push   %rbx
	lea    0x6615d(%rip),%rbx        # <_ZStL8__ioinit>
	mov    %rbx,%rdi
	call   <_ZNSt8ios_base4InitC1Ev@plt>
	mov    0x6560d(%rip),%rdi        # <_ZNSt8ios_base4InitD1Ev@GLIBCXX_3.4>
	mov    %rbx,%rsi
	lea    0x65623(%rip),%rdx        # <__dso_handle>
	call   <__cxa_atexit@plt>
	pop    %rbx
	jmp    <_ZN9benchmark8internal17InitializeStreamsEv>

<_GLOBAL__sub_I__ZN9benchmark8internal17PerfCounterValues12kMaxCountersE>:
	endbr64
	push   %rbx
	lea    0x6613d(%rip),%rbx        # <_ZStL8__ioinit>
	call   <_ZN9benchmark8internal17InitializeStreamsEv>
	mov    %rbx,%rdi
	call   <_ZNSt8ios_base4InitC1Ev@plt>
	mov    0x655d8(%rip),%rdi        # <_ZNSt8ios_base4InitD1Ev@GLIBCXX_3.4>
	mov    %rbx,%rsi
	pop    %rbx
	lea    0x655ed(%rip),%rdx        # <__dso_handle>
	jmp    <__cxa_atexit@plt>

<_GLOBAL__sub_I__ZN9benchmark17BenchmarkReporterC2Ev>:
	endbr64
	push   %rbx
	lea    0x6611c(%rip),%rbx        # <_ZStL8__ioinit>
	mov    %rbx,%rdi
	call   <_ZNSt8ios_base4InitC1Ev@plt>
	mov    0x655ad(%rip),%rdi        # <_ZNSt8ios_base4InitD1Ev@GLIBCXX_3.4>
	mov    %rbx,%rsi
	lea    0x655c3(%rip),%rdx        # <__dso_handle>
	call   <__cxa_atexit@plt>
	pop    %rbx
	jmp    <_ZN9benchmark8internal17InitializeStreamsEv>

<_GLOBAL__sub_I__ZN9benchmark13StatisticsSumE>:
	endbr64
	push   %rbx
	lea    0x660f1(%rip),%rbx        # <_ZStL8__ioinit>
	call   <_ZN9benchmark8internal17InitializeStreamsEv>
	mov    %rbx,%rdi
	call   <_ZNSt8ios_base4InitC1Ev@plt>
	mov    0x65578(%rip),%rdi        # <_ZNSt8ios_base4InitD1Ev@GLIBCXX_3.4>
	mov    %rbx,%rsi
	pop    %rbx
	lea    0x6558d(%rip),%rdx        # <__dso_handle>
	jmp    <__cxa_atexit@plt>

<_GLOBAL__sub_I__ZN9benchmark19HumanReadableNumberB5cxx11EdNS_7Counter4OneKE>:
	endbr64
	push   %rbx
	lea    0x660c2(%rip),%rbx        # <_ZStL8__ioinit>
	call   <_ZN9benchmark8internal17InitializeStreamsEv>
	mov    %rbx,%rdi
	call   <_ZNSt8ios_base4InitC1Ev@plt>
	mov    0x65548(%rip),%rdi        # <_ZNSt8ios_base4InitD1Ev@GLIBCXX_3.4>
	mov    %rbx,%rsi
	pop    %rbx
	lea    0x6555d(%rip),%rdx        # <__dso_handle>
	jmp    <__cxa_atexit@plt>

<_GLOBAL__sub_I__ZN9benchmark7CPUInfo3GetEv>:
	endbr64
	push   %rbx
	lea    0x660b4(%rip),%rbx        # <_ZStL8__ioinit>
	mov    %rbx,%rdi
	call   <_ZNSt8ios_base4InitC1Ev@plt>
	mov    0x6551d(%rip),%rdi        # <_ZNSt8ios_base4InitD1Ev@GLIBCXX_3.4>
	mov    %rbx,%rsi
	lea    0x65533(%rip),%rdx        # <__dso_handle>
	call   <__cxa_atexit@plt>
	pop    %rbx
	jmp    <_ZN9benchmark8internal17InitializeStreamsEv>

<_GLOBAL__sub_I__ZN9benchmark15ProcessCPUUsageEv>:
	endbr64
	push   %rbx
	lea    0x66085(%rip),%rbx        # <_ZStL8__ioinit>
	mov    %rbx,%rdi
	call   <_ZNSt8ios_base4InitC1Ev@plt>
	mov    0x654ed(%rip),%rdi        # <_ZNSt8ios_base4InitD1Ev@GLIBCXX_3.4>
	mov    %rbx,%rsi
	lea    0x65503(%rip),%rdx        # <__dso_handle>
	call   <__cxa_atexit@plt>
	pop    %rbx
	jmp    <_ZN9benchmark8internal17InitializeStreamsEv>

<_GLOBAL__sub_I__ZN9benchmark8internal17BenchmarkInstanceC2EPNS0_9BenchmarkEiiRKSt6vectorIlSaIlEEi>:
	endbr64
	push   %rbx
	lea    0x66056(%rip),%rbx        # <_ZStL8__ioinit>
	call   <_ZN9benchmark8internal17InitializeStreamsEv>
	mov    %rbx,%rdi
	call   <_ZNSt8ios_base4InitC1Ev@plt>
	mov    0x654b8(%rip),%rdi        # <_ZNSt8ios_base4InitD1Ev@GLIBCXX_3.4>
	mov    %rbx,%rsi
	pop    %rbx
	lea    0x654cd(%rip),%rdx        # <__dso_handle>
	jmp    <__cxa_atexit@plt>

<_start>:
	endbr64
	xor    %ebp,%ebp
	mov    %rdx,%r9
	pop    %rsi
	mov    %rsp,%rdx
	and    $0xfffffffffffffff0,%rsp
	push   %rax
	push   %rsp
	xor    %r8d,%r8d
	xor    %ecx,%ecx
	lea    -0xb9f(%rip),%rdi        # <main>
	call   *0x6545b(%rip)        # <__libc_start_main@GLIBC_2.34>
	hlt
	cs nopw 0x0(%rax,%rax,1)

<deregister_tm_clones>:
	lea    0x658b1(%rip),%rdi        # <__TMC_END__>
	lea    0x658aa(%rip),%rax        # <__TMC_END__>
	cmp    %rdi,%rax
	je     <deregister_tm_clones+0x28>
	mov    0x65446(%rip),%rax        # <_ITM_deregisterTMCloneTable@Base>
	test   %rax,%rax
	je     <deregister_tm_clones+0x28>
	jmp    *%rax
	nopl   0x0(%rax)
	ret
	nopl   0x0(%rax)

<register_tm_clones>:
	lea    0x65881(%rip),%rdi        # <__TMC_END__>
	lea    0x6587a(%rip),%rsi        # <__TMC_END__>
	sub    %rdi,%rsi
	mov    %rsi,%rax
	shr    $0x3f,%rsi
	sar    $0x3,%rax
	add    %rax,%rsi
	sar    $1,%rsi
	je     <register_tm_clones+0x38>
	mov    0x65415(%rip),%rax        # <_ITM_registerTMCloneTable@Base>
	test   %rax,%rax
	je     <register_tm_clones+0x38>
	jmp    *%rax
	nopw   0x0(%rax,%rax,1)
	ret
	nopl   0x0(%rax)

<__do_global_dtors_aux>:
	endbr64
	cmpb   $0x0,0x65c45(%rip)        # <completed.0>
	jne    <__do_global_dtors_aux+0x38>
	push   %rbp
	cmpq   $0x0,0x653ba(%rip)        # <__cxa_finalize@GLIBC_2.2.5>
	mov    %rsp,%rbp
	je     <__do_global_dtors_aux+0x27>
	mov    0x65406(%rip),%rdi        # <__dso_handle>
	call   <__cxa_finalize@plt>
	call   <deregister_tm_clones>
	movb   $0x1,0x65c1d(%rip)        # <completed.0>
	pop    %rbp
	ret
	nopl   (%rax)
	ret
	nopl   0x0(%rax)

<frame_dummy>:
	endbr64
	jmp    <register_tm_clones>
	cs nopw 0x0(%rax,%rax,1)
	cs nopw 0x0(%rax,%rax,1)
	nopl   (%rax)

<_Z18BM_ComputeBoundSoAI7SoA2VecIdLm10000000EEEvRN9benchmark5StateE>:
	endbr64
	lea    0x8(%rsp),%r10
	and    $0xffffffffffffffc0,%rsp
	push   -0x8(%r10)
	push   %rbp
	mov    %rsp,%rbp
	push   %r15
	push   %r14
	push   %r13
	push   %r12
	push   %r10
	push   %rbx
	sub    $0x1000,%rsp
	orq    $0x0,(%rsp)
	sub    $0x1000,%rsp
	orq    $0x0,(%rsp)
	sub    $0x940,%rsp
	mov    %rdi,-0x2900(%rbp)
	mov    $0x4c4b400,%edi
	mov    %fs:0x28,%rax
	mov    %rax,-0x38(%rbp)
	xor    %eax,%eax
	movq   $0x0,-0x28a8(%rbp)
	movq   $0x0,-0x2868(%rbp)
	movq   $0x0,-0x2828(%rbp)
	movq   $0x0,-0x27e8(%rbp)
	call   <_Znwm@plt>
	xor    %esi,%esi
	mov    %rax,%rdi
	lea    0x4c4b400(%rax),%rbx
	mov    $0x4c4b400,%edx
	call   <memset@plt>
	lea    -0x28b0(%rbp),%rdi
	xor    %esi,%esi
	movq   $0x0,-0x28b0(%rbp)
	vmovq  %rax,%xmm7
	movq   $0x0,-0x28a0(%rbp)
	vpinsrq $0x1,%rbx,%xmm7,%xmm0
	movq   $0x0,-0x2870(%rbp)
	movq   $0x0,-0x2860(%rbp)
	movq   $0x0,-0x2830(%rbp)
	movq   $0x0,-0x2820(%rbp)
	movq   $0x0,-0x27f0(%rbp)
	movq   $0x0,-0x27e0(%rbp)
	mov    %rbx,-0x27a0(%rbp)
	vmovdqa %xmm0,-0x27b0(%rbp)
	call   <_Z23initialize_and_generateIdLm10000000EEvRSt6vectorIT_SaIS1_EEi>
	lea    -0x2870(%rbp),%rdi
	mov    $0x1,%esi
	call   <_Z23initialize_and_generateIdLm10000000EEvRSt6vectorIT_SaIS1_EEi>
	lea    -0x2830(%rbp),%rdi
	mov    $0x1,%esi
	call   <_Z23initialize_and_generateIdLm10000000EEvRSt6vectorIT_SaIS1_EEi>
	lea    -0x27f0(%rbp),%rdi
	mov    $0x2,%esi
	call   <_Z23initialize_and_generateIdLm10000000EEvRSt6vectorIT_SaIS1_EEi>
	mov    -0x28a0(%rbp),%rax
	lea    -0x13c0(%rbp),%rbx
	mov    -0x28b0(%rbp),%r13
	movl   $0x61666564,-0x13b0(%rbp)
	mov    %rbx,%rsi
	mov    -0x2870(%rbp),%r12
	mov    -0x2830(%rbp),%r14
	movl   $0x746c7561,-0x13ad(%rbp)
	mov    %rax,-0x2958(%rbp)
	mov    -0x2860(%rbp),%rax
	movq   $0x7,-0x13b8(%rbp)
	mov    -0x27f0(%rbp),%r15
	mov    %rax,-0x2950(%rbp)
	mov    -0x2820(%rbp),%rax
	movb   $0x0,-0x13a9(%rbp)
	mov    %rax,-0x2960(%rbp)
	mov    -0x27e0(%rbp),%rax
	mov    %rax,-0x2940(%rbp)
	mov    -0x27b0(%rbp),%rax
	mov    %rax,-0x2928(%rbp)
	mov    -0x27a8(%rbp),%rax
	mov    %rax,-0x2930(%rbp)
	mov    -0x27a0(%rbp),%rax
	mov    %rax,-0x2948(%rbp)
	lea    -0x13b0(%rbp),%rax
	mov    %rax,-0x13c0(%rbp)
	mov    %rax,-0x28f0(%rbp)
	lea    -0x2750(%rbp),%rax
	mov    %rax,%rdi
	mov    %rax,-0x2938(%rbp)
	call   <_ZNSt13random_device7_M_initERKNSt7__cxx1112basic_stringIcSt11char_traitsIcESaIcEEE@plt>
	mov    -0x13c0(%rbp),%rdi
	mov    -0x28f0(%rbp),%rax
	cmp    %rax,%rdi
	je     <_Z18BM_ComputeBoundSoAI7SoA2VecIdLm10000000EEEvRN9benchmark5StateE+0x250>
	mov    -0x13b0(%rbp),%rax
	lea    0x1(%rax),%rsi
	call   <_ZdlPvm@plt>
	movq   $0x7b,-0x13c0(%rbp)
	mov    $0x7b,%eax
	mov    $0x1,%ecx
	mov    %rax,%rdx
	data16 cs nopw 0x0(%rax,%rax,1)
	data16 cs nopw 0x0(%rax,%rax,1)
	xchg   %ax,%ax
	mov    %rdx,%rax
	shr    $0x1e,%rax
	xor    %rdx,%rax
	imul   $0x6c078965,%rax,%rax
	lea    (%rax,%rcx,1),%edx
	mov    %rdx,(%rbx,%rcx,8)
	inc    %rcx
	cmp    $0x270,%rcx
	jne    <_Z18BM_ComputeBoundSoAI7SoA2VecIdLm10000000EEEvRN9benchmark5StateE+0x280>
	mov    -0x2900(%rbp),%rax
	movq   $0x270,-0x40(%rbp)
	mov    %rax,%rdi
	mov    0x1c(%rax),%eax
	test   %eax,%eax
	je     <_Z18BM_ComputeBoundSoAI7SoA2VecIdLm10000000EEEvRN9benchmark5StateE+0x558>
	call   <_ZN9benchmark5State16StartKeepRunningEv>
	mov    -0x2900(%rbp),%rdi
	call   <_ZN9benchmark5State17FinishKeepRunningEv>
	mov    -0x2930(%rbp),%rax
	mov    -0x2928(%rbp),%rsi
	sub    %rsi,%rax
	sar    $0x3,%rax
	js     <_Z18BM_ComputeBoundSoAI7SoA2VecIdLm10000000EEEvRN9benchmark5StateE+0x9d6>
	vxorpd %xmm7,%xmm7,%xmm7
	vcvtsi2sd %rax,%xmm7,%xmm0
	vmovlpd %xmm0,-0x2908(%rbp)
	lea    -0x2760(%rbp),%rax
	movl   $0x657a6973,-0x2760(%rbp)
	mov    %rax,-0x28f0(%rbp)
	mov    %rax,-0x2770(%rbp)
	mov    -0x2900(%rbp),%rax
	movq   $0x4,-0x2768(%rbp)
	mov    0x50(%rax),%rbx
	lea    0x48(%rax),%rdx
	movb   $0x0,-0x275c(%rbp)
	mov    %rdx,%r9
	test   %rbx,%rbx
	je     <_Z18BM_ComputeBoundSoAI7SoA2VecIdLm10000000EEEvRN9benchmark5StateE+0x42f>
	mov    %r15,-0x28c8(%rbp)
	mov    %rdx,%r15
	mov    %r12,-0x28d0(%rbp)
	mov    %rdx,-0x28f8(%rbp)
	jmp    <_Z18BM_ComputeBoundSoAI7SoA2VecIdLm10000000EEEvRN9benchmark5StateE+0x3b6>
	nopl   0x0(%rax)
	mov    $0x4,%edx
	mov    0x20(%rbx),%rdi
	mov    -0x28f0(%rbp),%rsi
	cmp    %rdx,%r12
	cmovbe %r12,%rdx
	call   <memcmp@plt>
	test   %eax,%eax
	jne    <_Z18BM_ComputeBoundSoAI7SoA2VecIdLm10000000EEEvRN9benchmark5StateE+0x3a6>
	lea    -0x4(%r12),%rax
	mov    $0x80000000,%edi
	cmp    %rdi,%rax
	jge    <_Z18BM_ComputeBoundSoAI7SoA2VecIdLm10000000EEEvRN9benchmark5StateE+0x3aa>
	movabs $0xffffffff7fffffff,%rsi
	cmp    %rsi,%rax
	jle    <_Z18BM_ComputeBoundSoAI7SoA2VecIdLm10000000EEEvRN9benchmark5StateE+0x3bf>
	test   %eax,%eax
	js     <_Z18BM_ComputeBoundSoAI7SoA2VecIdLm10000000EEEvRN9benchmark5StateE+0x3bf>
	mov    %rbx,%r15
	mov    0x10(%rbx),%rbx
	test   %rbx,%rbx
	je     <_Z18BM_ComputeBoundSoAI7SoA2VecIdLm10000000EEEvRN9benchmark5StateE+0x3c8>
	mov    0x28(%rbx),%r12
	test   %r12,%r12
	jne    <_Z18BM_ComputeBoundSoAI7SoA2VecIdLm10000000EEEvRN9benchmark5StateE+0x368>
	mov    0x18(%rbx),%rbx
	test   %rbx,%rbx
	jne    <_Z18BM_ComputeBoundSoAI7SoA2VecIdLm10000000EEEvRN9benchmark5StateE+0x3b6>
	mov    -0x28f8(%rbp),%rdx
	mov    %r15,%r9
	mov    -0x28d0(%rbp),%r12
	mov    -0x28c8(%rbp),%r15
	cmp    %r9,%rdx
	je     <_Z18BM_ComputeBoundSoAI7SoA2VecIdLm10000000EEEvRN9benchmark5StateE+0x42f>
	mov    0x28(%r9),%rbx
	test   %rbx,%rbx
	je     <_Z18BM_ComputeBoundSoAI7SoA2VecIdLm10000000EEEvRN9benchmark5StateE+0xa60>
	mov    $0x4,%eax
	mov    0x20(%r9),%rsi
	mov    -0x28f0(%rbp),%rdi
	mov    %r9,-0x28c8(%rbp)
	cmp    %rax,%rbx
	cmovbe %rbx,%rax
	mov    %rax,%rdx
	call   <memcmp@plt>
	mov    -0x28c8(%rbp),%r9
	test   %eax,%eax
	je     <_Z18BM_ComputeBoundSoAI7SoA2VecIdLm10000000EEEvRN9benchmark5StateE+0xa35>
	test   %eax,%eax
	jns    <_Z18BM_ComputeBoundSoAI7SoA2VecIdLm10000000EEEvRN9benchmark5StateE+0xa60>
	mov    -0x2900(%rbp),%rdi
	lea    -0x2770(%rbp),%rax
	lea    -0x28b8(%rbp),%rcx
	mov    %r9,%rsi
	lea    -0x28b9(%rbp),%r8
	lea    0x55e2c(%rip),%rdx        # <_ZSt19piecewise_construct>
	mov    %rax,-0x28c8(%rbp)
	add    $0x40,%rdi
	mov    %rax,-0x28b8(%rbp)
	call   <_ZNSt8_Rb_treeINSt7__cxx1112basic_stringIcSt11char_traitsIcESaIcEEESt4pairIKS5_N9benchmark7CounterEESt10_Select1stISA_ESt4lessIS5_ESaISA_EE22_M_emplace_hint_uniqueIJRKSt21piecewise_construct_tSt5tupleIJOS5_EESL_IJEEEEESt17_Rb_tree_iteratorISA_ESt23_Rb_tree_const_iteratorISA_EDpOT_>
	vmovsd -0x2908(%rbp),%xmm7
	movabs $0x3e800000000,%rsi
	mov    -0x2770(%rbp),%rdi
	mov    %rsi,0x48(%rax)
	vmovsd %xmm7,0x40(%rax)
	mov    -0x28f0(%rbp),%rax
	cmp    %rax,%rdi
	je     <_Z18BM_ComputeBoundSoAI7SoA2VecIdLm10000000EEEvRN9benchmark5StateE+0x4aa>
	mov    -0x2760(%rbp),%rax
	lea    0x1(%rax),%rsi
	call   <_ZdlPvm@plt>
	mov    -0x2938(%rbp),%rdi
	call   <_ZNSt13random_device7_M_finiEv@plt>
	mov    -0x2928(%rbp),%rdi
	test   %rdi,%rdi
	je     <_Z18BM_ComputeBoundSoAI7SoA2VecIdLm10000000EEEvRN9benchmark5StateE+0x4d1>
	mov    -0x2948(%rbp),%rsi
	sub    %rdi,%rsi
	call   <_ZdlPvm@plt>
	test   %r15,%r15
	je     <_Z18BM_ComputeBoundSoAI7SoA2VecIdLm10000000EEEvRN9benchmark5StateE+0x4e8>
	mov    -0x2940(%rbp),%rsi
	mov    %r15,%rdi
	sub    %r15,%rsi
	call   <_ZdlPvm@plt>
	test   %r14,%r14
	je     <_Z18BM_ComputeBoundSoAI7SoA2VecIdLm10000000EEEvRN9benchmark5StateE+0x4ff>
	mov    -0x2960(%rbp),%rsi
	mov    %r14,%rdi
	sub    %r14,%rsi
	call   <_ZdlPvm@plt>
	test   %r12,%r12
	je     <_Z18BM_ComputeBoundSoAI7SoA2VecIdLm10000000EEEvRN9benchmark5StateE+0x516>
	mov    -0x2950(%rbp),%rsi
	mov    %r12,%rdi
	sub    %r12,%rsi
	call   <_ZdlPvm@plt>
	test   %r13,%r13
	je     <_Z18BM_ComputeBoundSoAI7SoA2VecIdLm10000000EEEvRN9benchmark5StateE+0x52d>
	mov    -0x2958(%rbp),%rsi
	mov    %r13,%rdi
	sub    %r13,%rsi
	call   <_ZdlPvm@plt>
	mov    -0x38(%rbp),%rax
	sub    %fs:0x28,%rax
	jne    <_Z18BM_ComputeBoundSoAI7SoA2VecIdLm10000000EEEvRN9benchmark5StateE+0xaa0>
	add    $0x2940,%rsp
	pop    %rbx
	pop    %r10
	pop    %r12
	pop    %r13
	pop    %r14
	pop    %r15
	pop    %rbp
	lea    -0x8(%r10),%rsp
	ret
	mov    0x10(%rdi),%rax
	mov    %rax,-0x28f0(%rbp)
	call   <_ZN9benchmark5State16StartKeepRunningEv>
	mov    -0x28f0(%rbp),%rax
	test   %rax,%rax
	je     <_Z18BM_ComputeBoundSoAI7SoA2VecIdLm10000000EEEvRN9benchmark5StateE+0x2c6>
	mov    -0x2928(%rbp),%rsi
	mov    -0x2930(%rbp),%rdi
	mov    %rax,-0x28d0(%rbp)
	movabs $0x7ffffffffffffff8,%rax
	sub    %rsi,%rdi
	mov    %rdi,%rsi
	mov    %rdi,-0x2920(%rbp)
	sar    $0x3,%rsi
	mov    %rsi,-0x2918(%rbp)
	cmp    %rdi,%rax
	jb     <_Z18BM_ComputeBoundSoAI7SoA2VecIdLm10000000EEEvRN9benchmark5StateE.cold+0xd4>
	mov    $0x8,%eax
	vmovd  %eax,%xmm7
	vpbroadcastd %xmm7,%ymm7
	vmovdqa %ymm7,-0x28f0(%rbp)
	vzeroupper
	cmpq   $0x0,-0x2918(%rbp)
	je     <_Z18BM_ComputeBoundSoAI7SoA2VecIdLm10000000EEEvRN9benchmark5StateE+0x9a8>
	nop
	mov    -0x2920(%rbp),%rdi
	call   <_Znwm@plt>
	cmpq   $0x1,-0x2918(%rbp)
	mov    %rax,-0x28c8(%rbp)
	mov    %rax,%rsi
	lea    0x8(%rax),%r8
	movq   $0x0,(%rax)
	je     <_Z18BM_ComputeBoundSoAI7SoA2VecIdLm10000000EEEvRN9benchmark5StateE+0x632>
	mov    -0x2920(%rbp),%rax
	lea    (%rsi,%rax,1),%rdi
	lea    -0x8(%rax),%rdx
	xor    %esi,%esi
	mov    %rdi,-0x28f8(%rbp)
	mov    %r8,%rdi
	call   <memset@plt>
	mov    -0x28f8(%rbp),%r8
	mov    -0x28c8(%rbp),%rax
	cmp    %rax,%r8
	je     <_Z18BM_ComputeBoundSoAI7SoA2VecIdLm10000000EEEvRN9benchmark5StateE+0x9b3>
	mov    %rax,%r10
	mov    %rax,%rcx
	mov    %r8,%rax
	sub    %r10,%rax
	sub    $0x8,%rax
	mov    %rax,%rsi
	shr    $0x3,%rsi
	lea    0x1(%rsi),%rdi
	cmp    $0x30,%rax
	jbe    <_Z18BM_ComputeBoundSoAI7SoA2VecIdLm10000000EEEvRN9benchmark5StateE+0xa29>
	mov    %rdi,%rdx
	vmovdqa 0x55c2e(%rip),%ymm2        # <_ZSt19piecewise_construct+0x1f>
	mov    %r10,%rax
	shr    $0x3,%rdx
	shl    $0x6,%rdx
	add    %r10,%rdx
	vmovdqa %ymm2,%ymm0
	add    $0x40,%rax
	vpaddd -0x28f0(%rbp),%ymm2,%ymm2
	vpmovsxdq %xmm0,%ymm1
	vextracti128 $0x1,%ymm0,%xmm0
	vpmovsxdq %xmm0,%ymm0
	vmovdqu %ymm1,-0x40(%rax)
	vmovdqu %ymm0,-0x20(%rax)
	cmp    %rdx,%rax
	jne    <_Z18BM_ComputeBoundSoAI7SoA2VecIdLm10000000EEEvRN9benchmark5StateE+0x680>
	mov    -0x28c8(%rbp),%rax
	mov    %rdi,%rdx
	and    $0xfffffffffffffff8,%rdx
	and    $0x7,%edi
	lea    (%rax,%rdx,8),%r9
	mov    %edx,%eax
	je     <_Z18BM_ComputeBoundSoAI7SoA2VecIdLm10000000EEEvRN9benchmark5StateE+0xa21>
	vzeroupper
	sub    %rdx,%rsi
	lea    0x1(%rsi),%rdi
	cmp    $0x2,%rsi
	jbe    <_Z18BM_ComputeBoundSoAI7SoA2VecIdLm10000000EEEvRN9benchmark5StateE+0x722>
	vmovd  %eax,%xmm7
	mov    -0x28c8(%rbp),%rsi
	vpbroadcastd %xmm7,%xmm0
	vpaddd 0x55bac(%rip),%xmm0,%xmm0        # <_ZSt19piecewise_construct+0x1f>
	lea    (%rsi,%rdx,8),%rdx
	vpmovsxdq %xmm0,%xmm1
	vpsrldq $0x8,%xmm0,%xmm0
	vpmovsxdq %xmm0,%xmm0
	vmovdqu %xmm1,(%rdx)
	vmovdqu %xmm0,0x10(%rdx)
	mov    %rdi,%rdx
	and    $0xfffffffffffffffc,%rdx
	add    %edx,%eax
	and    $0x3,%edi
	lea    (%r9,%rdx,8),%r9
	je     <_Z18BM_ComputeBoundSoAI7SoA2VecIdLm10000000EEEvRN9benchmark5StateE+0x735>
	movslq %eax,%rdx
	mov    %rdx,(%r9)
	lea    0x8(%r9),%rdx
	cmp    %rdx,%r8
	jne    <_Z18BM_ComputeBoundSoAI7SoA2VecIdLm10000000EEEvRN9benchmark5StateE+0x9fc>
	mov    -0x28c8(%rbp),%rdi
	mov    %rbx,%rdx
	mov    %r8,%rsi
	mov    %rcx,-0x2910(%rbp)
	mov    %r8,-0x2908(%rbp)
	call   <_ZSt7shuffleIN9__gnu_cxx17__normal_iteratorIPmSt6vectorImSaImEEEERSt23mersenne_twister_engineImLm32ELm624ELm397ELm31ELm2567483615ELm11ELm4294967295ELm7ELm2636928640ELm15ELm4022730752ELm18ELm1812433253EEEvT_SA_OT0_>
	call   <_ZNSt6chrono3_V212steady_clock3nowEv@plt>
	mov    -0x2928(%rbp),%rdx
	mov    -0x2908(%rbp),%r8
	mov    %rax,-0x28f8(%rbp)
	mov    -0x2910(%rbp),%rcx
	cs nopw 0x0(%rax,%rax,1)
	mov    (%rcx),%rax
	add    $0x8,%rcx
	vmovsd (%r12,%rax,8),%xmm3
	vmovsd 0x0(%r13,%rax,8),%xmm5
	vmovsd (%r14,%rax,8),%xmm6
	vmovsd (%r15,%rax,8),%xmm4
	vaddsd %xmm5,%xmm3,%xmm8
	vaddsd %xmm6,%xmm3,%xmm2
	vsubsd %xmm5,%xmm4,%xmm11
	vsubsd %xmm6,%xmm3,%xmm12
	vaddsd %xmm5,%xmm4,%xmm10
	vsubsd %xmm6,%xmm4,%xmm9
	vaddsd %xmm4,%xmm6,%xmm7
	vmulsd %xmm2,%xmm11,%xmm0
	vmulsd %xmm11,%xmm12,%xmm1
	vdivsd %xmm11,%xmm12,%xmm13
	vfmadd132sd 0x55b45(%rip),%xmm0,%xmm1        # <_ZSt19piecewise_construct+0x97>
	vaddsd %xmm1,%xmm0,%xmm0
	vsubsd %xmm5,%xmm3,%xmm1
	vfmadd231sd %xmm10,%xmm2,%xmm0
	vfmadd231sd %xmm10,%xmm2,%xmm0
	vdivsd %xmm12,%xmm11,%xmm12
	vfmadd231sd %xmm1,%xmm1,%xmm0
	vfmadd231sd %xmm9,%xmm9,%xmm0
	vfmadd231sd %xmm8,%xmm8,%xmm0
	vfmadd231sd %xmm7,%xmm7,%xmm0
	vdivsd %xmm9,%xmm9,%xmm9
	vfmadd231sd %xmm1,%xmm1,%xmm0
	vsubsd %xmm13,%xmm0,%xmm0
	vsubsd %xmm12,%xmm0,%xmm0
	vdivsd %xmm11,%xmm2,%xmm12
	vdivsd %xmm2,%xmm11,%xmm11
	vsubsd %xmm12,%xmm0,%xmm0
	vdivsd %xmm1,%xmm1,%xmm1
	vsubsd %xmm11,%xmm0,%xmm0
	vdivsd %xmm10,%xmm2,%xmm11
	vdivsd %xmm2,%xmm10,%xmm2
	vsubsd %xmm11,%xmm0,%xmm0
	vdivsd %xmm8,%xmm8,%xmm8
	vsubsd %xmm2,%xmm0,%xmm0
	vsubsd %xmm1,%xmm0,%xmm0
	vsubsd %xmm9,%xmm0,%xmm0
	vdivsd %xmm7,%xmm7,%xmm7
	vsubsd %xmm8,%xmm0,%xmm0
	vdivsd %xmm6,%xmm4,%xmm1
	vsubsd %xmm7,%xmm0,%xmm0
	vfnmadd231sd %xmm5,%xmm3,%xmm0
	vfnmadd231sd %xmm5,%xmm3,%xmm0
	vdivsd %xmm5,%xmm3,%xmm2
	vfmadd231sd %xmm6,%xmm3,%xmm0
	vfnmadd231sd %xmm5,%xmm4,%xmm0
	vfmadd231sd %xmm5,%xmm4,%xmm0
	vfnmadd231sd %xmm6,%xmm3,%xmm0
	vfmadd231sd %xmm6,%xmm3,%xmm0
	vfnmadd231sd %xmm5,%xmm4,%xmm0
	vfmadd231sd %xmm5,%xmm4,%xmm0
	vfnmadd231sd %xmm6,%xmm3,%xmm0
	vfmadd231sd %xmm6,%xmm3,%xmm0
	vfnmadd231sd %xmm5,%xmm4,%xmm0
	vfmadd231sd %xmm5,%xmm4,%xmm0
	vfnmadd231sd %xmm6,%xmm3,%xmm0
	vfmadd231sd %xmm5,%xmm3,%xmm0
	vfnmadd231sd %xmm5,%xmm3,%xmm0
	vfmadd231sd %xmm4,%xmm6,%xmm0
	vfnmadd231sd %xmm4,%xmm6,%xmm0
	vdivsd %xmm5,%xmm4,%xmm4
	vfmadd231sd %xmm5,%xmm3,%xmm0
	vfnmadd231sd %xmm5,%xmm3,%xmm0
	vaddsd %xmm1,%xmm0,%xmm0
	vaddsd %xmm1,%xmm0,%xmm0
	vdivsd %xmm6,%xmm3,%xmm3
	vsubsd %xmm2,%xmm0,%xmm0
	vaddsd %xmm2,%xmm0,%xmm0
	vsubsd %xmm3,%xmm0,%xmm0
	vaddsd %xmm4,%xmm0,%xmm0
	vsubsd %xmm4,%xmm0,%xmm0
	vaddsd %xmm3,%xmm0,%xmm0
	vsubsd %xmm3,%xmm0,%xmm0
	vaddsd %xmm4,%xmm0,%xmm0
	vsubsd %xmm4,%xmm0,%xmm0
	vaddsd %xmm3,%xmm0,%xmm0
	vsubsd %xmm3,%xmm0,%xmm0
	vaddsd %xmm4,%xmm0,%xmm0
	vsubsd %xmm4,%xmm0,%xmm0
	vaddsd %xmm3,%xmm0,%xmm0
	vsubsd %xmm2,%xmm0,%xmm0
	vaddsd %xmm2,%xmm0,%xmm0
	vsubsd %xmm1,%xmm0,%xmm0
	vaddsd %xmm1,%xmm0,%xmm0
	vsubsd %xmm2,%xmm0,%xmm0
	vaddsd %xmm2,%xmm0,%xmm0
	vsubsd %xmm1,%xmm0,%xmm0
	vaddsd %xmm1,%xmm0,%xmm0
	vmovsd %xmm0,(%rdx,%rax,8)
	cmp    %r8,%rcx
	jne    <_Z18BM_ComputeBoundSoAI7SoA2VecIdLm10000000EEEvRN9benchmark5StateE+0x780>
	call   <_ZNSt6chrono3_V212steady_clock3nowEv@plt>
	mov    -0x28f8(%rbp),%rdi
	vxorpd %xmm7,%xmm7,%xmm7
	sub    %rdi,%rax
	mov    -0x2900(%rbp),%rdi
	vcvtsi2sd %rax,%xmm7,%xmm0
	vdivsd 0x559c1(%rip),%xmm0,%xmm0        # <_ZSt19piecewise_construct+0x9f>
	call   <_ZN9benchmark5State16SetIterationTimeEd>
	mov    -0x28c8(%rbp),%rax
	test   %rax,%rax
	je     <_Z18BM_ComputeBoundSoAI7SoA2VecIdLm10000000EEEvRN9benchmark5StateE+0x97f>
	mov    -0x2920(%rbp),%rsi
	mov    %rax,%rdi
	call   <_ZdlPvm@plt>
	cmpq   $0x0,-0x28d0(%rbp)
	jle    <_Z18BM_ComputeBoundSoAI7SoA2VecIdLm10000000EEEvRN9benchmark5StateE+0xa81>
	decq   -0x28d0(%rbp)
	je     <_Z18BM_ComputeBoundSoAI7SoA2VecIdLm10000000EEEvRN9benchmark5StateE+0x2c6>
	cmpq   $0x0,-0x2918(%rbp)
	jne    <_Z18BM_ComputeBoundSoAI7SoA2VecIdLm10000000EEEvRN9benchmark5StateE+0x5e0>
	movq   $0x0,-0x28c8(%rbp)
	mov    -0x28c8(%rbp),%rsi
	mov    %rbx,%rdx
	mov    %rsi,%rdi
	call   <_ZSt7shuffleIN9__gnu_cxx17__normal_iteratorIPmSt6vectorImSaImEEEERSt23mersenne_twister_engineImLm32ELm624ELm397ELm31ELm2567483615ELm11ELm4294967295ELm7ELm2636928640ELm15ELm4022730752ELm18ELm1812433253EEEvT_SA_OT0_>
	call   <_ZNSt6chrono3_V212steady_clock3nowEv@plt>
	mov    %rax,-0x28f8(%rbp)
	jmp    <_Z18BM_ComputeBoundSoAI7SoA2VecIdLm10000000EEEvRN9benchmark5StateE+0x938>
	mov    %rax,%rdx
	and    $0x1,%eax
	vxorpd %xmm7,%xmm7,%xmm7
	shr    $1,%rdx
	or     %rax,%rdx
	vcvtsi2sd %rdx,%xmm7,%xmm0
	vaddsd %xmm0,%xmm0,%xmm7
	vmovsd %xmm7,-0x2908(%rbp)
	jmp    <_Z18BM_ComputeBoundSoAI7SoA2VecIdLm10000000EEEvRN9benchmark5StateE+0x2fe>
	lea    0x1(%rax),%edx
	movslq %edx,%rdx
	mov    %rdx,0x8(%r9)
	lea    0x10(%r9),%rdx
	cmp    %rdx,%r8
	je     <_Z18BM_ComputeBoundSoAI7SoA2VecIdLm10000000EEEvRN9benchmark5StateE+0x735>
	add    $0x2,%eax
	cltq
	mov    %rax,0x10(%r9)
	jmp    <_Z18BM_ComputeBoundSoAI7SoA2VecIdLm10000000EEEvRN9benchmark5StateE+0x735>
	vzeroupper
	jmp    <_Z18BM_ComputeBoundSoAI7SoA2VecIdLm10000000EEEvRN9benchmark5StateE+0x735>
	mov    %r10,%r9
	xor    %edx,%edx
	xor    %eax,%eax
	jmp    <_Z18BM_ComputeBoundSoAI7SoA2VecIdLm10000000EEEvRN9benchmark5StateE+0x6cf>
	mov    $0x4,%eax
	sub    %rbx,%rax
	cmp    $0x7fffffff,%rax
	jg     <_Z18BM_ComputeBoundSoAI7SoA2VecIdLm10000000EEEvRN9benchmark5StateE+0xa60>
	cmp    $0xffffffff80000000,%rax
	jge    <_Z18BM_ComputeBoundSoAI7SoA2VecIdLm10000000EEEvRN9benchmark5StateE+0x427>
	jmp    <_Z18BM_ComputeBoundSoAI7SoA2VecIdLm10000000EEEvRN9benchmark5StateE+0x42f>
	cs nopw 0x0(%rax,%rax,1)
	vmovsd -0x2908(%rbp),%xmm7
	movabs $0x3e800000000,%rax
	mov    %rax,0x48(%r9)
	vmovsd %xmm7,0x40(%r9)
	jmp    <_Z18BM_ComputeBoundSoAI7SoA2VecIdLm10000000EEEvRN9benchmark5StateE+0x4aa>
	lea    0x53940(%rip),%rcx        # <_IO_stdin_used+0x8>
	mov    $0x46e,%edx
	lea    0x5398c(%rip),%rsi        # <_IO_stdin_used+0x60>
	lea    0x54c00(%rip),%rdi        # <_IO_stdin_used+0x12db>
	call   <__assert_fail@plt>
	call   <__stack_chk_fail@plt>
	endbr64
	mov    %rax,%rbx
	jmp    <_Z18BM_ComputeBoundSoAI7SoA2VecIdLm10000000EEEvRN9benchmark5StateE.cold>
	endbr64
	mov    %rax,%rbx
	jmp    <_Z18BM_ComputeBoundSoAI7SoA2VecIdLm10000000EEEvRN9benchmark5StateE.cold>
	endbr64
	mov    %rax,%rbx
	jmp    <_Z18BM_ComputeBoundSoAI7SoA2VecIdLm10000000EEEvRN9benchmark5StateE.cold>
	endbr64
	mov    %rax,%rbx
	jmp    <_Z18BM_ComputeBoundSoAI7SoA2VecIdLm10000000EEEvRN9benchmark5StateE.cold>
	endbr64
	jmp    <_Z18BM_ComputeBoundSoAI7SoA2VecIdLm10000000EEEvRN9benchmark5StateE.cold+0x22d>
	endbr64
	mov    %rax,%rbx
	jmp    <_Z18BM_ComputeBoundSoAI7SoA2VecIdLm10000000EEEvRN9benchmark5StateE.cold+0x13e>
	endbr64
	mov    %rax,-0x28f0(%rbp)
	jmp    <_Z18BM_ComputeBoundSoAI7SoA2VecIdLm10000000EEEvRN9benchmark5StateE.cold+0x238>
	endbr64
	mov    %rax,%rbx
	jmp    <_Z18BM_ComputeBoundSoAI7SoA2VecIdLm10000000EEEvRN9benchmark5StateE.cold+0x1ec>
	endbr64
	mov    %rax,%rbx
	jmp    <_Z18BM_ComputeBoundSoAI7SoA2VecIdLm10000000EEEvRN9benchmark5StateE.cold+0x24f>
	cs nopw 0x0(%rax,%rax,1)
	nopl   0x0(%rax)

<_ZNSt8_Rb_treeINSt7__cxx1112basic_stringIcSt11char_traitsIcESaIcEEESt4pairIKS5_N9benchmark7CounterEESt10_Select1stISA_ESt4lessIS5_ESaISA_EE24_M_get_insert_unique_posERS7_.isra.0>:
	push   %r15
	push   %r14
	push   %r13
	mov    %rdx,%r13
	push   %r12
	push   %rbp
	mov    $0x80000000,%ebp
	push   %rbx
	sub    $0x18,%rsp
	mov    0x10(%rdi),%r14
	mov    %rdi,0x8(%rsp)
	mov    %rsi,(%rsp)
	test   %r14,%r14
	jne    <_ZNSt8_Rb_treeINSt7__cxx1112basic_stringIcSt11char_traitsIcESaIcEEESt4pairIKS5_N9benchmark7CounterEESt10_Select1stISA_ESt4lessIS5_ESaISA_EE24_M_get_insert_unique_posERS7_.isra.0+0x3e>
	jmp    <_ZNSt8_Rb_treeINSt7__cxx1112basic_stringIcSt11char_traitsIcESaIcEEESt4pairIKS5_N9benchmark7CounterEESt10_Select1stISA_ESt4lessIS5_ESaISA_EE24_M_get_insert_unique_posERS7_.isra.0+0xf0>
	nopl   (%rax)
	mov    0x18(%r14),%rax
	xor    %esi,%esi
	test   %rax,%rax
	je     <_ZNSt8_Rb_treeINSt7__cxx1112basic_stringIcSt11char_traitsIcESaIcEEESt4pairIKS5_N9benchmark7CounterEESt10_Select1stISA_ESt4lessIS5_ESaISA_EE24_M_get_insert_unique_posERS7_.isra.0+0x94>
	mov    %rax,%r14
	mov    0x28(%r14),%r15
	mov    0x20(%r14),%r12
	cmp    %r15,%r13
	mov    %r15,%rbx
	cmovbe %r13,%rbx
	test   %rbx,%rbx
	je     <_ZNSt8_Rb_treeINSt7__cxx1112basic_stringIcSt11char_traitsIcESaIcEEESt4pairIKS5_N9benchmark7CounterEESt10_Select1stISA_ESt4lessIS5_ESaISA_EE24_M_get_insert_unique_posERS7_.isra.0+0x68>
	mov    (%rsp),%rdi
	mov    %rbx,%rdx
	mov    %r12,%rsi
	call   <memcmp@plt>
	test   %eax,%eax
	jne    <_ZNSt8_Rb_treeINSt7__cxx1112basic_stringIcSt11char_traitsIcESaIcEEESt4pairIKS5_N9benchmark7CounterEESt10_Select1stISA_ESt4lessIS5_ESaISA_EE24_M_get_insert_unique_posERS7_.isra.0+0x82>
	mov    %r13,%rax
	sub    %r15,%rax
	cmp    %rbp,%rax
	jge    <_ZNSt8_Rb_treeINSt7__cxx1112basic_stringIcSt11char_traitsIcESaIcEEESt4pairIKS5_N9benchmark7CounterEESt10_Select1stISA_ESt4lessIS5_ESaISA_EE24_M_get_insert_unique_posERS7_.isra.0+0x30>
	movabs $0xffffffff7fffffff,%rcx
	cmp    %rcx,%rax
	jle    <_ZNSt8_Rb_treeINSt7__cxx1112basic_stringIcSt11char_traitsIcESaIcEEESt4pairIKS5_N9benchmark7CounterEESt10_Select1stISA_ESt4lessIS5_ESaISA_EE24_M_get_insert_unique_posERS7_.isra.0+0x86>
	test   %eax,%eax
	jns    <_ZNSt8_Rb_treeINSt7__cxx1112basic_stringIcSt11char_traitsIcESaIcEEESt4pairIKS5_N9benchmark7CounterEESt10_Select1stISA_ESt4lessIS5_ESaISA_EE24_M_get_insert_unique_posERS7_.isra.0+0x30>
	mov    0x10(%r14),%rax
	mov    $0x1,%esi
	test   %rax,%rax
	jne    <_ZNSt8_Rb_treeINSt7__cxx1112basic_stringIcSt11char_traitsIcESaIcEEESt4pairIKS5_N9benchmark7CounterEESt10_Select1stISA_ESt4lessIS5_ESaISA_EE24_M_get_insert_unique_posERS7_.isra.0+0x3b>
	mov    %r14,%rbp
	test   %sil,%sil
	jne    <_ZNSt8_Rb_treeINSt7__cxx1112basic_stringIcSt11char_traitsIcESaIcEEESt4pairIKS5_N9benchmark7CounterEESt10_Select1stISA_ESt4lessIS5_ESaISA_EE24_M_get_insert_unique_posERS7_.isra.0+0xf4>
	test   %rbx,%rbx
	je     <_ZNSt8_Rb_treeINSt7__cxx1112basic_stringIcSt11char_traitsIcESaIcEEESt4pairIKS5_N9benchmark7CounterEESt10_Select1stISA_ESt4lessIS5_ESaISA_EE24_M_get_insert_unique_posERS7_.isra.0+0xb4>
	mov    (%rsp),%rsi
	mov    %rbx,%rdx
	mov    %r12,%rdi
	call   <memcmp@plt>
	test   %eax,%eax
	jne    <_ZNSt8_Rb_treeINSt7__cxx1112basic_stringIcSt11char_traitsIcESaIcEEESt4pairIKS5_N9benchmark7CounterEESt10_Select1stISA_ESt4lessIS5_ESaISA_EE24_M_get_insert_unique_posERS7_.isra.0+0xcc>
	sub    %r13,%r15
	cmp    $0x7fffffff,%r15
	jg     <_ZNSt8_Rb_treeINSt7__cxx1112basic_stringIcSt11char_traitsIcESaIcEEESt4pairIKS5_N9benchmark7CounterEESt10_Select1stISA_ESt4lessIS5_ESaISA_EE24_M_get_insert_unique_posERS7_.isra.0+0xd0>
	cmp    $0xffffffff80000000,%r15
	jl     <_ZNSt8_Rb_treeINSt7__cxx1112basic_stringIcSt11char_traitsIcESaIcEEESt4pairIKS5_N9benchmark7CounterEESt10_Select1stISA_ESt4lessIS5_ESaISA_EE24_M_get_insert_unique_posERS7_.isra.0+0x130>
	mov    %r15d,%eax
	test   %eax,%eax
	js     <_ZNSt8_Rb_treeINSt7__cxx1112basic_stringIcSt11char_traitsIcESaIcEEESt4pairIKS5_N9benchmark7CounterEESt10_Select1stISA_ESt4lessIS5_ESaISA_EE24_M_get_insert_unique_posERS7_.isra.0+0x130>
	xor    %ebp,%ebp
	add    $0x18,%rsp
	mov    %rbp,%rdx
	mov    %r14,%rax
	pop    %rbx
	pop    %rbp
	pop    %r12
	pop    %r13
	pop    %r14
	pop    %r15
	ret
	nopw   0x0(%rax,%rax,1)
	lea    0x8(%rdi),%r14
	mov    0x8(%rsp),%rax
	mov    0x18(%rax),%rbp
	cmp    %rbp,%r14
	je     <_ZNSt8_Rb_treeINSt7__cxx1112basic_stringIcSt11char_traitsIcESaIcEEESt4pairIKS5_N9benchmark7CounterEESt10_Select1stISA_ESt4lessIS5_ESaISA_EE24_M_get_insert_unique_posERS7_.isra.0+0x130>
	mov    %r14,%rdi
	mov    %r14,%rbp
	call   <_ZSt18_Rb_tree_decrementPSt18_Rb_tree_node_base@plt>
	mov    0x28(%rax),%r15
	mov    0x20(%rax),%r12
	mov    %rax,%r14
	cmp    %r15,%r13
	mov    %r15,%rbx
	cmovbe %r13,%rbx
	jmp    <_ZNSt8_Rb_treeINSt7__cxx1112basic_stringIcSt11char_traitsIcESaIcEEESt4pairIKS5_N9benchmark7CounterEESt10_Select1stISA_ESt4lessIS5_ESaISA_EE24_M_get_insert_unique_posERS7_.isra.0+0x9c>
	nopw   0x0(%rax,%rax,1)
	xor    %r14d,%r14d
	jmp    <_ZNSt8_Rb_treeINSt7__cxx1112basic_stringIcSt11char_traitsIcESaIcEEESt4pairIKS5_N9benchmark7CounterEESt10_Select1stISA_ESt4lessIS5_ESaISA_EE24_M_get_insert_unique_posERS7_.isra.0+0xd2>
	cs nopw 0x0(%rax,%rax,1)
	nop

<_ZNSt7__cxx1112basic_stringIcSt11char_traitsIcESaIcEE10_M_disposeEv>:
	endbr64
	mov    (%rdi),%rax
	lea    0x10(%rdi),%rdx
	cmp    %rdx,%rax
	je     <_ZNSt7__cxx1112basic_stringIcSt11char_traitsIcESaIcEE10_M_disposeEv+0x20>
	mov    0x10(%rdi),%rsi
	mov    %rax,%rdi
	inc    %rsi
	jmp    <_ZdlPvm@plt>
	nop
	ret
	cs nopw 0x0(%rax,%rax,1)
	nopl   0x0(%rax,%rax,1)

<_ZNSt8_Rb_treeINSt7__cxx1112basic_stringIcSt11char_traitsIcESaIcEEESt4pairIKS5_N9benchmark7CounterEESt10_Select1stISA_ESt4lessIS5_ESaISA_EE22_M_emplace_hint_uniqueIJRKSt21piecewise_construct_tSt5tupleIJOS5_EESL_IJEEEEESt17_Rb_tree_iteratorISA_ESt23_Rb_tree_const_iteratorISA_EDpOT_>:
	endbr64
	push   %r15
	push   %r14
	push   %r13
	push   %r12
	mov    %rcx,%r12
	push   %rbp
	mov    %rdi,%rbp
	mov    $0x50,%edi
	push   %rbx
	mov    %rsi,%rbx
	sub    $0x38,%rsp
	call   <_Znwm@plt>
	mov    %rax,%r14
	mov    (%r12),%rax
	lea    0x30(%r14),%r15
	mov    %r15,0x20(%r14)
	lea    0x10(%rax),%rdx
	mov    (%rax),%rcx
	cmp    %rdx,%rcx
	je     <_ZNSt8_Rb_treeINSt7__cxx1112basic_stringIcSt11char_traitsIcESaIcEEESt4pairIKS5_N9benchmark7CounterEESt10_Select1stISA_ESt4lessIS5_ESaISA_EE22_M_emplace_hint_uniqueIJRKSt21piecewise_construct_tSt5tupleIJOS5_EESL_IJEEEEESt17_Rb_tree_iteratorISA_ESt23_Rb_tree_const_iteratorISA_EDpOT_+0x410>
	mov    %rcx,0x20(%r14)
	mov    0x10(%rax),%rcx
	mov    %rcx,0x30(%r14)
	mov    0x8(%rax),%rcx
	mov    %rdx,(%rax)
	movq   $0x0,0x8(%rax)
	mov    %rcx,0x28(%r14)
	mov    %rbx,%rcx
	movb   $0x0,0x10(%rax)
	movabs $0x3e800000000,%rax
	mov    %rax,0x48(%r14)
	lea    0x8(%rbp),%rax
	movq   $0x0,0x40(%r14)
	mov    0x20(%r14),%r13
	mov    0x28(%r14),%r12
	mov    %rax,(%rsp)
	cmp    %rbx,%rax
	je     <_ZNSt8_Rb_treeINSt7__cxx1112basic_stringIcSt11char_traitsIcESaIcEEESt4pairIKS5_N9benchmark7CounterEESt10_Select1stISA_ESt4lessIS5_ESaISA_EE22_M_emplace_hint_uniqueIJRKSt21piecewise_construct_tSt5tupleIJOS5_EESL_IJEEEEESt17_Rb_tree_iteratorISA_ESt23_Rb_tree_const_iteratorISA_EDpOT_+0x230>
	mov    0x28(%rbx),%r10
	mov    0x20(%rbx),%rsi
	cmp    %r10,%r12
	mov    %r10,%r11
	mov    %rsi,0x8(%rsp)
	cmovbe %r12,%r11
	test   %r11,%r11
	je     <_ZNSt8_Rb_treeINSt7__cxx1112basic_stringIcSt11char_traitsIcESaIcEEESt4pairIKS5_N9benchmark7CounterEESt10_Select1stISA_ESt4lessIS5_ESaISA_EE22_M_emplace_hint_uniqueIJRKSt21piecewise_construct_tSt5tupleIJOS5_EESL_IJEEEEESt17_Rb_tree_iteratorISA_ESt23_Rb_tree_const_iteratorISA_EDpOT_+0x198>
	mov    %r11,%rdx
	mov    %r13,%rdi
	mov    %r10,0x20(%rsp)
	mov    %r11,0x10(%rsp)
	mov    %rbx,0x18(%rsp)
	call   <memcmp@plt>
	mov    0x10(%rsp),%r11
	mov    0x18(%rsp),%rcx
	test   %eax,%eax
	mov    0x20(%rsp),%r10
	jne    <_ZNSt8_Rb_treeINSt7__cxx1112basic_stringIcSt11char_traitsIcESaIcEEESt4pairIKS5_N9benchmark7CounterEESt10_Select1stISA_ESt4lessIS5_ESaISA_EE22_M_emplace_hint_uniqueIJRKSt21piecewise_construct_tSt5tupleIJOS5_EESL_IJEEEEESt17_Rb_tree_iteratorISA_ESt23_Rb_tree_const_iteratorISA_EDpOT_+0x102>
	mov    %r12,%rax
	sub    %r10,%rax
	cmp    $0x7fffffff,%rax
	jg     <_ZNSt8_Rb_treeINSt7__cxx1112basic_stringIcSt11char_traitsIcESaIcEEESt4pairIKS5_N9benchmark7CounterEESt10_Select1stISA_ESt4lessIS5_ESaISA_EE22_M_emplace_hint_uniqueIJRKSt21piecewise_construct_tSt5tupleIJOS5_EESL_IJEEEEESt17_Rb_tree_iteratorISA_ESt23_Rb_tree_const_iteratorISA_EDpOT_+0x108>
	cmp    $0xffffffff80000000,%rax
	jl     <_ZNSt8_Rb_treeINSt7__cxx1112basic_stringIcSt11char_traitsIcESaIcEEESt4pairIKS5_N9benchmark7CounterEESt10_Select1stISA_ESt4lessIS5_ESaISA_EE22_M_emplace_hint_uniqueIJRKSt21piecewise_construct_tSt5tupleIJOS5_EESL_IJEEEEESt17_Rb_tree_iteratorISA_ESt23_Rb_tree_const_iteratorISA_EDpOT_+0x1b2>
	test   %eax,%eax
	js     <_ZNSt8_Rb_treeINSt7__cxx1112basic_stringIcSt11char_traitsIcESaIcEEESt4pairIKS5_N9benchmark7CounterEESt10_Select1stISA_ESt4lessIS5_ESaISA_EE22_M_emplace_hint_uniqueIJRKSt21piecewise_construct_tSt5tupleIJOS5_EESL_IJEEEEESt17_Rb_tree_iteratorISA_ESt23_Rb_tree_const_iteratorISA_EDpOT_+0x1b2>
	mov    0x8(%rsp),%rdi
	mov    %r11,%rdx
	mov    %r13,%rsi
	mov    %r10,0x20(%rsp)
	mov    %rcx,0x18(%rsp)
	mov    %r11,0x10(%rsp)
	call   <memcmp@plt>
	mov    0x10(%rsp),%r11
	mov    0x18(%rsp),%rcx
	test   %eax,%eax
	mov    0x20(%rsp),%r10
	jne    <_ZNSt8_Rb_treeINSt7__cxx1112basic_stringIcSt11char_traitsIcESaIcEEESt4pairIKS5_N9benchmark7CounterEESt10_Select1stISA_ESt4lessIS5_ESaISA_EE22_M_emplace_hint_uniqueIJRKSt21piecewise_construct_tSt5tupleIJOS5_EESL_IJEEEEESt17_Rb_tree_iteratorISA_ESt23_Rb_tree_const_iteratorISA_EDpOT_+0x154>
	mov    %r10,%rax
	sub    %r12,%rax
	cmp    $0x7fffffff,%rax
	jg     <_ZNSt8_Rb_treeINSt7__cxx1112basic_stringIcSt11char_traitsIcESaIcEEESt4pairIKS5_N9benchmark7CounterEESt10_Select1stISA_ESt4lessIS5_ESaISA_EE22_M_emplace_hint_uniqueIJRKSt21piecewise_construct_tSt5tupleIJOS5_EESL_IJEEEEESt17_Rb_tree_iteratorISA_ESt23_Rb_tree_const_iteratorISA_EDpOT_+0x15c>
	cmp    $0xffffffff80000000,%rax
	jl     <_ZNSt8_Rb_treeINSt7__cxx1112basic_stringIcSt11char_traitsIcESaIcEEESt4pairIKS5_N9benchmark7CounterEESt10_Select1stISA_ESt4lessIS5_ESaISA_EE22_M_emplace_hint_uniqueIJRKSt21piecewise_construct_tSt5tupleIJOS5_EESL_IJEEEEESt17_Rb_tree_iteratorISA_ESt23_Rb_tree_const_iteratorISA_EDpOT_+0x290>
	test   %eax,%eax
	js     <_ZNSt8_Rb_treeINSt7__cxx1112basic_stringIcSt11char_traitsIcESaIcEEESt4pairIKS5_N9benchmark7CounterEESt10_Select1stISA_ESt4lessIS5_ESaISA_EE22_M_emplace_hint_uniqueIJRKSt21piecewise_construct_tSt5tupleIJOS5_EESL_IJEEEEESt17_Rb_tree_iteratorISA_ESt23_Rb_tree_const_iteratorISA_EDpOT_+0x290>
	mov    %rcx,%rbx
	cmp    %r15,%r13
	je     <_ZNSt8_Rb_treeINSt7__cxx1112basic_stringIcSt11char_traitsIcESaIcEEESt4pairIKS5_N9benchmark7CounterEESt10_Select1stISA_ESt4lessIS5_ESaISA_EE22_M_emplace_hint_uniqueIJRKSt21piecewise_construct_tSt5tupleIJOS5_EESL_IJEEEEESt17_Rb_tree_iteratorISA_ESt23_Rb_tree_const_iteratorISA_EDpOT_+0x174>
	mov    0x30(%r14),%rax
	mov    %r13,%rdi
	lea    0x1(%rax),%rsi
	call   <_ZdlPvm@plt>
	mov    $0x50,%esi
	mov    %r14,%rdi
	call   <_ZdlPvm@plt>
	add    $0x38,%rsp
	mov    %rbx,%rax
	pop    %rbx
	pop    %rbp
	pop    %r12
	pop    %r13
	pop    %r14
	pop    %r15
	ret
	nopl   0x0(%rax,%rax,1)
	mov    %r12,%rax
	sub    %r10,%rax
	cmp    $0x7fffffff,%rax
	jg     <_ZNSt8_Rb_treeINSt7__cxx1112basic_stringIcSt11char_traitsIcESaIcEEESt4pairIKS5_N9benchmark7CounterEESt10_Select1stISA_ESt4lessIS5_ESaISA_EE22_M_emplace_hint_uniqueIJRKSt21piecewise_construct_tSt5tupleIJOS5_EESL_IJEEEEESt17_Rb_tree_iteratorISA_ESt23_Rb_tree_const_iteratorISA_EDpOT_+0x13a>
	cmp    $0xffffffff80000000,%rax
	jl     <_ZNSt8_Rb_treeINSt7__cxx1112basic_stringIcSt11char_traitsIcESaIcEEESt4pairIKS5_N9benchmark7CounterEESt10_Select1stISA_ESt4lessIS5_ESaISA_EE22_M_emplace_hint_uniqueIJRKSt21piecewise_construct_tSt5tupleIJOS5_EESL_IJEEEEESt17_Rb_tree_iteratorISA_ESt23_Rb_tree_const_iteratorISA_EDpOT_+0x1b2>
	test   %eax,%eax
	jns    <_ZNSt8_Rb_treeINSt7__cxx1112basic_stringIcSt11char_traitsIcESaIcEEESt4pairIKS5_N9benchmark7CounterEESt10_Select1stISA_ESt4lessIS5_ESaISA_EE22_M_emplace_hint_uniqueIJRKSt21piecewise_construct_tSt5tupleIJOS5_EESL_IJEEEEESt17_Rb_tree_iteratorISA_ESt23_Rb_tree_const_iteratorISA_EDpOT_+0x13a>
	cmp    %rbx,0x18(%rbp)
	je     <_ZNSt8_Rb_treeINSt7__cxx1112basic_stringIcSt11char_traitsIcESaIcEEESt4pairIKS5_N9benchmark7CounterEESt10_Select1stISA_ESt4lessIS5_ESaISA_EE22_M_emplace_hint_uniqueIJRKSt21piecewise_construct_tSt5tupleIJOS5_EESL_IJEEEEESt17_Rb_tree_iteratorISA_ESt23_Rb_tree_const_iteratorISA_EDpOT_+0x220>
	mov    %rbx,%rdi
	call   <_ZSt18_Rb_tree_decrementPSt18_Rb_tree_node_base@plt>
	mov    0x28(%rax),%rcx
	mov    %rax,%r9
	cmp    %rcx,%r12
	mov    %rcx,%rdx
	cmovbe %r12,%rdx
	test   %rdx,%rdx
	je     <_ZNSt8_Rb_treeINSt7__cxx1112basic_stringIcSt11char_traitsIcESaIcEEESt4pairIKS5_N9benchmark7CounterEESt10_Select1stISA_ESt4lessIS5_ESaISA_EE22_M_emplace_hint_uniqueIJRKSt21piecewise_construct_tSt5tupleIJOS5_EESL_IJEEEEESt17_Rb_tree_iteratorISA_ESt23_Rb_tree_const_iteratorISA_EDpOT_+0x1fa>
	mov    0x20(%rax),%rdi
	mov    %r13,%rsi
	mov    %rcx,0x10(%rsp)
	mov    %rax,0x8(%rsp)
	call   <memcmp@plt>
	mov    0x8(%rsp),%r9
	mov    0x10(%rsp),%rcx
	test   %eax,%eax
	jne    <_ZNSt8_Rb_treeINSt7__cxx1112basic_stringIcSt11char_traitsIcESaIcEEESt4pairIKS5_N9benchmark7CounterEESt10_Select1stISA_ESt4lessIS5_ESaISA_EE22_M_emplace_hint_uniqueIJRKSt21piecewise_construct_tSt5tupleIJOS5_EESL_IJEEEEESt17_Rb_tree_iteratorISA_ESt23_Rb_tree_const_iteratorISA_EDpOT_+0x211>
	sub    %r12,%rcx
	cmp    $0x7fffffff,%rcx
	jg     <_ZNSt8_Rb_treeINSt7__cxx1112basic_stringIcSt11char_traitsIcESaIcEEESt4pairIKS5_N9benchmark7CounterEESt10_Select1stISA_ESt4lessIS5_ESaISA_EE22_M_emplace_hint_uniqueIJRKSt21piecewise_construct_tSt5tupleIJOS5_EESL_IJEEEEESt17_Rb_tree_iteratorISA_ESt23_Rb_tree_const_iteratorISA_EDpOT_+0x23b>
	cmp    $0xffffffff80000000,%rcx
	jl     <_ZNSt8_Rb_treeINSt7__cxx1112basic_stringIcSt11char_traitsIcESaIcEEESt4pairIKS5_N9benchmark7CounterEESt10_Select1stISA_ESt4lessIS5_ESaISA_EE22_M_emplace_hint_uniqueIJRKSt21piecewise_construct_tSt5tupleIJOS5_EESL_IJEEEEESt17_Rb_tree_iteratorISA_ESt23_Rb_tree_const_iteratorISA_EDpOT_+0x215>
	mov    %ecx,%eax
	test   %eax,%eax
	jns    <_ZNSt8_Rb_treeINSt7__cxx1112basic_stringIcSt11char_traitsIcESaIcEEESt4pairIKS5_N9benchmark7CounterEESt10_Select1stISA_ESt4lessIS5_ESaISA_EE22_M_emplace_hint_uniqueIJRKSt21piecewise_construct_tSt5tupleIJOS5_EESL_IJEEEEESt17_Rb_tree_iteratorISA_ESt23_Rb_tree_const_iteratorISA_EDpOT_+0x23b>
	cmpq   $0x0,0x18(%r9)
	je     <_ZNSt8_Rb_treeINSt7__cxx1112basic_stringIcSt11char_traitsIcESaIcEEESt4pairIKS5_N9benchmark7CounterEESt10_Select1stISA_ESt4lessIS5_ESaISA_EE22_M_emplace_hint_uniqueIJRKSt21piecewise_construct_tSt5tupleIJOS5_EESL_IJEEEEESt17_Rb_tree_iteratorISA_ESt23_Rb_tree_const_iteratorISA_EDpOT_+0x4d8>
	mov    %rbx,%r9
	mov    $0x1,%edi
	jmp    <_ZNSt8_Rb_treeINSt7__cxx1112basic_stringIcSt11char_traitsIcESaIcEEESt4pairIKS5_N9benchmark7CounterEESt10_Select1stISA_ESt4lessIS5_ESaISA_EE22_M_emplace_hint_uniqueIJRKSt21piecewise_construct_tSt5tupleIJOS5_EESL_IJEEEEESt17_Rb_tree_iteratorISA_ESt23_Rb_tree_const_iteratorISA_EDpOT_+0x271>
	nopw   0x0(%rax,%rax,1)
	cmpq   $0x0,0x28(%rbp)
	jne    <_ZNSt8_Rb_treeINSt7__cxx1112basic_stringIcSt11char_traitsIcESaIcEEESt4pairIKS5_N9benchmark7CounterEESt10_Select1stISA_ESt4lessIS5_ESaISA_EE22_M_emplace_hint_uniqueIJRKSt21piecewise_construct_tSt5tupleIJOS5_EESL_IJEEEEESt17_Rb_tree_iteratorISA_ESt23_Rb_tree_const_iteratorISA_EDpOT_+0x340>
	mov    %r12,%rdx
	mov    %r13,%rsi
	mov    %rbp,%rdi
	call   <_ZNSt8_Rb_treeINSt7__cxx1112basic_stringIcSt11char_traitsIcESaIcEEESt4pairIKS5_N9benchmark7CounterEESt10_Select1stISA_ESt4lessIS5_ESaISA_EE24_M_get_insert_unique_posERS7_.isra.0>
	mov    %rax,%rcx
	mov    %rdx,%r9
	test   %r9,%r9
	je     <_ZNSt8_Rb_treeINSt7__cxx1112basic_stringIcSt11char_traitsIcESaIcEEESt4pairIKS5_N9benchmark7CounterEESt10_Select1stISA_ESt4lessIS5_ESaISA_EE22_M_emplace_hint_uniqueIJRKSt21piecewise_construct_tSt5tupleIJOS5_EESL_IJEEEEESt17_Rb_tree_iteratorISA_ESt23_Rb_tree_const_iteratorISA_EDpOT_+0x15c>
	test   %rcx,%rcx
	setne  %al
	cmp    %r9,(%rsp)
	je     <_ZNSt8_Rb_treeINSt7__cxx1112basic_stringIcSt11char_traitsIcESaIcEEESt4pairIKS5_N9benchmark7CounterEESt10_Select1stISA_ESt4lessIS5_ESaISA_EE22_M_emplace_hint_uniqueIJRKSt21piecewise_construct_tSt5tupleIJOS5_EESL_IJEEEEESt17_Rb_tree_iteratorISA_ESt23_Rb_tree_const_iteratorISA_EDpOT_+0x26c>
	test   %al,%al
	je     <_ZNSt8_Rb_treeINSt7__cxx1112basic_stringIcSt11char_traitsIcESaIcEEESt4pairIKS5_N9benchmark7CounterEESt10_Select1stISA_ESt4lessIS5_ESaISA_EE22_M_emplace_hint_uniqueIJRKSt21piecewise_construct_tSt5tupleIJOS5_EESL_IJEEEEESt17_Rb_tree_iteratorISA_ESt23_Rb_tree_const_iteratorISA_EDpOT_+0x3a0>
	mov    $0x1,%edi
	mov    (%rsp),%rcx
	mov    %r9,%rdx
	mov    %r14,%rsi
	mov    %r14,%rbx
	call   <_ZSt29_Rb_tree_insert_and_rebalancebPSt18_Rb_tree_node_baseS0_RS_@plt>
	incq   0x28(%rbp)
	jmp    <_ZNSt8_Rb_treeINSt7__cxx1112basic_stringIcSt11char_traitsIcESaIcEEESt4pairIKS5_N9benchmark7CounterEESt10_Select1stISA_ESt4lessIS5_ESaISA_EE22_M_emplace_hint_uniqueIJRKSt21piecewise_construct_tSt5tupleIJOS5_EESL_IJEEEEESt17_Rb_tree_iteratorISA_ESt23_Rb_tree_const_iteratorISA_EDpOT_+0x181>
	nopl   0x0(%rax)
	mov    %r10,0x18(%rsp)
	mov    %r11,0x10(%rsp)
	cmp    %rbx,0x20(%rbp)
	je     <_ZNSt8_Rb_treeINSt7__cxx1112basic_stringIcSt11char_traitsIcESaIcEEESt4pairIKS5_N9benchmark7CounterEESt10_Select1stISA_ESt4lessIS5_ESaISA_EE22_M_emplace_hint_uniqueIJRKSt21piecewise_construct_tSt5tupleIJOS5_EESL_IJEEEEESt17_Rb_tree_iteratorISA_ESt23_Rb_tree_const_iteratorISA_EDpOT_+0x4e0>
	mov    %rbx,%rdi
	call   <_ZSt18_Rb_tree_incrementPSt18_Rb_tree_node_base@plt>
	mov    0x10(%rsp),%r11
	mov    0x18(%rsp),%r10
	mov    0x28(%rax),%rcx
	mov    %rax,%r9
	cmp    %rcx,%r12
	mov    %rcx,%rdx
	cmovbe %r12,%rdx
	test   %rdx,%rdx
	je     <_ZNSt8_Rb_treeINSt7__cxx1112basic_stringIcSt11char_traitsIcESaIcEEESt4pairIKS5_N9benchmark7CounterEESt10_Select1stISA_ESt4lessIS5_ESaISA_EE22_M_emplace_hint_uniqueIJRKSt21piecewise_construct_tSt5tupleIJOS5_EESL_IJEEEEESt17_Rb_tree_iteratorISA_ESt23_Rb_tree_const_iteratorISA_EDpOT_+0x308>
	mov    0x20(%rax),%rsi
	mov    %r13,%rdi
	mov    %r10,0x28(%rsp)
	mov    %r11,0x20(%rsp)
	mov    %rcx,0x18(%rsp)
	mov    %rax,0x10(%rsp)
	call   <memcmp@plt>
	mov    0x10(%rsp),%r9
	mov    0x18(%rsp),%rcx
	test   %eax,%eax
	mov    0x20(%rsp),%r11
	mov    0x28(%rsp),%r10
	jne    <_ZNSt8_Rb_treeINSt7__cxx1112basic_stringIcSt11char_traitsIcESaIcEEESt4pairIKS5_N9benchmark7CounterEESt10_Select1stISA_ESt4lessIS5_ESaISA_EE22_M_emplace_hint_uniqueIJRKSt21piecewise_construct_tSt5tupleIJOS5_EESL_IJEEEEESt17_Rb_tree_iteratorISA_ESt23_Rb_tree_const_iteratorISA_EDpOT_+0x4f0>
	mov    %r12,%rax
	sub    %rcx,%rax
	cmp    $0x7fffffff,%rax
	jg     <_ZNSt8_Rb_treeINSt7__cxx1112basic_stringIcSt11char_traitsIcESaIcEEESt4pairIKS5_N9benchmark7CounterEESt10_Select1stISA_ESt4lessIS5_ESaISA_EE22_M_emplace_hint_uniqueIJRKSt21piecewise_construct_tSt5tupleIJOS5_EESL_IJEEEEESt17_Rb_tree_iteratorISA_ESt23_Rb_tree_const_iteratorISA_EDpOT_+0x23b>
	cmp    $0xffffffff80000000,%rax
	jl     <_ZNSt8_Rb_treeINSt7__cxx1112basic_stringIcSt11char_traitsIcESaIcEEESt4pairIKS5_N9benchmark7CounterEESt10_Select1stISA_ESt4lessIS5_ESaISA_EE22_M_emplace_hint_uniqueIJRKSt21piecewise_construct_tSt5tupleIJOS5_EESL_IJEEEEESt17_Rb_tree_iteratorISA_ESt23_Rb_tree_const_iteratorISA_EDpOT_+0x32a>
	test   %eax,%eax
	jns    <_ZNSt8_Rb_treeINSt7__cxx1112basic_stringIcSt11char_traitsIcESaIcEEESt4pairIKS5_N9benchmark7CounterEESt10_Select1stISA_ESt4lessIS5_ESaISA_EE22_M_emplace_hint_uniqueIJRKSt21piecewise_construct_tSt5tupleIJOS5_EESL_IJEEEEESt17_Rb_tree_iteratorISA_ESt23_Rb_tree_const_iteratorISA_EDpOT_+0x23b>
	cmpq   $0x0,0x18(%rbx)
	mov    %r9,%rcx
	jne    <_ZNSt8_Rb_treeINSt7__cxx1112basic_stringIcSt11char_traitsIcESaIcEEESt4pairIKS5_N9benchmark7CounterEESt10_Select1stISA_ESt4lessIS5_ESaISA_EE22_M_emplace_hint_uniqueIJRKSt21piecewise_construct_tSt5tupleIJOS5_EESL_IJEEEEESt17_Rb_tree_iteratorISA_ESt23_Rb_tree_const_iteratorISA_EDpOT_+0x24f>
	jmp    <_ZNSt8_Rb_treeINSt7__cxx1112basic_stringIcSt11char_traitsIcESaIcEEESt4pairIKS5_N9benchmark7CounterEESt10_Select1stISA_ESt4lessIS5_ESaISA_EE22_M_emplace_hint_uniqueIJRKSt21piecewise_construct_tSt5tupleIJOS5_EESL_IJEEEEESt17_Rb_tree_iteratorISA_ESt23_Rb_tree_const_iteratorISA_EDpOT_+0x504>
	nopl   (%rax)
	mov    0x20(%rbp),%r9
	mov    0x28(%r9),%rbx
	cmp    %rbx,%r12
	mov    %rbx,%rdx
	cmovbe %r12,%rdx
	test   %rdx,%rdx
	je     <_ZNSt8_Rb_treeINSt7__cxx1112basic_stringIcSt11char_traitsIcESaIcEEESt4pairIKS5_N9benchmark7CounterEESt10_Select1stISA_ESt4lessIS5_ESaISA_EE22_M_emplace_hint_uniqueIJRKSt21piecewise_construct_tSt5tupleIJOS5_EESL_IJEEEEESt17_Rb_tree_iteratorISA_ESt23_Rb_tree_const_iteratorISA_EDpOT_+0x4b8>
	mov    0x20(%r9),%rdi
	mov    %r13,%rsi
	mov    %r9,0x8(%rsp)
	call   <memcmp@plt>
	mov    0x8(%rsp),%r9
	test   %eax,%eax
	jne    <_ZNSt8_Rb_treeINSt7__cxx1112basic_stringIcSt11char_traitsIcESaIcEEESt4pairIKS5_N9benchmark7CounterEESt10_Select1stISA_ESt4lessIS5_ESaISA_EE22_M_emplace_hint_uniqueIJRKSt21piecewise_construct_tSt5tupleIJOS5_EESL_IJEEEEESt17_Rb_tree_iteratorISA_ESt23_Rb_tree_const_iteratorISA_EDpOT_+0x390>
	sub    %r12,%rbx
	cmp    $0x7fffffff,%rbx
	jg     <_ZNSt8_Rb_treeINSt7__cxx1112basic_stringIcSt11char_traitsIcESaIcEEESt4pairIKS5_N9benchmark7CounterEESt10_Select1stISA_ESt4lessIS5_ESaISA_EE22_M_emplace_hint_uniqueIJRKSt21piecewise_construct_tSt5tupleIJOS5_EESL_IJEEEEESt17_Rb_tree_iteratorISA_ESt23_Rb_tree_const_iteratorISA_EDpOT_+0x23b>
	cmp    $0xffffffff80000000,%rbx
	jl     <_ZNSt8_Rb_treeINSt7__cxx1112basic_stringIcSt11char_traitsIcESaIcEEESt4pairIKS5_N9benchmark7CounterEESt10_Select1stISA_ESt4lessIS5_ESaISA_EE22_M_emplace_hint_uniqueIJRKSt21piecewise_construct_tSt5tupleIJOS5_EESL_IJEEEEESt17_Rb_tree_iteratorISA_ESt23_Rb_tree_const_iteratorISA_EDpOT_+0x396>
	test   %ebx,%ebx
	jns    <_ZNSt8_Rb_treeINSt7__cxx1112basic_stringIcSt11char_traitsIcESaIcEEESt4pairIKS5_N9benchmark7CounterEESt10_Select1stISA_ESt4lessIS5_ESaISA_EE22_M_emplace_hint_uniqueIJRKSt21piecewise_construct_tSt5tupleIJOS5_EESL_IJEEEEESt17_Rb_tree_iteratorISA_ESt23_Rb_tree_const_iteratorISA_EDpOT_+0x23b>
	xor    %ecx,%ecx
	jmp    <_ZNSt8_Rb_treeINSt7__cxx1112basic_stringIcSt11char_traitsIcESaIcEEESt4pairIKS5_N9benchmark7CounterEESt10_Select1stISA_ESt4lessIS5_ESaISA_EE22_M_emplace_hint_uniqueIJRKSt21piecewise_construct_tSt5tupleIJOS5_EESL_IJEEEEESt17_Rb_tree_iteratorISA_ESt23_Rb_tree_const_iteratorISA_EDpOT_+0x258>
	nopl   (%rax)
	mov    0x28(%r9),%r10
	mov    0x20(%r9),%rax
	cmp    %r10,%r12
	mov    %r10,%r11
	mov    %rax,0x8(%rsp)
	cmovbe %r12,%r11
	test   %r11,%r11
	je     <_ZNSt8_Rb_treeINSt7__cxx1112basic_stringIcSt11char_traitsIcESaIcEEESt4pairIKS5_N9benchmark7CounterEESt10_Select1stISA_ESt4lessIS5_ESaISA_EE22_M_emplace_hint_uniqueIJRKSt21piecewise_construct_tSt5tupleIJOS5_EESL_IJEEEEESt17_Rb_tree_iteratorISA_ESt23_Rb_tree_const_iteratorISA_EDpOT_+0x3e6>
	mov    0x8(%rsp),%rsi
	mov    %r13,%rdi
	mov    %r11,%rdx
	mov    %r10,0x18(%rsp)
	mov    %r9,0x10(%rsp)
	call   <memcmp@plt>
	mov    0x10(%rsp),%r9
	mov    0x18(%rsp),%r10
	test   %eax,%eax
	mov    %eax,%edi
	jne    <_ZNSt8_Rb_treeINSt7__cxx1112basic_stringIcSt11char_traitsIcESaIcEEESt4pairIKS5_N9benchmark7CounterEESt10_Select1stISA_ESt4lessIS5_ESaISA_EE22_M_emplace_hint_uniqueIJRKSt21piecewise_construct_tSt5tupleIJOS5_EESL_IJEEEEESt17_Rb_tree_iteratorISA_ESt23_Rb_tree_const_iteratorISA_EDpOT_+0x408>
	sub    %r10,%r12
	xor    %edi,%edi
	cmp    $0x7fffffff,%r12
	jg     <_ZNSt8_Rb_treeINSt7__cxx1112basic_stringIcSt11char_traitsIcESaIcEEESt4pairIKS5_N9benchmark7CounterEESt10_Select1stISA_ESt4lessIS5_ESaISA_EE22_M_emplace_hint_uniqueIJRKSt21piecewise_construct_tSt5tupleIJOS5_EESL_IJEEEEESt17_Rb_tree_iteratorISA_ESt23_Rb_tree_const_iteratorISA_EDpOT_+0x271>
	cmp    $0xffffffff80000000,%r12
	jl     <_ZNSt8_Rb_treeINSt7__cxx1112basic_stringIcSt11char_traitsIcESaIcEEESt4pairIKS5_N9benchmark7CounterEESt10_Select1stISA_ESt4lessIS5_ESaISA_EE22_M_emplace_hint_uniqueIJRKSt21piecewise_construct_tSt5tupleIJOS5_EESL_IJEEEEESt17_Rb_tree_iteratorISA_ESt23_Rb_tree_const_iteratorISA_EDpOT_+0x26c>
	mov    %r12d,%edi
	shr    $0x1f,%edi
	jmp    <_ZNSt8_Rb_treeINSt7__cxx1112basic_stringIcSt11char_traitsIcESaIcEEESt4pairIKS5_N9benchmark7CounterEESt10_Select1stISA_ESt4lessIS5_ESaISA_EE22_M_emplace_hint_uniqueIJRKSt21piecewise_construct_tSt5tupleIJOS5_EESL_IJEEEEESt17_Rb_tree_iteratorISA_ESt23_Rb_tree_const_iteratorISA_EDpOT_+0x271>
	mov    0x8(%rax),%rcx
	lea    0x1(%rcx),%rsi
	cmp    $0x8,%esi
	jae    <_ZNSt8_Rb_treeINSt7__cxx1112basic_stringIcSt11char_traitsIcESaIcEEESt4pairIKS5_N9benchmark7CounterEESt10_Select1stISA_ESt4lessIS5_ESaISA_EE22_M_emplace_hint_uniqueIJRKSt21piecewise_construct_tSt5tupleIJOS5_EESL_IJEEEEESt17_Rb_tree_iteratorISA_ESt23_Rb_tree_const_iteratorISA_EDpOT_+0x460>
	test   $0x4,%sil
	jne    <_ZNSt8_Rb_treeINSt7__cxx1112basic_stringIcSt11char_traitsIcESaIcEEESt4pairIKS5_N9benchmark7CounterEESt10_Select1stISA_ESt4lessIS5_ESaISA_EE22_M_emplace_hint_uniqueIJRKSt21piecewise_construct_tSt5tupleIJOS5_EESL_IJEEEEESt17_Rb_tree_iteratorISA_ESt23_Rb_tree_const_iteratorISA_EDpOT_+0x50c>
	test   %esi,%esi
	je     <_ZNSt8_Rb_treeINSt7__cxx1112basic_stringIcSt11char_traitsIcESaIcEEESt4pairIKS5_N9benchmark7CounterEESt10_Select1stISA_ESt4lessIS5_ESaISA_EE22_M_emplace_hint_uniqueIJRKSt21piecewise_construct_tSt5tupleIJOS5_EESL_IJEEEEESt17_Rb_tree_iteratorISA_ESt23_Rb_tree_const_iteratorISA_EDpOT_+0x54>
	movzbl 0x10(%rax),%ecx
	mov    %cl,0x30(%r14)
	test   $0x2,%sil
	je     <_ZNSt8_Rb_treeINSt7__cxx1112basic_stringIcSt11char_traitsIcESaIcEEESt4pairIKS5_N9benchmark7CounterEESt10_Select1stISA_ESt4lessIS5_ESaISA_EE22_M_emplace_hint_uniqueIJRKSt21piecewise_construct_tSt5tupleIJOS5_EESL_IJEEEEESt17_Rb_tree_iteratorISA_ESt23_Rb_tree_const_iteratorISA_EDpOT_+0x50>
	mov    %esi,%esi
	movzwl -0x2(%rdx,%rsi,1),%ecx
	mov    %cx,-0x2(%r15,%rsi,1)
	mov    0x8(%rax),%rcx
	jmp    <_ZNSt8_Rb_treeINSt7__cxx1112basic_stringIcSt11char_traitsIcESaIcEEESt4pairIKS5_N9benchmark7CounterEESt10_Select1stISA_ESt4lessIS5_ESaISA_EE22_M_emplace_hint_uniqueIJRKSt21piecewise_construct_tSt5tupleIJOS5_EESL_IJEEEEESt17_Rb_tree_iteratorISA_ESt23_Rb_tree_const_iteratorISA_EDpOT_+0x54>
	nopw   0x0(%rax,%rax,1)
	mov    0x10(%rax),%rcx
	mov    %rdx,%r10
	mov    %rcx,0x30(%r14)
	mov    %esi,%ecx
	mov    -0x8(%rdx,%rcx,1),%rdi
	mov    %rdi,-0x8(%r15,%rcx,1)
	lea    0x38(%r14),%rcx
	mov    %r15,%rdi
	and    $0xfffffffffffffff8,%rcx
	sub    %rcx,%rdi
	add    %edi,%esi
	sub    %rdi,%r10
	and    $0xfffffff8,%esi
	cmp    $0x8,%esi
	jb     <_ZNSt8_Rb_treeINSt7__cxx1112basic_stringIcSt11char_traitsIcESaIcEEESt4pairIKS5_N9benchmark7CounterEESt10_Select1stISA_ESt4lessIS5_ESaISA_EE22_M_emplace_hint_uniqueIJRKSt21piecewise_construct_tSt5tupleIJOS5_EESL_IJEEEEESt17_Rb_tree_iteratorISA_ESt23_Rb_tree_const_iteratorISA_EDpOT_+0x50>
	and    $0xfffffff8,%esi
	xor    %edi,%edi
	mov    %edi,%r9d
	add    $0x8,%edi
	mov    (%r10,%r9,1),%r11
	mov    %r11,(%rcx,%r9,1)
	cmp    %esi,%edi
	jb     <_ZNSt8_Rb_treeINSt7__cxx1112basic_stringIcSt11char_traitsIcESaIcEEESt4pairIKS5_N9benchmark7CounterEESt10_Select1stISA_ESt4lessIS5_ESaISA_EE22_M_emplace_hint_uniqueIJRKSt21piecewise_construct_tSt5tupleIJOS5_EESL_IJEEEEESt17_Rb_tree_iteratorISA_ESt23_Rb_tree_const_iteratorISA_EDpOT_+0x49b>
	jmp    <_ZNSt8_Rb_treeINSt7__cxx1112basic_stringIcSt11char_traitsIcESaIcEEESt4pairIKS5_N9benchmark7CounterEESt10_Select1stISA_ESt4lessIS5_ESaISA_EE22_M_emplace_hint_uniqueIJRKSt21piecewise_construct_tSt5tupleIJOS5_EESL_IJEEEEESt17_Rb_tree_iteratorISA_ESt23_Rb_tree_const_iteratorISA_EDpOT_+0x50>
	nopw   0x0(%rax,%rax,1)
	sub    %r12,%rbx
	cmp    $0x7fffffff,%rbx
	jg     <_ZNSt8_Rb_treeINSt7__cxx1112basic_stringIcSt11char_traitsIcESaIcEEESt4pairIKS5_N9benchmark7CounterEESt10_Select1stISA_ESt4lessIS5_ESaISA_EE22_M_emplace_hint_uniqueIJRKSt21piecewise_construct_tSt5tupleIJOS5_EESL_IJEEEEESt17_Rb_tree_iteratorISA_ESt23_Rb_tree_const_iteratorISA_EDpOT_+0x23b>
	cmp    $0xffffffff80000000,%rbx
	jge    <_ZNSt8_Rb_treeINSt7__cxx1112basic_stringIcSt11char_traitsIcESaIcEEESt4pairIKS5_N9benchmark7CounterEESt10_Select1stISA_ESt4lessIS5_ESaISA_EE22_M_emplace_hint_uniqueIJRKSt21piecewise_construct_tSt5tupleIJOS5_EESL_IJEEEEESt17_Rb_tree_iteratorISA_ESt23_Rb_tree_const_iteratorISA_EDpOT_+0x38e>
	nopl   (%rax)
	xor    %eax,%eax
	jmp    <_ZNSt8_Rb_treeINSt7__cxx1112basic_stringIcSt11char_traitsIcESaIcEEESt4pairIKS5_N9benchmark7CounterEESt10_Select1stISA_ESt4lessIS5_ESaISA_EE22_M_emplace_hint_uniqueIJRKSt21piecewise_construct_tSt5tupleIJOS5_EESL_IJEEEEESt17_Rb_tree_iteratorISA_ESt23_Rb_tree_const_iteratorISA_EDpOT_+0x25e>
	nop
	mov    %rbx,%r9
	xor    %ecx,%ecx
	jmp    <_ZNSt8_Rb_treeINSt7__cxx1112basic_stringIcSt11char_traitsIcESaIcEEESt4pairIKS5_N9benchmark7CounterEESt10_Select1stISA_ESt4lessIS5_ESaISA_EE22_M_emplace_hint_uniqueIJRKSt21piecewise_construct_tSt5tupleIJOS5_EESL_IJEEEEESt17_Rb_tree_iteratorISA_ESt23_Rb_tree_const_iteratorISA_EDpOT_+0x258>
	nopw   0x0(%rax,%rax,1)
	jns    <_ZNSt8_Rb_treeINSt7__cxx1112basic_stringIcSt11char_traitsIcESaIcEEESt4pairIKS5_N9benchmark7CounterEESt10_Select1stISA_ESt4lessIS5_ESaISA_EE22_M_emplace_hint_uniqueIJRKSt21piecewise_construct_tSt5tupleIJOS5_EESL_IJEEEEESt17_Rb_tree_iteratorISA_ESt23_Rb_tree_const_iteratorISA_EDpOT_+0x23b>
	cmpq   $0x0,0x18(%rbx)
	mov    %r9,%rcx
	jne    <_ZNSt8_Rb_treeINSt7__cxx1112basic_stringIcSt11char_traitsIcESaIcEEESt4pairIKS5_N9benchmark7CounterEESt10_Select1stISA_ESt4lessIS5_ESaISA_EE22_M_emplace_hint_uniqueIJRKSt21piecewise_construct_tSt5tupleIJOS5_EESL_IJEEEEESt17_Rb_tree_iteratorISA_ESt23_Rb_tree_const_iteratorISA_EDpOT_+0x258>
	mov    %rbx,%r9
	jmp    <_ZNSt8_Rb_treeINSt7__cxx1112basic_stringIcSt11char_traitsIcESaIcEEESt4pairIKS5_N9benchmark7CounterEESt10_Select1stISA_ESt4lessIS5_ESaISA_EE22_M_emplace_hint_uniqueIJRKSt21piecewise_construct_tSt5tupleIJOS5_EESL_IJEEEEESt17_Rb_tree_iteratorISA_ESt23_Rb_tree_const_iteratorISA_EDpOT_+0x3b7>
	mov    0x10(%rax),%ecx
	mov    %esi,%esi
	mov    %ecx,0x30(%r14)
	mov    -0x4(%rdx,%rsi,1),%ecx
	mov    %ecx,-0x4(%r15,%rsi,1)
	mov    0x8(%rax),%rcx
	jmp    <_ZNSt8_Rb_treeINSt7__cxx1112basic_stringIcSt11char_traitsIcESaIcEEESt4pairIKS5_N9benchmark7CounterEESt10_Select1stISA_ESt4lessIS5_ESaISA_EE22_M_emplace_hint_uniqueIJRKSt21piecewise_construct_tSt5tupleIJOS5_EESL_IJEEEEESt17_Rb_tree_iteratorISA_ESt23_Rb_tree_const_iteratorISA_EDpOT_+0x54>
	nopw   0x0(%rax,%rax,1)

<_Z23initialize_and_generateIdLm10000000EEvRSt6vectorIT_SaIS1_EEi>:
	endbr64
	push   %rbp
	mov    %rsp,%rbp
	push   %r15
	push   %r14
	push   %r13
	mov    %rdi,%r13
	push   %r12
	mov    %esi,%r12d
	push   %rbx
	and    $0xffffffffffffffe0,%rsp
	sub    $0x20,%rsp
	mov    0x8(%rdi),%rax
	mov    (%rdi),%rbx
	mov    %rax,%r15
	sub    %rbx,%r15
	cmp    $0x4c4b3f8,%r15
	jbe    <_Z23initialize_and_generateIdLm10000000EEvRSt6vectorIT_SaIS1_EEi+0xc0>
	lea    0x4c4b400(%rbx),%rcx
	cmp    $0x4c4b400,%r15
	jbe    <_Z23initialize_and_generateIdLm10000000EEvRSt6vectorIT_SaIS1_EEi+0x52>
	cmp    %rcx,%rax
	je     <_Z23initialize_and_generateIdLm10000000EEvRSt6vectorIT_SaIS1_EEi+0x52>
	mov    %rcx,0x8(%rdi)
	vmovd  %r12d,%xmm1
	mov    $0x8,%edx
	mov    %rbx,%rax
	vpbroadcastd %xmm1,%ymm1
	vmovd  %edx,%xmm3
	vpaddd 0x55070(%rip),%ymm1,%ymm1        # <_ZSt19piecewise_construct+0x1f>
	vpbroadcastd %xmm3,%ymm3
	data16 cs nopw 0x0(%rax,%rax,1)
	vmovdqa %ymm1,%ymm0
	add    $0x40,%rax
	vpaddd %ymm3,%ymm1,%ymm1
	vcvtdq2pd %xmm0,%ymm2
	vextracti128 $0x1,%ymm0,%xmm0
	vmovupd %ymm2,-0x40(%rax)
	vcvtdq2pd %xmm0,%ymm0
	vmovupd %ymm0,-0x20(%rax)
	cmp    %rcx,%rax
	jne    <_Z23initialize_and_generateIdLm10000000EEvRSt6vectorIT_SaIS1_EEi+0x80>
	vzeroupper
	lea    -0x28(%rbp),%rsp
	pop    %rbx
	pop    %r12
	pop    %r13
	pop    %r14
	pop    %r15
	pop    %rbp
	ret
	nopl   0x0(%rax,%rax,1)
	mov    0x10(%r13),%rcx
	mov    %r15,%rdi
	mov    $0x989680,%edx
	mov    $0x98967f,%esi
	sar    $0x3,%rdi
	sub    %rax,%rcx
	sub    %rdi,%rdx
	sub    %rdi,%rsi
	sar    $0x3,%rcx
	cmp    %rdx,%rcx
	jae    <_Z23initialize_and_generateIdLm10000000EEvRSt6vectorIT_SaIS1_EEi+0x180>
	cmp    %rdx,%rdi
	mov    %rsi,0x18(%rsp)
	cmovae %rdi,%rdx
	mov    %rdx,%r14
	add    %rdi,%r14
	shl    $0x3,%r14
	mov    %r14,%rdi
	call   <_Znwm@plt>
	mov    %rax,%r8
	lea    (%rax,%r15,1),%rax
	movq   $0x0,(%rax)
	cmp    $0x4c4b3f8,%r15
	je     <_Z23initialize_and_generateIdLm10000000EEvRSt6vectorIT_SaIS1_EEi+0x1b8>
	mov    0x18(%rsp),%rsi
	lea    0x8(%rax),%rdi
	mov    %r8,0x10(%rsp)
	lea    0x0(,%rsi,8),%rdx
	xor    %esi,%esi
	call   <memset@plt>
	test   %r15,%r15
	mov    0x10(%rsp),%r8
	jne    <_Z23initialize_and_generateIdLm10000000EEvRSt6vectorIT_SaIS1_EEi+0x1b8>
	test   %rbx,%rbx
	jne    <_Z23initialize_and_generateIdLm10000000EEvRSt6vectorIT_SaIS1_EEi+0x1e7>
	lea    0x4c4b400(%r8),%rcx
	vmovq  %r8,%xmm4
	add    %r8,%r14
	mov    %r8,%rbx
	vpinsrq $0x1,%rcx,%xmm4,%xmm0
	mov    %r14,0x10(%r13)
	vmovdqu %xmm0,0x0(%r13)
	jmp    <_Z23initialize_and_generateIdLm10000000EEvRSt6vectorIT_SaIS1_EEi+0x52>
	nopl   0x0(%rax,%rax,1)
	movq   $0x0,(%rax)
	lea    0x8(%rax),%rdi
	test   %rsi,%rsi
	je     <_Z23initialize_and_generateIdLm10000000EEvRSt6vectorIT_SaIS1_EEi+0x1a8>
	lea    (%rdi,%rsi,8),%r14
	xor    %esi,%esi
	mov    %r14,%rdx
	sub    %rax,%rdx
	sub    $0x8,%rdx
	call   <memset@plt>
	mov    %r14,%rdi
	mov    %rdi,0x8(%r13)
	lea    0x4c4b400(%rbx),%rcx
	jmp    <_Z23initialize_and_generateIdLm10000000EEvRSt6vectorIT_SaIS1_EEi+0x52>
	mov    %rbx,%rsi
	mov    %r8,%rdi
	mov    %r15,%rdx
	call   <memcpy@plt>
	mov    0x10(%r13),%rsi
	mov    %rax,%r8
	sub    %rbx,%rsi
	mov    %rbx,%rdi
	mov    %r8,0x18(%rsp)
	call   <_ZdlPvm@plt>
	mov    0x18(%rsp),%r8
	jmp    <_Z23initialize_and_generateIdLm10000000EEvRSt6vectorIT_SaIS1_EEi+0x154>
	mov    0x10(%r13),%rsi
	sub    %rbx,%rsi
	jmp    <_Z23initialize_and_generateIdLm10000000EEvRSt6vectorIT_SaIS1_EEi+0x1d0>

<_ZNSt23mersenne_twister_engineImLm32ELm624ELm397ELm31ELm2567483615ELm11ELm4294967295ELm7ELm2636928640ELm15ELm4022730752ELm18ELm1812433253EE11_M_gen_randEv>:
	endbr64
	mov    $0xffffffff80000000,%rsi
	mov    %rdi,%rcx
	lea    0x700(%rdi),%rdx
	mov    %rdi,%rax
	vmovq  %rsi,%xmm7
	mov    $0x1,%edi
	mov    $0x7fffffff,%esi
	vmovq  %rsi,%xmm8
	vmovq  %rdi,%xmm9
	vpbroadcastq %xmm7,%ymm4
	vpbroadcastq %xmm8,%ymm3
	vpbroadcastq %xmm9,%ymm2
	vpand  0x8(%rax),%ymm3,%ymm0
	vpand  (%rax),%ymm4,%ymm5
	add    $0x20,%rax
	vpor   %ymm0,%ymm5,%ymm5
	vpsrlq $0x1,%ymm5,%ymm1
	vpand  %ymm2,%ymm5,%ymm5
	vpsllq $0x3,%ymm5,%ymm0
	vpxor  0xc48(%rax),%ymm1,%ymm1
	vpaddq %ymm5,%ymm0,%ymm0
	vpsllq $0x9,%ymm0,%ymm0
	vpaddq %ymm5,%ymm0,%ymm0
	vpsllq $0x5,%ymm0,%ymm0
	vpaddq %ymm5,%ymm0,%ymm0
	vpsllq $0x2,%ymm0,%ymm0
	vpsubq %ymm5,%ymm0,%ymm0
	vpsllq $0x3,%ymm0,%ymm0
	vpsubq %ymm5,%ymm0,%ymm0
	vpsllq $0x4,%ymm0,%ymm6
	vpaddq %ymm6,%ymm0,%ymm0
	vpsllq $0x5,%ymm0,%ymm0
	vpsubq %ymm5,%ymm0,%ymm0
	vpxor  %ymm0,%ymm1,%ymm1
	vmovdqu %ymm1,-0x20(%rax)
	cmp    %rax,%rdx
	jne    <_ZNSt23mersenne_twister_engineImLm32ELm624ELm397ELm31ELm2567483615ELm11ELm4294967295ELm7ELm2636928640ELm15ELm4022730752ELm18ELm1812433253EE11_M_gen_randEv+0x40>
	vpunpcklqdq %xmm7,%xmm7,%xmm1
	vpunpcklqdq %xmm8,%xmm8,%xmm0
	vpunpcklqdq %xmm9,%xmm9,%xmm9
	mov    0x710(%rcx),%rax
	vpand  0x708(%rcx),%xmm0,%xmm0
	vpand  0x700(%rcx),%xmm1,%xmm1
	mov    0x718(%rcx),%rdx
	and    $0xffffffff80000000,%rax
	vpbroadcastq 0x54e66(%rip),%ymm4        # <_ZSt19piecewise_construct+0x7f>
	vpor   %xmm0,%xmm1,%xmm1
	vpsrlq $0x1,%xmm1,%xmm2
	vpand  %xmm9,%xmm1,%xmm1
	and    $0x7fffffff,%edx
	vpsllq $0x3,%xmm1,%xmm0
	or     %rdx,%rax
	vpxor  0x1368(%rcx),%xmm2,%xmm2
	vpaddq %xmm1,%xmm0,%xmm0
	mov    %rax,%rdx
	and    $0x1,%eax
	vpsllq $0x9,%xmm0,%xmm0
	shr    $1,%rdx
	neg    %rax
	vpaddq %xmm1,%xmm0,%xmm0
	xor    0x1378(%rcx),%rdx
	and    $0x9908b0df,%eax
	vpsllq $0x5,%xmm0,%xmm0
	xor    %rdx,%rax
	lea    0x1378(%rcx),%rdx
	vpaddq %xmm1,%xmm0,%xmm0
	mov    %rax,0x710(%rcx)
	lea    0x718(%rcx),%rax
	vpsllq $0x2,%xmm0,%xmm0
	vpsubq %xmm1,%xmm0,%xmm0
	vpsllq $0x3,%xmm0,%xmm0
	vpsubq %xmm1,%xmm0,%xmm0
	vpsllq $0x4,%xmm0,%xmm3
	vpaddq %xmm3,%xmm0,%xmm0
	vpbroadcastq 0x54de0(%rip),%ymm3        # <_ZSt19piecewise_construct+0x87>
	vpsllq $0x5,%xmm0,%xmm0
	vpsubq %xmm1,%xmm0,%xmm0
	vpxor  %xmm0,%xmm2,%xmm2
	vmovdqu %xmm2,0x700(%rcx)
	vpbroadcastq 0x54dca(%rip),%ymm2        # <_ZSt19piecewise_construct+0x8f>
	cs nopw 0x0(%rax,%rax,1)
	vpand  0x8(%rax),%ymm3,%ymm0
	vpand  (%rax),%ymm4,%ymm5
	add    $0x20,%rax
	vpor   %ymm0,%ymm5,%ymm5
	vpsrlq $0x1,%ymm5,%ymm1
	vpand  %ymm2,%ymm5,%ymm5
	vpsllq $0x3,%ymm5,%ymm0
	vpxor  -0x738(%rax),%ymm1,%ymm1
	vpaddq %ymm5,%ymm0,%ymm0
	vpsllq $0x9,%ymm0,%ymm0
	vpaddq %ymm5,%ymm0,%ymm0
	vpsllq $0x5,%ymm0,%ymm0
	vpaddq %ymm5,%ymm0,%ymm0
	vpsllq $0x2,%ymm0,%ymm0
	vpsubq %ymm5,%ymm0,%ymm0
	vpsllq $0x3,%ymm0,%ymm0
	vpsubq %ymm5,%ymm0,%ymm0
	vpsllq $0x4,%ymm0,%ymm6
	vpaddq %ymm6,%ymm0,%ymm0
	vpsllq $0x5,%ymm0,%ymm0
	vpsubq %ymm5,%ymm0,%ymm0
	vpxor  %ymm0,%ymm1,%ymm1
	vmovdqu %ymm1,-0x20(%rax)
	cmp    %rax,%rdx
	jne    <_ZNSt23mersenne_twister_engineImLm32ELm624ELm397ELm31ELm2567483615ELm11ELm4294967295ELm7ELm2636928640ELm15ELm4022730752ELm18ELm1812433253EE11_M_gen_randEv+0x1a0>
	mov    0x1378(%rcx),%rax
	mov    (%rcx),%rdx
	movq   $0x0,0x1380(%rcx)
	and    $0x7fffffff,%edx
	and    $0xffffffff80000000,%rax
	or     %rdx,%rax
	mov    %rax,%rdx
	and    $0x1,%eax
	shr    $1,%rdx
	neg    %rax
	xor    0xc60(%rcx),%rdx
	and    $0x9908b0df,%eax
	xor    %rdx,%rax
	mov    %rax,0x1378(%rcx)
	vzeroupper
	ret
	nopl   0x0(%rax)

<_ZNSt24uniform_int_distributionImEclISt23mersenne_twister_engineImLm32ELm624ELm397ELm31ELm2567483615ELm11ELm4294967295ELm7ELm2636928640ELm15ELm4022730752ELm18ELm1812433253EEEEmRT_RKNS0_10param_typeE.isra.0>:
	push   %r15
	sub    %rsi,%rdx
	mov    $0xfffffffe,%eax
	push   %r14
	push   %r13
	mov    %rdx,%r13
	push   %r12
	mov    %rdi,%r12
	push   %rbp
	mov    %rsi,%rbp
	push   %rbx
	sub    $0x8,%rsp
	cmp    %rdx,%rax
	jae    <_ZNSt24uniform_int_distributionImEclISt23mersenne_twister_engineImLm32ELm624ELm397ELm31ELm2567483615ELm11ELm4294967295ELm7ELm2636928640ELm15ELm4022730752ELm18ELm1812433253EEEEmRT_RKNS0_10param_typeE.isra.0+0xe8>
	mov    $0xffffffff,%eax
	cmp    %rax,%rdx
	je     <_ZNSt24uniform_int_distributionImEclISt23mersenne_twister_engineImLm32ELm624ELm397ELm31ELm2567483615ELm11ELm4294967295ELm7ELm2636928640ELm15ELm4022730752ELm18ELm1812433253EEEEmRT_RKNS0_10param_typeE.isra.0+0x1e8>
	mov    %rdx,%r14
	shr    $0x20,%r14
	mov    %r14,%rdx
	xor    %esi,%esi
	mov    %r12,%rdi
	call   <_ZNSt24uniform_int_distributionImEclISt23mersenne_twister_engineImLm32ELm624ELm397ELm31ELm2567483615ELm11ELm4294967295ELm7ELm2636928640ELm15ELm4022730752ELm18ELm1812433253EEEEmRT_RKNS0_10param_typeE.isra.0>
	shl    $0x20,%rax
	mov    %rax,%rbx
	mov    0x1380(%r12),%rax
	cmp    $0x26f,%rax
	jbe    <_ZNSt24uniform_int_distributionImEclISt23mersenne_twister_engineImLm32ELm624ELm397ELm31ELm2567483615ELm11ELm4294967295ELm7ELm2636928640ELm15ELm4022730752ELm18ELm1812433253EEEEmRT_RKNS0_10param_typeE.isra.0+0x71>
	mov    %r12,%rdi
	call   <_ZNSt23mersenne_twister_engineImLm32ELm624ELm397ELm31ELm2567483615ELm11ELm4294967295ELm7ELm2636928640ELm15ELm4022730752ELm18ELm1812433253EE11_M_gen_randEv>
	mov    0x1380(%r12),%rax
	lea    0x1(%rax),%rdx
	mov    (%r12,%rax,8),%rax
	mov    %rdx,0x1380(%r12)
	mov    %rax,%rdx
	shr    $0xb,%rdx
	mov    %edx,%edx
	xor    %rdx,%rax
	mov    %rax,%rdx
	shl    $0x7,%rdx
	and    $0x9d2c5680,%edx
	xor    %rdx,%rax
	mov    %rax,%rdx
	shl    $0xf,%rdx
	and    $0xefc60000,%edx
	xor    %rdx,%rax
	mov    %rax,%rdx
	shr    $0x12,%rdx
	xor    %rdx,%rax
	add    %rax,%rbx
	setb   %al
	movzbl %al,%eax
	cmp    %rbx,%r13
	jb     <_ZNSt24uniform_int_distributionImEclISt23mersenne_twister_engineImLm32ELm624ELm397ELm31ELm2567483615ELm11ELm4294967295ELm7ELm2636928640ELm15ELm4022730752ELm18ELm1812433253EEEEmRT_RKNS0_10param_typeE.isra.0+0x3d>
	test   %rax,%rax
	jne    <_ZNSt24uniform_int_distributionImEclISt23mersenne_twister_engineImLm32ELm624ELm397ELm31ELm2567483615ELm11ELm4294967295ELm7ELm2636928640ELm15ELm4022730752ELm18ELm1812433253EEEEmRT_RKNS0_10param_typeE.isra.0+0x3d>
	add    $0x8,%rsp
	lea    (%rbx,%rbp,1),%rax
	pop    %rbx
	pop    %rbp
	pop    %r12
	pop    %r13
	pop    %r14
	pop    %r15
	ret
	nopl   (%rax)
	mov    0x1380(%rdi),%rax
	inc    %r13
	mov    %r13d,%r15d
	cmp    $0x26f,%rax
	ja     <_ZNSt24uniform_int_distributionImEclISt23mersenne_twister_engineImLm32ELm624ELm397ELm31ELm2567483615ELm11ELm4294967295ELm7ELm2636928640ELm15ELm4022730752ELm18ELm1812433253EEEEmRT_RKNS0_10param_typeE.isra.0+0x240>
	mov    (%r12,%rax,8),%rbx
	lea    0x1(%rax),%rcx
	mov    %rcx,0x1380(%r12)
	mov    %rbx,%rax
	shr    $0xb,%rax
	mov    %eax,%eax
	xor    %rax,%rbx
	mov    %rbx,%rax
	shl    $0x7,%rax
	and    $0x9d2c5680,%eax
	xor    %rax,%rbx
	mov    %rbx,%rax
	shl    $0xf,%rax
	and    $0xefc60000,%eax
	xor    %rax,%rbx
	mov    %rbx,%rax
	shr    $0x12,%rax
	xor    %rax,%rbx
	imul   %r13,%rbx
	cmp    %r13d,%ebx
	jae    <_ZNSt24uniform_int_distributionImEclISt23mersenne_twister_engineImLm32ELm624ELm397ELm31ELm2567483615ELm11ELm4294967295ELm7ELm2636928640ELm15ELm4022730752ELm18ELm1812433253EEEEmRT_RKNS0_10param_typeE.isra.0+0x1d8>
	mov    %r13d,%eax
	xor    %edx,%edx
	neg    %eax
	div    %r15d
	mov    %edx,%r14d
	cmp    %edx,%ebx
	jb     <_ZNSt24uniform_int_distributionImEclISt23mersenne_twister_engineImLm32ELm624ELm397ELm31ELm2567483615ELm11ELm4294967295ELm7ELm2636928640ELm15ELm4022730752ELm18ELm1812433253EEEEmRT_RKNS0_10param_typeE.isra.0+0x1b5>
	jmp    <_ZNSt24uniform_int_distributionImEclISt23mersenne_twister_engineImLm32ELm624ELm397ELm31ELm2567483615ELm11ELm4294967295ELm7ELm2636928640ELm15ELm4022730752ELm18ELm1812433253EEEEmRT_RKNS0_10param_typeE.isra.0+0x1d8>
	nopl   (%rax)
	mov    (%r12,%rax,8),%rbx
	lea    0x1(%rax),%rcx
	mov    %rcx,0x1380(%r12)
	mov    %rbx,%rax
	shr    $0xb,%rax
	mov    %eax,%eax
	xor    %rax,%rbx
	mov    %rbx,%rax
	shl    $0x7,%rax
	and    $0x9d2c5680,%eax
	xor    %rax,%rbx
	mov    %rbx,%rax
	shl    $0xf,%rax
	and    $0xefc60000,%eax
	xor    %rax,%rbx
	mov    %rbx,%rax
	shr    $0x12,%rax
	xor    %rax,%rbx
	imul   %r13,%rbx
	cmp    %r14d,%ebx
	jae    <_ZNSt24uniform_int_distributionImEclISt23mersenne_twister_engineImLm32ELm624ELm397ELm31ELm2567483615ELm11ELm4294967295ELm7ELm2636928640ELm15ELm4022730752ELm18ELm1812433253EEEEmRT_RKNS0_10param_typeE.isra.0+0x1d8>
	mov    %rcx,%rax
	cmp    $0x26f,%rcx
	jbe    <_ZNSt24uniform_int_distributionImEclISt23mersenne_twister_engineImLm32ELm624ELm397ELm31ELm2567483615ELm11ELm4294967295ELm7ELm2636928640ELm15ELm4022730752ELm18ELm1812433253EEEEmRT_RKNS0_10param_typeE.isra.0+0x168>
	mov    %r12,%rdi
	call   <_ZNSt23mersenne_twister_engineImLm32ELm624ELm397ELm31ELm2567483615ELm11ELm4294967295ELm7ELm2636928640ELm15ELm4022730752ELm18ELm1812433253EE11_M_gen_randEv>
	mov    0x1380(%r12),%rax
	jmp    <_ZNSt24uniform_int_distributionImEclISt23mersenne_twister_engineImLm32ELm624ELm397ELm31ELm2567483615ELm11ELm4294967295ELm7ELm2636928640ELm15ELm4022730752ELm18ELm1812433253EEEEmRT_RKNS0_10param_typeE.isra.0+0x168>
	nopl   0x0(%rax,%rax,1)
	shr    $0x20,%rbx
	jmp    <_ZNSt24uniform_int_distributionImEclISt23mersenne_twister_engineImLm32ELm624ELm397ELm31ELm2567483615ELm11ELm4294967295ELm7ELm2636928640ELm15ELm4022730752ELm18ELm1812433253EEEEmRT_RKNS0_10param_typeE.isra.0+0xd2>
	nopl   0x0(%rax)
	mov    0x1380(%rdi),%rax
	cmp    $0x26f,%rax
	ja     <_ZNSt24uniform_int_distributionImEclISt23mersenne_twister_engineImLm32ELm624ELm397ELm31ELm2567483615ELm11ELm4294967295ELm7ELm2636928640ELm15ELm4022730752ELm18ELm1812433253EEEEmRT_RKNS0_10param_typeE.isra.0+0x258>
	mov    (%r12,%rax,8),%rbx
	lea    0x1(%rax),%rdx
	mov    %rdx,0x1380(%r12)
	mov    %rbx,%rax
	shr    $0xb,%rax
	mov    %eax,%eax
	xor    %rax,%rbx
	mov    %rbx,%rax
	shl    $0x7,%rax
	and    $0x9d2c5680,%eax
	xor    %rax,%rbx
	mov    %rbx,%rax
	shl    $0xf,%rax
	and    $0xefc60000,%eax
	xor    %rax,%rbx
	mov    %rbx,%rax
	shr    $0x12,%rax
	xor    %rax,%rbx
	jmp    <_ZNSt24uniform_int_distributionImEclISt23mersenne_twister_engineImLm32ELm624ELm397ELm31ELm2567483615ELm11ELm4294967295ELm7ELm2636928640ELm15ELm4022730752ELm18ELm1812433253EEEEmRT_RKNS0_10param_typeE.isra.0+0xd2>
	call   <_ZNSt23mersenne_twister_engineImLm32ELm624ELm397ELm31ELm2567483615ELm11ELm4294967295ELm7ELm2636928640ELm15ELm4022730752ELm18ELm1812433253EE11_M_gen_randEv>
	mov    0x1380(%r12),%rax
	jmp    <_ZNSt24uniform_int_distributionImEclISt23mersenne_twister_engineImLm32ELm624ELm397ELm31ELm2567483615ELm11ELm4294967295ELm7ELm2636928640ELm15ELm4022730752ELm18ELm1812433253EEEEmRT_RKNS0_10param_typeE.isra.0+0x101>
	nopw   0x0(%rax,%rax,1)
	call   <_ZNSt23mersenne_twister_engineImLm32ELm624ELm397ELm31ELm2567483615ELm11ELm4294967295ELm7ELm2636928640ELm15ELm4022730752ELm18ELm1812433253EE11_M_gen_randEv>
	mov    0x1380(%r12),%rax
	jmp    <_ZNSt24uniform_int_distributionImEclISt23mersenne_twister_engineImLm32ELm624ELm397ELm31ELm2567483615ELm11ELm4294967295ELm7ELm2636928640ELm15ELm4022730752ELm18ELm1812433253EEEEmRT_RKNS0_10param_typeE.isra.0+0x1f7>
	nopw   0x0(%rax,%rax,1)

<_ZSt7shuffleIN9__gnu_cxx17__normal_iteratorIPmSt6vectorImSaImEEEERSt23mersenne_twister_engineImLm32ELm624ELm397ELm31ELm2567483615ELm11ELm4294967295ELm7ELm2636928640ELm15ELm4022730752ELm18ELm1812433253EEEvT_SA_OT0_>:
	endbr64
	cmp    %rdi,%rsi
	je     <_ZSt7shuffleIN9__gnu_cxx17__normal_iteratorIPmSt6vectorImSaImEEEERSt23mersenne_twister_engineImLm32ELm624ELm397ELm31ELm2567483615ELm11ELm4294967295ELm7ELm2636928640ELm15ELm4022730752ELm18ELm1812433253EEEvT_SA_OT0_+0x398>
	push   %r15
	mov    $0xffffffff,%eax
	mov    %rdx,%r15
	xor    %edx,%edx
	push   %r14
	mov    %rsi,%r14
	sub    %rdi,%rsi
	sar    $0x3,%rsi
	div    %rsi
	push   %r13
	push   %r12
	push   %rbp
	mov    %rdi,%r12
	push   %rbx
	lea    0x8(%rdi),%rbx
	sub    $0x18,%rsp
	cmp    %rsi,%rax
	jae    <_ZSt7shuffleIN9__gnu_cxx17__normal_iteratorIPmSt6vectorImSaImEEEERSt23mersenne_twister_engineImLm32ELm624ELm397ELm31ELm2567483615ELm11ELm4294967295ELm7ELm2636928640ELm15ELm4022730752ELm18ELm1812433253EEEvT_SA_OT0_+0x2c8>
	cmp    %rbx,%r14
	je     <_ZSt7shuffleIN9__gnu_cxx17__normal_iteratorIPmSt6vectorImSaImEEEERSt23mersenne_twister_engineImLm32ELm624ELm397ELm31ELm2567483615ELm11ELm4294967295ELm7ELm2636928640ELm15ELm4022730752ELm18ELm1812433253EEEvT_SA_OT0_+0x120>
	nopl   0x0(%rax,%rax,1)
	mov    %rbx,%rax
	movabs $0x7fffffff0,%rcx
	sub    %r12,%rax
	mov    %rax,%rbp
	sar    $0x3,%rbp
	cmp    %rax,%rcx
	jae    <_ZSt7shuffleIN9__gnu_cxx17__normal_iteratorIPmSt6vectorImSaImEEEERSt23mersenne_twister_engineImLm32ELm624ELm397ELm31ELm2567483615ELm11ELm4294967295ELm7ELm2636928640ELm15ELm4022730752ELm18ELm1812433253EEEvT_SA_OT0_+0x150>
	mov    $0xffffffff,%eax
	cmp    %rax,%rbp
	je     <_ZSt7shuffleIN9__gnu_cxx17__normal_iteratorIPmSt6vectorImSaImEEEERSt23mersenne_twister_engineImLm32ELm624ELm397ELm31ELm2567483615ELm11ELm4294967295ELm7ELm2636928640ELm15ELm4022730752ELm18ELm1812433253EEEvT_SA_OT0_+0x250>
	mov    %rbp,%r13
	shr    $0x20,%r13
	mov    %r13,%rdx
	xor    %esi,%esi
	mov    %r15,%rdi
	call   <_ZNSt24uniform_int_distributionImEclISt23mersenne_twister_engineImLm32ELm624ELm397ELm31ELm2567483615ELm11ELm4294967295ELm7ELm2636928640ELm15ELm4022730752ELm18ELm1812433253EEEEmRT_RKNS0_10param_typeE.isra.0>
	mov    0x1380(%r15),%rdx
	shl    $0x20,%rax
	cmp    $0x26f,%rdx
	ja     <_ZSt7shuffleIN9__gnu_cxx17__normal_iteratorIPmSt6vectorImSaImEEEERSt23mersenne_twister_engineImLm32ELm624ELm397ELm31ELm2567483615ELm11ELm4294967295ELm7ELm2636928640ELm15ELm4022730752ELm18ELm1812433253EEEvT_SA_OT0_+0x130>
	lea    0x1(%rdx),%rsi
	mov    (%r15,%rdx,8),%rdx
	mov    %rsi,0x1380(%r15)
	mov    %rdx,%rsi
	shr    $0xb,%rsi
	mov    %esi,%esi
	xor    %rsi,%rdx
	mov    %rdx,%rsi
	shl    $0x7,%rsi
	and    $0x9d2c5680,%esi
	xor    %rsi,%rdx
	mov    %rdx,%rsi
	shl    $0xf,%rsi
	and    $0xefc60000,%esi
	xor    %rsi,%rdx
	mov    %rdx,%rsi
	shr    $0x12,%rsi
	xor    %rsi,%rdx
	add    %rdx,%rax
	setb   %dl
	movzbl %dl,%edx
	cmp    %rax,%rbp
	jb     <_ZSt7shuffleIN9__gnu_cxx17__normal_iteratorIPmSt6vectorImSaImEEEERSt23mersenne_twister_engineImLm32ELm624ELm397ELm31ELm2567483615ELm11ELm4294967295ELm7ELm2636928640ELm15ELm4022730752ELm18ELm1812433253EEEvT_SA_OT0_+0x85>
	test   %rdx,%rdx
	jne    <_ZSt7shuffleIN9__gnu_cxx17__normal_iteratorIPmSt6vectorImSaImEEEERSt23mersenne_twister_engineImLm32ELm624ELm397ELm31ELm2567483615ELm11ELm4294967295ELm7ELm2636928640ELm15ELm4022730752ELm18ELm1812433253EEEvT_SA_OT0_+0x85>
	lea    (%r12,%rax,8),%rax
	mov    (%rbx),%rdx
	add    $0x8,%rbx
	mov    (%rax),%rsi
	mov    %rsi,-0x8(%rbx)
	mov    %rdx,(%rax)
	cmp    %rbx,%r14
	jne    <_ZSt7shuffleIN9__gnu_cxx17__normal_iteratorIPmSt6vectorImSaImEEEERSt23mersenne_twister_engineImLm32ELm624ELm397ELm31ELm2567483615ELm11ELm4294967295ELm7ELm2636928640ELm15ELm4022730752ELm18ELm1812433253EEEvT_SA_OT0_+0x50>
	add    $0x18,%rsp
	pop    %rbx
	pop    %rbp
	pop    %r12
	pop    %r13
	pop    %r14
	pop    %r15
	ret
	nop
	mov    %r15,%rdi
	mov    %rax,0x8(%rsp)
	call   <_ZNSt23mersenne_twister_engineImLm32ELm624ELm397ELm31ELm2567483615ELm11ELm4294967295ELm7ELm2636928640ELm15ELm4022730752ELm18ELm1812433253EE11_M_gen_randEv>
	mov    0x1380(%r15),%rdx
	mov    0x8(%rsp),%rax
	jmp    <_ZSt7shuffleIN9__gnu_cxx17__normal_iteratorIPmSt6vectorImSaImEEEERSt23mersenne_twister_engineImLm32ELm624ELm397ELm31ELm2567483615ELm11ELm4294967295ELm7ELm2636928640ELm15ELm4022730752ELm18ELm1812433253EEEvT_SA_OT0_+0xaa>
	xchg   %ax,%ax
	inc    %rbp
	cmpq   $0x26f,0x1380(%r15)
	mov    %ebp,%ecx
	ja     <_ZSt7shuffleIN9__gnu_cxx17__normal_iteratorIPmSt6vectorImSaImEEEERSt23mersenne_twister_engineImLm32ELm624ELm397ELm31ELm2567483615ELm11ELm4294967295ELm7ELm2636928640ELm15ELm4022730752ELm18ELm1812433253EEEvT_SA_OT0_+0x2b0>
	mov    0x1380(%r15),%rax
	mov    (%r15,%rax,8),%rdi
	lea    0x1(%rax),%rsi
	mov    %rsi,0x1380(%r15)
	mov    %rdi,%rax
	shr    $0xb,%rax
	mov    %eax,%eax
	xor    %rax,%rdi
	mov    %rdi,%rax
	shl    $0x7,%rax
	and    $0x9d2c5680,%eax
	xor    %rax,%rdi
	mov    %rdi,%rax
	shl    $0xf,%rax
	and    $0xefc60000,%eax
	xor    %rax,%rdi
	mov    %rdi,%rax
	shr    $0x12,%rax
	xor    %rax,%rdi
	imul   %rbp,%rdi
	cmp    %ebp,%edi
	jae    <_ZSt7shuffleIN9__gnu_cxx17__normal_iteratorIPmSt6vectorImSaImEEEERSt23mersenne_twister_engineImLm32ELm624ELm397ELm31ELm2567483615ELm11ELm4294967295ELm7ELm2636928640ELm15ELm4022730752ELm18ELm1812433253EEEvT_SA_OT0_+0x240>
	mov    %ebp,%eax
	xor    %edx,%edx
	neg    %eax
	div    %ecx
	mov    %edx,%r13d
	cmp    %edx,%edi
	jb     <_ZSt7shuffleIN9__gnu_cxx17__normal_iteratorIPmSt6vectorImSaImEEEERSt23mersenne_twister_engineImLm32ELm624ELm397ELm31ELm2567483615ELm11ELm4294967295ELm7ELm2636928640ELm15ELm4022730752ELm18ELm1812433253EEEvT_SA_OT0_+0x221>
	jmp    <_ZSt7shuffleIN9__gnu_cxx17__normal_iteratorIPmSt6vectorImSaImEEEERSt23mersenne_twister_engineImLm32ELm624ELm397ELm31ELm2567483615ELm11ELm4294967295ELm7ELm2636928640ELm15ELm4022730752ELm18ELm1812433253EEEvT_SA_OT0_+0x240>
	nopl   (%rax)
	lea    0x1(%rax),%rsi
	mov    (%r15,%rax,8),%rax
	mov    %rsi,0x1380(%r15)
	mov    %rax,%rdx
	shr    $0xb,%rdx
	mov    %edx,%edx
	xor    %rdx,%rax
	mov    %rax,%rdx
	shl    $0x7,%rdx
	and    $0x9d2c5680,%edx
	xor    %rdx,%rax
	mov    %rax,%rdx
	shl    $0xf,%rdx
	and    $0xefc60000,%edx
	xor    %rdx,%rax
	mov    %rax,%rdx
	shr    $0x12,%rdx
	xor    %rdx,%rax
	imul   %rbp,%rax
	mov    %rax,%rdi
	cmp    %r13d,%eax
	jae    <_ZSt7shuffleIN9__gnu_cxx17__normal_iteratorIPmSt6vectorImSaImEEEERSt23mersenne_twister_engineImLm32ELm624ELm397ELm31ELm2567483615ELm11ELm4294967295ELm7ELm2636928640ELm15ELm4022730752ELm18ELm1812433253EEEvT_SA_OT0_+0x240>
	mov    %rsi,%rax
	cmp    $0x26f,%rsi
	jbe    <_ZSt7shuffleIN9__gnu_cxx17__normal_iteratorIPmSt6vectorImSaImEEEERSt23mersenne_twister_engineImLm32ELm624ELm397ELm31ELm2567483615ELm11ELm4294967295ELm7ELm2636928640ELm15ELm4022730752ELm18ELm1812433253EEEvT_SA_OT0_+0x1d0>
	mov    %r15,%rdi
	call   <_ZNSt23mersenne_twister_engineImLm32ELm624ELm397ELm31ELm2567483615ELm11ELm4294967295ELm7ELm2636928640ELm15ELm4022730752ELm18ELm1812433253EE11_M_gen_randEv>
	mov    0x1380(%r15),%rax
	jmp    <_ZSt7shuffleIN9__gnu_cxx17__normal_iteratorIPmSt6vectorImSaImEEEERSt23mersenne_twister_engineImLm32ELm624ELm397ELm31ELm2567483615ELm11ELm4294967295ELm7ELm2636928640ELm15ELm4022730752ELm18ELm1812433253EEEvT_SA_OT0_+0x1d0>
	xchg   %ax,%ax
	mov    %rdi,%rax
	shr    $0x20,%rax
	jmp    <_ZSt7shuffleIN9__gnu_cxx17__normal_iteratorIPmSt6vectorImSaImEEEERSt23mersenne_twister_engineImLm32ELm624ELm397ELm31ELm2567483615ELm11ELm4294967295ELm7ELm2636928640ELm15ELm4022730752ELm18ELm1812433253EEEvT_SA_OT0_+0x102>
	nopl   0x0(%rax)
	mov    0x1380(%r15),%rax
	cmp    $0x26f,%rax
	ja     <_ZSt7shuffleIN9__gnu_cxx17__normal_iteratorIPmSt6vectorImSaImEEEERSt23mersenne_twister_engineImLm32ELm624ELm397ELm31ELm2567483615ELm11ELm4294967295ELm7ELm2636928640ELm15ELm4022730752ELm18ELm1812433253EEEvT_SA_OT0_+0x350>
	lea    0x1(%rax),%rdx
	mov    (%r15,%rax,8),%rax
	mov    %rdx,0x1380(%r15)
	mov    %rax,%rdx
	shr    $0xb,%rdx
	mov    %edx,%edx
	xor    %rdx,%rax
	mov    %rax,%rdx
	shl    $0x7,%rdx
	and    $0x9d2c5680,%edx
	xor    %rdx,%rax
	mov    %rax,%rdx
	shl    $0xf,%rdx
	and    $0xefc60000,%edx
	xor    %rdx,%rax
	mov    %rax,%rdx
	shr    $0x12,%rdx
	xor    %rdx,%rax
	jmp    <_ZSt7shuffleIN9__gnu_cxx17__normal_iteratorIPmSt6vectorImSaImEEEERSt23mersenne_twister_engineImLm32ELm624ELm397ELm31ELm2567483615ELm11ELm4294967295ELm7ELm2636928640ELm15ELm4022730752ELm18ELm1812433253EEEvT_SA_OT0_+0x102>
	nopl   (%rax)
	mov    %r15,%rdi
	mov    %ebp,0x8(%rsp)
	call   <_ZNSt23mersenne_twister_engineImLm32ELm624ELm397ELm31ELm2567483615ELm11ELm4294967295ELm7ELm2636928640ELm15ELm4022730752ELm18ELm1812433253EE11_M_gen_randEv>
	mov    0x8(%rsp),%ecx
	jmp    <_ZSt7shuffleIN9__gnu_cxx17__normal_iteratorIPmSt6vectorImSaImEEEERSt23mersenne_twister_engineImLm32ELm624ELm397ELm31ELm2567483615ELm11ELm4294967295ELm7ELm2636928640ELm15ELm4022730752ELm18ELm1812433253EEEvT_SA_OT0_+0x166>
	nopl   (%rax)
	and    $0x1,%esi
	je     <_ZSt7shuffleIN9__gnu_cxx17__normal_iteratorIPmSt6vectorImSaImEEEERSt23mersenne_twister_engineImLm32ELm624ELm397ELm31ELm2567483615ELm11ELm4294967295ELm7ELm2636928640ELm15ELm4022730752ELm18ELm1812433253EEEvT_SA_OT0_+0x364>
	cmp    %rbx,%r14
	je     <_ZSt7shuffleIN9__gnu_cxx17__normal_iteratorIPmSt6vectorImSaImEEEERSt23mersenne_twister_engineImLm32ELm624ELm397ELm31ELm2567483615ELm11ELm4294967295ELm7ELm2636928640ELm15ELm4022730752ELm18ELm1812433253EEEvT_SA_OT0_+0x120>
	nopw   0x0(%rax,%rax,1)
	mov    %rbx,%rax
	xor    %esi,%esi
	mov    %r15,%rdi
	add    $0x10,%rbx
	sub    %r12,%rax
	sar    $0x3,%rax
	lea    0x1(%rax),%rdx
	lea    0x2(%rax),%rbp
	mov    %rdx,%rax
	imul   %rbp,%rax
	lea    -0x1(%rax),%rdx
	call   <_ZNSt24uniform_int_distributionImEclISt23mersenne_twister_engineImLm32ELm624ELm397ELm31ELm2567483615ELm11ELm4294967295ELm7ELm2636928640ELm15ELm4022730752ELm18ELm1812433253EEEEmRT_RKNS0_10param_typeE.isra.0>
	xor    %edx,%edx
	mov    -0x10(%rbx),%rsi
	div    %rbp
	lea    (%r12,%rax,8),%rax
	mov    (%rax),%rdi
	mov    %rdi,-0x10(%rbx)
	mov    %rsi,(%rax)
	lea    (%r12,%rdx,8),%rax
	mov    (%rax),%rsi
	mov    -0x8(%rbx),%rdx
	mov    %rsi,-0x8(%rbx)
	mov    %rdx,(%rax)
	cmp    %rbx,%r14
	jne    <_ZSt7shuffleIN9__gnu_cxx17__normal_iteratorIPmSt6vectorImSaImEEEERSt23mersenne_twister_engineImLm32ELm624ELm397ELm31ELm2567483615ELm11ELm4294967295ELm7ELm2636928640ELm15ELm4022730752ELm18ELm1812433253EEEvT_SA_OT0_+0x2e0>
	add    $0x18,%rsp
	pop    %rbx
	pop    %rbp
	pop    %r12
	pop    %r13
	pop    %r14
	pop    %r15
	ret
	nopl   0x0(%rax,%rax,1)
	mov    %r15,%rdi
	call   <_ZNSt23mersenne_twister_engineImLm32ELm624ELm397ELm31ELm2567483615ELm11ELm4294967295ELm7ELm2636928640ELm15ELm4022730752ELm18ELm1812433253EE11_M_gen_randEv>
	mov    0x1380(%r15),%rax
	jmp    <_ZSt7shuffleIN9__gnu_cxx17__normal_iteratorIPmSt6vectorImSaImEEEERSt23mersenne_twister_engineImLm32ELm624ELm397ELm31ELm2567483615ELm11ELm4294967295ELm7ELm2636928640ELm15ELm4022730752ELm18ELm1812433253EEEvT_SA_OT0_+0x263>
	mov    $0x1,%edx
	xor    %esi,%esi
	lea    0x10(%r12),%rbx
	mov    %r15,%rdi
	call   <_ZNSt24uniform_int_distributionImEclISt23mersenne_twister_engineImLm32ELm624ELm397ELm31ELm2567483615ELm11ELm4294967295ELm7ELm2636928640ELm15ELm4022730752ELm18ELm1812433253EEEEmRT_RKNS0_10param_typeE.isra.0>
	mov    0x8(%r12),%rdx
	lea    (%r12,%rax,8),%rax
	mov    (%rax),%rsi
	mov    %rsi,0x8(%r12)
	mov    %rdx,(%rax)
	jmp    <_ZSt7shuffleIN9__gnu_cxx17__normal_iteratorIPmSt6vectorImSaImEEEERSt23mersenne_twister_engineImLm32ELm624ELm397ELm31ELm2567483615ELm11ELm4294967295ELm7ELm2636928640ELm15ELm4022730752ELm18ELm1812433253EEEvT_SA_OT0_+0x2d1>
	nopl   0x0(%rax)
	ret
	nopl   0x0(%rax)

<_ZN9benchmark8internal12_GLOBAL__N_114CreateReporterERKNSt7__cxx1112basic_stringIcSt11char_traitsIcESaIcEEENS_15ConsoleReporter13OutputOptionsE>:
	push   %r12
	mov    %edx,%r12d
	push   %rbp
	mov    %rdi,%rbp
	push   %rbx
	mov    %rsi,%rbx
	lea    0x53a73(%rip),%rsi        # <_IO_stdin_used+0x12e7>
	mov    %rbx,%rdi
	call   <_ZNKSt7__cxx1112basic_stringIcSt11char_traitsIcESaIcEE7compareEPKc@plt>
	test   %eax,%eax
	jne    <_ZN9benchmark8internal12_GLOBAL__N_114CreateReporterERKNSt7__cxx1112basic_stringIcSt11char_traitsIcESaIcEEENS_15ConsoleReporter13OutputOptionsE+0x80>
	mov    $0x60,%edi
	call   <_Znwm@plt>
	mov    %rax,%rdi
	mov    %rax,%rbx
	call   <_ZN9benchmark17BenchmarkReporterC1Ev>
	lea    0x6274c(%rip),%rax        # <_ZTVN9benchmark15ConsoleReporterE+0x10>
	mov    %r12d,0x18(%rbx)
	mov    %rax,(%rbx)
	lea    0x30(%rbx),%rax
	mov    %rax,0x40(%rbx)
	mov    %rax,0x48(%rbx)
	mov    %rbp,%rax
	movq   $0x0,0x20(%rbx)
	movl   $0x0,0x30(%rbx)
	movq   $0x0,0x38(%rbx)
	movq   $0x0,0x50(%rbx)
	movb   $0x0,0x58(%rbx)
	mov    %rbx,0x0(%rbp)
	pop    %rbx
	pop    %rbp
	pop    %r12
	ret
	xchg   %ax,%ax
	lea    0x53a08(%rip),%rsi        # <_IO_stdin_used+0x12ef>
	mov    %rbx,%rdi
	call   <_ZNKSt7__cxx1112basic_stringIcSt11char_traitsIcESaIcEE7compareEPKc@plt>
	test   %eax,%eax
	je     <_ZN9benchmark8internal12_GLOBAL__N_114CreateReporterERKNSt7__cxx1112basic_stringIcSt11char_traitsIcESaIcEEENS_15ConsoleReporter13OutputOptionsE+0x100>
	lea    0x539fa(%rip),%rsi        # <_IO_stdin_used+0x12f4>
	mov    %rbx,%rdi
	call   <_ZNKSt7__cxx1112basic_stringIcSt11char_traitsIcESaIcEE7compareEPKc@plt>
	test   %eax,%eax
	jne    <_ZN9benchmark8internal12_GLOBAL__N_114CreateReporterERKNSt7__cxx1112basic_stringIcSt11char_traitsIcESaIcEEENS_15ConsoleReporter13OutputOptionsE+0x12f>
	mov    $0x50,%edi
	call   <_Znwm@plt>
	mov    %rax,%rdi
	mov    %rax,%rbx
	call   <_ZN9benchmark17BenchmarkReporterC1Ev>
	lea    0x62712(%rip),%rax        # <_ZTVN9benchmark11CSVReporterE+0x10>
	movb   $0x0,0x18(%rbx)
	mov    %rax,(%rbx)
	lea    0x28(%rbx),%rax
	mov    %rax,0x38(%rbx)
	mov    %rax,0x40(%rbx)
	mov    %rbp,%rax
	movl   $0x0,0x28(%rbx)
	movq   $0x0,0x30(%rbx)
	movq   $0x0,0x48(%rbx)
	mov    %rbx,0x0(%rbp)
	pop    %rbx
	pop    %rbp
	pop    %r12
	ret
	nopl   0x0(%rax)
	mov    $0x20,%edi
	call   <_Znwm@plt>
	mov    %rax,%rdi
	mov    %rax,%rbx
	call   <_ZN9benchmark17BenchmarkReporterC1Ev>
	lea    0x626fc(%rip),%rax        # <_ZTVN9benchmark12JSONReporterE+0x10>
	movb   $0x1,0x18(%rbx)
	mov    %rax,(%rbx)
	mov    %rbp,%rax
	mov    %rbx,0x0(%rbp)
	pop    %rbx
	pop    %rbp
	pop    %r12
	ret
	lea    0x63d8a(%rip),%rbp        # <_ZSt4cerr@GLIBCXX_3.4>
	mov    $0x14,%edx
	lea    0x53956(%rip),%rsi        # <_IO_stdin_used+0x12f8>
	mov    %rbp,%rdi
	call   <_ZSt16__ostream_insertIcSt11char_traitsIcEERSt13basic_ostreamIT_T0_ES6_PKS3_l@plt>
	mov    0x8(%rbx),%rdx
	mov    (%rbx),%rsi
	mov    %rbp,%rdi
	call   <_ZSt16__ostream_insertIcSt11char_traitsIcEERSt13basic_ostreamIT_T0_ES6_PKS3_l@plt>
	mov    $0x2,%edx
	lea    0x53948(%rip),%rsi        # <_IO_stdin_used+0x130d>
	mov    %rax,%rdi
	call   <_ZSt16__ostream_insertIcSt11char_traitsIcEERSt13basic_ostreamIT_T0_ES6_PKS3_l@plt>
	mov    $0x1,%edi
	call   <exit@plt>
	endbr64
	mov    %rax,%rbp
	jmp    <_ZN9benchmark8internal12_GLOBAL__N_114CreateReporterERKNSt7__cxx1112basic_stringIcSt11char_traitsIcESaIcEEENS_15ConsoleReporter13OutputOptionsE.cold>
	endbr64
	mov    %rax,%rbp
	jmp    <_ZN9benchmark8internal12_GLOBAL__N_114CreateReporterERKNSt7__cxx1112basic_stringIcSt11char_traitsIcESaIcEEENS_15ConsoleReporter13OutputOptionsE.cold+0x15>
	endbr64
	mov    %rax,%rbp
	jmp    <_ZN9benchmark8internal12_GLOBAL__N_114CreateReporterERKNSt7__cxx1112basic_stringIcSt11char_traitsIcESaIcEEENS_15ConsoleReporter13OutputOptionsE.cold+0x2a>
	nopl   0x0(%rax,%rax,1)

<_ZSt4endlIcSt11char_traitsIcEERSt13basic_ostreamIT_T0_ES6_.isra.0>:
	push   %rbp
	push   %rbx
	sub    $0x8,%rsp
	mov    (%rdi),%rax
	mov    -0x18(%rax),%rax
	mov    0xf0(%rdi,%rax,1),%rbp
	test   %rbp,%rbp
	je     <_ZSt4endlIcSt11char_traitsIcEERSt13basic_ostreamIT_T0_ES6_.isra.0+0x6b>
	cmpb   $0x0,0x38(%rbp)
	mov    %rdi,%rbx
	je     <_ZSt4endlIcSt11char_traitsIcEERSt13basic_ostreamIT_T0_ES6_.isra.0+0x40>
	movsbl 0x43(%rbp),%esi
	mov    %rbx,%rdi
	call   <_ZNSo3putEc@plt>
	add    $0x8,%rsp
	pop    %rbx
	mov    %rax,%rdi
	pop    %rbp
	jmp    <_ZNSo5flushEv@plt>
	nopl   (%rax)
	mov    %rbp,%rdi
	call   <_ZNKSt5ctypeIcE13_M_widen_initEv@plt>
	mov    0x0(%rbp),%rax
	mov    $0xa,%esi
	lea    0xc938(%rip),%rdx        # <_ZNKSt5ctypeIcE8do_widenEc>
	mov    0x30(%rax),%rax
	cmp    %rdx,%rax
	je     <_ZSt4endlIcSt11char_traitsIcEERSt13basic_ostreamIT_T0_ES6_.isra.0+0x27>
	mov    %rbp,%rdi
	call   *%rax
	movsbl %al,%esi
	jmp    <_ZSt4endlIcSt11char_traitsIcEERSt13basic_ostreamIT_T0_ES6_.isra.0+0x27>
	call   <_ZSt16__throw_bad_castv@plt>

<_ZNSt8_Rb_treeINSt7__cxx1112basic_stringIcSt11char_traitsIcESaIcEEESt4pairIKS5_S5_ESt10_Select1stIS8_ESt4lessIS5_ESaIS8_EE8_M_eraseEPSt13_Rb_tree_nodeIS8_E.isra.0>:
	push   %r15
	push   %r14
	push   %r13
	push   %r12
	push   %rbp
	push   %rbx
	sub    $0x28,%rsp
	mov    %rdi,0x10(%rsp)
	test   %rdi,%rdi
	je     <_ZNSt8_Rb_treeINSt7__cxx1112basic_stringIcSt11char_traitsIcESaIcEEESt4pairIKS5_S5_ESt10_Select1stIS8_ESt4lessIS5_ESaIS8_EE8_M_eraseEPSt13_Rb_tree_nodeIS8_E.isra.0+0x3f5>
	mov    0x10(%rsp),%rax
	mov    0x18(%rax),%rax
	mov    %rax,(%rsp)
	test   %rax,%rax
	je     <_ZNSt8_Rb_treeINSt7__cxx1112basic_stringIcSt11char_traitsIcESaIcEEESt4pairIKS5_S5_ESt10_Select1stIS8_ESt4lessIS5_ESaIS8_EE8_M_eraseEPSt13_Rb_tree_nodeIS8_E.isra.0+0x38d>
	mov    (%rsp),%rax
	mov    0x18(%rax),%rax
	mov    %rax,0x8(%rsp)
	test   %rax,%rax
	je     <_ZNSt8_Rb_treeINSt7__cxx1112basic_stringIcSt11char_traitsIcESaIcEEESt4pairIKS5_S5_ESt10_Select1stIS8_ESt4lessIS5_ESaIS8_EE8_M_eraseEPSt13_Rb_tree_nodeIS8_E.isra.0+0x327>
	mov    0x8(%rsp),%rax
	mov    0x18(%rax),%r15
	test   %r15,%r15
	je     <_ZNSt8_Rb_treeINSt7__cxx1112basic_stringIcSt11char_traitsIcESaIcEEESt4pairIKS5_S5_ESt10_Select1stIS8_ESt4lessIS5_ESaIS8_EE8_M_eraseEPSt13_Rb_tree_nodeIS8_E.isra.0+0x2bd>
	mov    0x18(%r15),%rbx
	test   %rbx,%rbx
	je     <_ZNSt8_Rb_treeINSt7__cxx1112basic_stringIcSt11char_traitsIcESaIcEEESt4pairIKS5_S5_ESt10_Select1stIS8_ESt4lessIS5_ESaIS8_EE8_M_eraseEPSt13_Rb_tree_nodeIS8_E.isra.0+0x206>
	mov    0x18(%rbx),%rbp
	test   %rbp,%rbp
	je     <_ZNSt8_Rb_treeINSt7__cxx1112basic_stringIcSt11char_traitsIcESaIcEEESt4pairIKS5_S5_ESt10_Select1stIS8_ESt4lessIS5_ESaIS8_EE8_M_eraseEPSt13_Rb_tree_nodeIS8_E.isra.0+0x158>
	mov    0x18(%rbp),%r12
	test   %r12,%r12
	je     <_ZNSt8_Rb_treeINSt7__cxx1112basic_stringIcSt11char_traitsIcESaIcEEESt4pairIKS5_S5_ESt10_Select1stIS8_ESt4lessIS5_ESaIS8_EE8_M_eraseEPSt13_Rb_tree_nodeIS8_E.isra.0+0x1b0>
	mov    0x18(%r12),%r14
	test   %r14,%r14
	je     <_ZNSt8_Rb_treeINSt7__cxx1112basic_stringIcSt11char_traitsIcESaIcEEESt4pairIKS5_S5_ESt10_Select1stIS8_ESt4lessIS5_ESaIS8_EE8_M_eraseEPSt13_Rb_tree_nodeIS8_E.isra.0+0x260>
	mov    0x18(%r14),%r13
	test   %r13,%r13
	je     <_ZNSt8_Rb_treeINSt7__cxx1112basic_stringIcSt11char_traitsIcESaIcEEESt4pairIKS5_S5_ESt10_Select1stIS8_ESt4lessIS5_ESaIS8_EE8_M_eraseEPSt13_Rb_tree_nodeIS8_E.isra.0+0x102>
	mov    0x18(%r13),%rdi
	call   <_ZNSt8_Rb_treeINSt7__cxx1112basic_stringIcSt11char_traitsIcESaIcEEESt4pairIKS5_S5_ESt10_Select1stIS8_ESt4lessIS5_ESaIS8_EE8_M_eraseEPSt13_Rb_tree_nodeIS8_E.isra.0>
	mov    %r13,%rdx
	mov    0x10(%r13),%r13
	mov    0x40(%rdx),%rdi
	lea    0x50(%rdx),%rcx
	cmp    %rcx,%rdi
	je     <_ZNSt8_Rb_treeINSt7__cxx1112basic_stringIcSt11char_traitsIcESaIcEEESt4pairIKS5_S5_ESt10_Select1stIS8_ESt4lessIS5_ESaIS8_EE8_M_eraseEPSt13_Rb_tree_nodeIS8_E.isra.0+0xcc>
	mov    0x50(%rdx),%rax
	mov    %rdx,0x18(%rsp)
	lea    0x1(%rax),%rsi
	call   <_ZdlPvm@plt>
	mov    0x18(%rsp),%rdx
	mov    0x20(%rdx),%rdi
	lea    0x30(%rdx),%rcx
	cmp    %rcx,%rdi
	je     <_ZNSt8_Rb_treeINSt7__cxx1112basic_stringIcSt11char_traitsIcESaIcEEESt4pairIKS5_S5_ESt10_Select1stIS8_ESt4lessIS5_ESaIS8_EE8_M_eraseEPSt13_Rb_tree_nodeIS8_E.isra.0+0xf0>
	mov    0x30(%rdx),%rax
	mov    %rdx,0x18(%rsp)
	lea    0x1(%rax),%rsi
	call   <_ZdlPvm@plt>
	mov    0x18(%rsp),%rdx
	mov    $0x60,%esi
	mov    %rdx,%rdi
	call   <_ZdlPvm@plt>
	test   %r13,%r13
	jne    <_ZNSt8_Rb_treeINSt7__cxx1112basic_stringIcSt11char_traitsIcESaIcEEESt4pairIKS5_S5_ESt10_Select1stIS8_ESt4lessIS5_ESaIS8_EE8_M_eraseEPSt13_Rb_tree_nodeIS8_E.isra.0+0x98>
	mov    0x40(%r14),%rdi
	lea    0x50(%r14),%rdx
	mov    0x10(%r14),%r13
	cmp    %rdx,%rdi
	je     <_ZNSt8_Rb_treeINSt7__cxx1112basic_stringIcSt11char_traitsIcESaIcEEESt4pairIKS5_S5_ESt10_Select1stIS8_ESt4lessIS5_ESaIS8_EE8_M_eraseEPSt13_Rb_tree_nodeIS8_E.isra.0+0x120>
	mov    0x50(%r14),%rax
	lea    0x1(%rax),%rsi
	call   <_ZdlPvm@plt>
	mov    0x20(%r14),%rdi
	lea    0x30(%r14),%rdx
	cmp    %rdx,%rdi
	je     <_ZNSt8_Rb_treeINSt7__cxx1112basic_stringIcSt11char_traitsIcESaIcEEESt4pairIKS5_S5_ESt10_Select1stIS8_ESt4lessIS5_ESaIS8_EE8_M_eraseEPSt13_Rb_tree_nodeIS8_E.isra.0+0x13a>
	mov    0x30(%r14),%rax
	lea    0x1(%rax),%rsi
	call   <_ZdlPvm@plt>
	mov    $0x60,%esi
	mov    %r14,%rdi
	call   <_ZdlPvm@plt>
	test   %r13,%r13
	je     <_ZNSt8_Rb_treeINSt7__cxx1112basic_stringIcSt11char_traitsIcESaIcEEESt4pairIKS5_S5_ESt10_Select1stIS8_ESt4lessIS5_ESaIS8_EE8_M_eraseEPSt13_Rb_tree_nodeIS8_E.isra.0+0x260>
	mov    %r13,%r14
	jmp    <_ZNSt8_Rb_treeINSt7__cxx1112basic_stringIcSt11char_traitsIcESaIcEEESt4pairIKS5_S5_ESt10_Select1stIS8_ESt4lessIS5_ESaIS8_EE8_M_eraseEPSt13_Rb_tree_nodeIS8_E.isra.0+0x8f>
	mov    0x40(%rbx),%rdi
	lea    0x50(%rbx),%rax
	mov    0x10(%rbx),%rbp
	cmp    %rax,%rdi
	je     <_ZNSt8_Rb_treeINSt7__cxx1112basic_stringIcSt11char_traitsIcESaIcEEESt4pairIKS5_S5_ESt10_Select1stIS8_ESt4lessIS5_ESaIS8_EE8_M_eraseEPSt13_Rb_tree_nodeIS8_E.isra.0+0x176>
	mov    0x50(%rbx),%rax
	lea    0x1(%rax),%rsi
	call   <_ZdlPvm@plt>
	mov    0x20(%rbx),%rdi
	lea    0x30(%rbx),%rax
	cmp    %rax,%rdi
	je     <_ZNSt8_Rb_treeINSt7__cxx1112basic_stringIcSt11char_traitsIcESaIcEEESt4pairIKS5_S5_ESt10_Select1stIS8_ESt4lessIS5_ESaIS8_EE8_M_eraseEPSt13_Rb_tree_nodeIS8_E.isra.0+0x190>
	mov    0x30(%rbx),%rax
	lea    0x1(%rax),%rsi
	call   <_ZdlPvm@plt>
	mov    $0x60,%esi
	mov    %rbx,%rdi
	call   <_ZdlPvm@plt>
	test   %rbp,%rbp
	je     <_ZNSt8_Rb_treeINSt7__cxx1112basic_stringIcSt11char_traitsIcESaIcEEESt4pairIKS5_S5_ESt10_Select1stIS8_ESt4lessIS5_ESaIS8_EE8_M_eraseEPSt13_Rb_tree_nodeIS8_E.isra.0+0x206>
	mov    %rbp,%rbx
	jmp    <_ZNSt8_Rb_treeINSt7__cxx1112basic_stringIcSt11char_traitsIcESaIcEEESt4pairIKS5_S5_ESt10_Select1stIS8_ESt4lessIS5_ESaIS8_EE8_M_eraseEPSt13_Rb_tree_nodeIS8_E.isra.0+0x67>
	nopw   0x0(%rax,%rax,1)
	mov    0x40(%rbp),%rdi
	lea    0x50(%rbp),%rax
	mov    0x10(%rbp),%r12
	cmp    %rax,%rdi
	je     <_ZNSt8_Rb_treeINSt7__cxx1112basic_stringIcSt11char_traitsIcESaIcEEESt4pairIKS5_S5_ESt10_Select1stIS8_ESt4lessIS5_ESaIS8_EE8_M_eraseEPSt13_Rb_tree_nodeIS8_E.isra.0+0x1ce>
	mov    0x50(%rbp),%rax
	lea    0x1(%rax),%rsi
	call   <_ZdlPvm@plt>
	mov    0x20(%rbp),%rdi
	lea    0x30(%rbp),%rax
	cmp    %rax,%rdi
	je     <_ZNSt8_Rb_treeINSt7__cxx1112basic_stringIcSt11char_traitsIcESaIcEEESt4pairIKS5_S5_ESt10_Select1stIS8_ESt4lessIS5_ESaIS8_EE8_M_eraseEPSt13_Rb_tree_nodeIS8_E.isra.0+0x1e8>
	mov    0x30(%rbp),%rax
	lea    0x1(%rax),%rsi
	call   <_ZdlPvm@plt>
	mov    $0x60,%esi
	mov    %rbp,%rdi
	call   <_ZdlPvm@plt>
	test   %r12,%r12
	je     <_ZNSt8_Rb_treeINSt7__cxx1112basic_stringIcSt11char_traitsIcESaIcEEESt4pairIKS5_S5_ESt10_Select1stIS8_ESt4lessIS5_ESaIS8_EE8_M_eraseEPSt13_Rb_tree_nodeIS8_E.isra.0+0x158>
	mov    %r12,%rbp
	jmp    <_ZNSt8_Rb_treeINSt7__cxx1112basic_stringIcSt11char_traitsIcESaIcEEESt4pairIKS5_S5_ESt10_Select1stIS8_ESt4lessIS5_ESaIS8_EE8_M_eraseEPSt13_Rb_tree_nodeIS8_E.isra.0+0x74>
	mov    0x40(%r15),%rdi
	lea    0x50(%r15),%rax
	mov    0x10(%r15),%rbx
	cmp    %rax,%rdi
	je     <_ZNSt8_Rb_treeINSt7__cxx1112basic_stringIcSt11char_traitsIcESaIcEEESt4pairIKS5_S5_ESt10_Select1stIS8_ESt4lessIS5_ESaIS8_EE8_M_eraseEPSt13_Rb_tree_nodeIS8_E.isra.0+0x224>
	mov    0x50(%r15),%rax
	lea    0x1(%rax),%rsi
	call   <_ZdlPvm@plt>
	mov    0x20(%r15),%rdi
	lea    0x30(%r15),%rax
	cmp    %rax,%rdi
	je     <_ZNSt8_Rb_treeINSt7__cxx1112basic_stringIcSt11char_traitsIcESaIcEEESt4pairIKS5_S5_ESt10_Select1stIS8_ESt4lessIS5_ESaIS8_EE8_M_eraseEPSt13_Rb_tree_nodeIS8_E.isra.0+0x23e>
	mov    0x30(%r15),%rax
	lea    0x1(%rax),%rsi
	call   <_ZdlPvm@plt>
	mov    $0x60,%esi
	mov    %r15,%rdi
	call   <_ZdlPvm@plt>
	test   %rbx,%rbx
	je     <_ZNSt8_Rb_treeINSt7__cxx1112basic_stringIcSt11char_traitsIcESaIcEEESt4pairIKS5_S5_ESt10_Select1stIS8_ESt4lessIS5_ESaIS8_EE8_M_eraseEPSt13_Rb_tree_nodeIS8_E.isra.0+0x2bd>
	mov    %rbx,%r15
	jmp    <_ZNSt8_Rb_treeINSt7__cxx1112basic_stringIcSt11char_traitsIcESaIcEEESt4pairIKS5_S5_ESt10_Select1stIS8_ESt4lessIS5_ESaIS8_EE8_M_eraseEPSt13_Rb_tree_nodeIS8_E.isra.0+0x5a>
	nopl   0x0(%rax,%rax,1)
	mov    0x40(%r12),%rdi
	lea    0x50(%r12),%rax
	mov    0x10(%r12),%r13
	cmp    %rax,%rdi
	je     <_ZNSt8_Rb_treeINSt7__cxx1112basic_stringIcSt11char_traitsIcESaIcEEESt4pairIKS5_S5_ESt10_Select1stIS8_ESt4lessIS5_ESaIS8_EE8_M_eraseEPSt13_Rb_tree_nodeIS8_E.isra.0+0x282>
	mov    0x50(%r12),%rax
	lea    0x1(%rax),%rsi
	call   <_ZdlPvm@plt>
	mov    0x20(%r12),%rdi
	lea    0x30(%r12),%rax
	cmp    %rax,%rdi
	je     <_ZNSt8_Rb_treeINSt7__cxx1112basic_stringIcSt11char_traitsIcESaIcEEESt4pairIKS5_S5_ESt10_Select1stIS8_ESt4lessIS5_ESaIS8_EE8_M_eraseEPSt13_Rb_tree_nodeIS8_E.isra.0+0x29f>
	mov    0x30(%r12),%rax
	lea    0x1(%rax),%rsi
	call   <_ZdlPvm@plt>
	mov    $0x60,%esi
	mov    %r12,%rdi
	call   <_ZdlPvm@plt>
	test   %r13,%r13
	je     <_ZNSt8_Rb_treeINSt7__cxx1112basic_stringIcSt11char_traitsIcESaIcEEESt4pairIKS5_S5_ESt10_Select1stIS8_ESt4lessIS5_ESaIS8_EE8_M_eraseEPSt13_Rb_tree_nodeIS8_E.isra.0+0x1b0>
	mov    %r13,%r12
	jmp    <_ZNSt8_Rb_treeINSt7__cxx1112basic_stringIcSt11char_traitsIcESaIcEEESt4pairIKS5_S5_ESt10_Select1stIS8_ESt4lessIS5_ESaIS8_EE8_M_eraseEPSt13_Rb_tree_nodeIS8_E.isra.0+0x81>
	mov    0x8(%rsp),%rcx
	mov    0x40(%rcx),%rdi
	lea    0x50(%rcx),%rax
	mov    0x10(%rcx),%rbx
	cmp    %rax,%rdi
	je     <_ZNSt8_Rb_treeINSt7__cxx1112basic_stringIcSt11char_traitsIcESaIcEEESt4pairIKS5_S5_ESt10_Select1stIS8_ESt4lessIS5_ESaIS8_EE8_M_eraseEPSt13_Rb_tree_nodeIS8_E.isra.0+0x2e5>
	mov    0x50(%rcx),%rax
	lea    0x1(%rax),%rsi
	mov    %rax,0x18(%rsp)
	call   <_ZdlPvm@plt>
	mov    0x8(%rsp),%rdx
	mov    0x20(%rdx),%rdi
	lea    0x30(%rdx),%rax
	cmp    %rax,%rdi
	je     <_ZNSt8_Rb_treeINSt7__cxx1112basic_stringIcSt11char_traitsIcESaIcEEESt4pairIKS5_S5_ESt10_Select1stIS8_ESt4lessIS5_ESaIS8_EE8_M_eraseEPSt13_Rb_tree_nodeIS8_E.isra.0+0x309>
	mov    0x30(%rdx),%rax
	lea    0x1(%rax),%rsi
	mov    %rax,0x18(%rsp)
	call   <_ZdlPvm@plt>
	mov    0x8(%rsp),%rdi
	mov    $0x60,%esi
	call   <_ZdlPvm@plt>
	test   %rbx,%rbx
	je     <_ZNSt8_Rb_treeINSt7__cxx1112basic_stringIcSt11char_traitsIcESaIcEEESt4pairIKS5_S5_ESt10_Select1stIS8_ESt4lessIS5_ESaIS8_EE8_M_eraseEPSt13_Rb_tree_nodeIS8_E.isra.0+0x327>
	mov    %rbx,0x8(%rsp)
	jmp    <_ZNSt8_Rb_treeINSt7__cxx1112basic_stringIcSt11char_traitsIcESaIcEEESt4pairIKS5_S5_ESt10_Select1stIS8_ESt4lessIS5_ESaIS8_EE8_M_eraseEPSt13_Rb_tree_nodeIS8_E.isra.0+0x48>
	mov    (%rsp),%rcx
	mov    0x40(%rcx),%rdi
	lea    0x50(%rcx),%rax
	mov    0x10(%rcx),%rbx
	cmp    %rax,%rdi
	je     <_ZNSt8_Rb_treeINSt7__cxx1112basic_stringIcSt11char_traitsIcESaIcEEESt4pairIKS5_S5_ESt10_Select1stIS8_ESt4lessIS5_ESaIS8_EE8_M_eraseEPSt13_Rb_tree_nodeIS8_E.isra.0+0x34e>
	mov    0x50(%rcx),%rax
	lea    0x1(%rax),%rsi
	mov    %rax,0x8(%rsp)
	call   <_ZdlPvm@plt>
	mov    (%rsp),%rdx
	mov    0x20(%rdx),%rdi
	lea    0x30(%rdx),%rax
	cmp    %rax,%rdi
	je     <_ZNSt8_Rb_treeINSt7__cxx1112basic_stringIcSt11char_traitsIcESaIcEEESt4pairIKS5_S5_ESt10_Select1stIS8_ESt4lessIS5_ESaIS8_EE8_M_eraseEPSt13_Rb_tree_nodeIS8_E.isra.0+0x371>
	mov    0x30(%rdx),%rax
	lea    0x1(%rax),%rsi
	mov    %rax,0x8(%rsp)
	call   <_ZdlPvm@plt>
	mov    (%rsp),%rdi
	mov    $0x60,%esi
	call   <_ZdlPvm@plt>
	test   %rbx,%rbx
	je     <_ZNSt8_Rb_treeINSt7__cxx1112basic_stringIcSt11char_traitsIcESaIcEEESt4pairIKS5_S5_ESt10_Select1stIS8_ESt4lessIS5_ESaIS8_EE8_M_eraseEPSt13_Rb_tree_nodeIS8_E.isra.0+0x38d>
	mov    %rbx,(%rsp)
	jmp    <_ZNSt8_Rb_treeINSt7__cxx1112basic_stringIcSt11char_traitsIcESaIcEEESt4pairIKS5_S5_ESt10_Select1stIS8_ESt4lessIS5_ESaIS8_EE8_M_eraseEPSt13_Rb_tree_nodeIS8_E.isra.0+0x32>
	mov    0x10(%rsp),%rcx
	mov    0x40(%rcx),%rdi
	lea    0x50(%rcx),%rax
	mov    0x10(%rcx),%rbx
	cmp    %rax,%rdi
	je     <_ZNSt8_Rb_treeINSt7__cxx1112basic_stringIcSt11char_traitsIcESaIcEEESt4pairIKS5_S5_ESt10_Select1stIS8_ESt4lessIS5_ESaIS8_EE8_M_eraseEPSt13_Rb_tree_nodeIS8_E.isra.0+0x3b4>
	mov    0x50(%rcx),%rax
	lea    0x1(%rax),%rsi
	mov    %rax,(%rsp)
	call   <_ZdlPvm@plt>
	mov    0x10(%rsp),%rcx
	mov    0x20(%rcx),%rdi
	lea    0x30(%rcx),%rax
	cmp    %rax,%rdi
	je     <_ZNSt8_Rb_treeINSt7__cxx1112basic_stringIcSt11char_traitsIcESaIcEEESt4pairIKS5_S5_ESt10_Select1stIS8_ESt4lessIS5_ESaIS8_EE8_M_eraseEPSt13_Rb_tree_nodeIS8_E.isra.0+0x3d7>
	mov    0x30(%rcx),%rax
	lea    0x1(%rax),%rsi
	mov    %rax,(%rsp)
	call   <_ZdlPvm@plt>
	mov    0x10(%rsp),%rdi
	mov    $0x60,%esi
	call   <_ZdlPvm@plt>
	test   %rbx,%rbx
	je     <_ZNSt8_Rb_treeINSt7__cxx1112basic_stringIcSt11char_traitsIcESaIcEEESt4pairIKS5_S5_ESt10_Select1stIS8_ESt4lessIS5_ESaIS8_EE8_M_eraseEPSt13_Rb_tree_nodeIS8_E.isra.0+0x3f5>
	mov    %rbx,0x10(%rsp)
	jmp    <_ZNSt8_Rb_treeINSt7__cxx1112basic_stringIcSt11char_traitsIcESaIcEEESt4pairIKS5_S5_ESt10_Select1stIS8_ESt4lessIS5_ESaIS8_EE8_M_eraseEPSt13_Rb_tree_nodeIS8_E.isra.0+0x1c>
	add    $0x28,%rsp
	pop    %rbx
	pop    %rbp
	pop    %r12
	pop    %r13
	pop    %r14
	pop    %r15
	ret
	data16 cs nopw 0x0(%rax,%rax,1)
	nop

<_ZNSt8_Rb_treeINSt7__cxx1112basic_stringIcSt11char_traitsIcESaIcEEESt4pairIKS5_N9benchmark7CounterEESt10_Select1stISA_ESt4lessIS5_ESaISA_EE8_M_eraseEPSt13_Rb_tree_nodeISA_E.isra.0>:
	push   %r15
	push   %r14
	push   %r13
	push   %r12
	push   %rbp
	push   %rbx
	sub    $0x28,%rsp
	mov    %rdi,0x18(%rsp)
	test   %rdi,%rdi
	je     <_ZNSt8_Rb_treeINSt7__cxx1112basic_stringIcSt11char_traitsIcESaIcEEESt4pairIKS5_N9benchmark7CounterEESt10_Select1stISA_ESt4lessIS5_ESaISA_EE8_M_eraseEPSt13_Rb_tree_nodeISA_E.isra.0+0x2df>
	mov    0x18(%rsp),%rax
	mov    0x18(%rax),%rax
	mov    %rax,0x8(%rsp)
	test   %rax,%rax
	je     <_ZNSt8_Rb_treeINSt7__cxx1112basic_stringIcSt11char_traitsIcESaIcEEESt4pairIKS5_N9benchmark7CounterEESt10_Select1stISA_ESt4lessIS5_ESaISA_EE8_M_eraseEPSt13_Rb_tree_nodeISA_E.isra.0+0x29a>
	mov    0x8(%rsp),%rax
	mov    0x18(%rax),%rax
	mov    %rax,0x10(%rsp)
	test   %rax,%rax
	je     <_ZNSt8_Rb_treeINSt7__cxx1112basic_stringIcSt11char_traitsIcESaIcEEESt4pairIKS5_N9benchmark7CounterEESt10_Select1stISA_ESt4lessIS5_ESaISA_EE8_M_eraseEPSt13_Rb_tree_nodeISA_E.isra.0+0x255>
	mov    0x10(%rsp),%rax
	mov    0x18(%rax),%r15
	test   %r15,%r15
	je     <_ZNSt8_Rb_treeINSt7__cxx1112basic_stringIcSt11char_traitsIcESaIcEEESt4pairIKS5_N9benchmark7CounterEESt10_Select1stISA_ESt4lessIS5_ESaISA_EE8_M_eraseEPSt13_Rb_tree_nodeISA_E.isra.0+0x210>
	mov    0x18(%r15),%rbx
	test   %rbx,%rbx
	je     <_ZNSt8_Rb_treeINSt7__cxx1112basic_stringIcSt11char_traitsIcESaIcEEESt4pairIKS5_N9benchmark7CounterEESt10_Select1stISA_ESt4lessIS5_ESaISA_EE8_M_eraseEPSt13_Rb_tree_nodeISA_E.isra.0+0x190>
	mov    0x18(%rbx),%rbp
	test   %rbp,%rbp
	je     <_ZNSt8_Rb_treeINSt7__cxx1112basic_stringIcSt11char_traitsIcESaIcEEESt4pairIKS5_N9benchmark7CounterEESt10_Select1stISA_ESt4lessIS5_ESaISA_EE8_M_eraseEPSt13_Rb_tree_nodeISA_E.isra.0+0x11a>
	mov    0x18(%rbp),%r12
	test   %r12,%r12
	je     <_ZNSt8_Rb_treeINSt7__cxx1112basic_stringIcSt11char_traitsIcESaIcEEESt4pairIKS5_N9benchmark7CounterEESt10_Select1stISA_ESt4lessIS5_ESaISA_EE8_M_eraseEPSt13_Rb_tree_nodeISA_E.isra.0+0x158>
	mov    0x18(%r12),%r14
	test   %r14,%r14
	je     <_ZNSt8_Rb_treeINSt7__cxx1112basic_stringIcSt11char_traitsIcESaIcEEESt4pairIKS5_N9benchmark7CounterEESt10_Select1stISA_ESt4lessIS5_ESaISA_EE8_M_eraseEPSt13_Rb_tree_nodeISA_E.isra.0+0x1d0>
	mov    0x18(%r14),%r13
	test   %r13,%r13
	je     <_ZNSt8_Rb_treeINSt7__cxx1112basic_stringIcSt11char_traitsIcESaIcEEESt4pairIKS5_N9benchmark7CounterEESt10_Select1stISA_ESt4lessIS5_ESaISA_EE8_M_eraseEPSt13_Rb_tree_nodeISA_E.isra.0+0xde>
	mov    0x18(%r13),%rdi
	call   <_ZNSt8_Rb_treeINSt7__cxx1112basic_stringIcSt11char_traitsIcESaIcEEESt4pairIKS5_N9benchmark7CounterEESt10_Select1stISA_ESt4lessIS5_ESaISA_EE8_M_eraseEPSt13_Rb_tree_nodeISA_E.isra.0>
	mov    %r13,%rdx
	mov    0x10(%r13),%r13
	mov    0x20(%rdx),%rdi
	lea    0x30(%rdx),%rcx
	cmp    %rcx,%rdi
	je     <_ZNSt8_Rb_treeINSt7__cxx1112basic_stringIcSt11char_traitsIcESaIcEEESt4pairIKS5_N9benchmark7CounterEESt10_Select1stISA_ESt4lessIS5_ESaISA_EE8_M_eraseEPSt13_Rb_tree_nodeISA_E.isra.0+0xcc>
	mov    0x30(%rdx),%rax
	mov    %rdx,(%rsp)
	lea    0x1(%rax),%rsi
	call   <_ZdlPvm@plt>
	mov    (%rsp),%rdx
	mov    $0x50,%esi
	mov    %rdx,%rdi
	call   <_ZdlPvm@plt>
	test   %r13,%r13
	jne    <_ZNSt8_Rb_treeINSt7__cxx1112basic_stringIcSt11char_traitsIcESaIcEEESt4pairIKS5_N9benchmark7CounterEESt10_Select1stISA_ESt4lessIS5_ESaISA_EE8_M_eraseEPSt13_Rb_tree_nodeISA_E.isra.0+0x9a>
	mov    0x20(%r14),%rdi
	lea    0x30(%r14),%rdx
	mov    0x10(%r14),%r13
	cmp    %rdx,%rdi
	je     <_ZNSt8_Rb_treeINSt7__cxx1112basic_stringIcSt11char_traitsIcESaIcEEESt4pairIKS5_N9benchmark7CounterEESt10_Select1stISA_ESt4lessIS5_ESaISA_EE8_M_eraseEPSt13_Rb_tree_nodeISA_E.isra.0+0xfc>
	mov    0x30(%r14),%rax
	lea    0x1(%rax),%rsi
	call   <_ZdlPvm@plt>
	mov    $0x50,%esi
	mov    %r14,%rdi
	call   <_ZdlPvm@plt>
	test   %r13,%r13
	je     <_ZNSt8_Rb_treeINSt7__cxx1112basic_stringIcSt11char_traitsIcESaIcEEESt4pairIKS5_N9benchmark7CounterEESt10_Select1stISA_ESt4lessIS5_ESaISA_EE8_M_eraseEPSt13_Rb_tree_nodeISA_E.isra.0+0x1d0>
	mov    %r13,%r14
	jmp    <_ZNSt8_Rb_treeINSt7__cxx1112basic_stringIcSt11char_traitsIcESaIcEEESt4pairIKS5_N9benchmark7CounterEESt10_Select1stISA_ESt4lessIS5_ESaISA_EE8_M_eraseEPSt13_Rb_tree_nodeISA_E.isra.0+0x91>
	mov    0x20(%rbx),%rdi
	lea    0x30(%rbx),%rax
	mov    0x10(%rbx),%rbp
	cmp    %rax,%rdi
	je     <_ZNSt8_Rb_treeINSt7__cxx1112basic_stringIcSt11char_traitsIcESaIcEEESt4pairIKS5_N9benchmark7CounterEESt10_Select1stISA_ESt4lessIS5_ESaISA_EE8_M_eraseEPSt13_Rb_tree_nodeISA_E.isra.0+0x138>
	mov    0x30(%rbx),%rax
	lea    0x1(%rax),%rsi
	call   <_ZdlPvm@plt>
	mov    $0x50,%esi
	mov    %rbx,%rdi
	call   <_ZdlPvm@plt>
	test   %rbp,%rbp
	je     <_ZNSt8_Rb_treeINSt7__cxx1112basic_stringIcSt11char_traitsIcESaIcEEESt4pairIKS5_N9benchmark7CounterEESt10_Select1stISA_ESt4lessIS5_ESaISA_EE8_M_eraseEPSt13_Rb_tree_nodeISA_E.isra.0+0x190>
	mov    %rbp,%rbx
	jmp    <_ZNSt8_Rb_treeINSt7__cxx1112basic_stringIcSt11char_traitsIcESaIcEEESt4pairIKS5_N9benchmark7CounterEESt10_Select1stISA_ESt4lessIS5_ESaISA_EE8_M_eraseEPSt13_Rb_tree_nodeISA_E.isra.0+0x69>
	nopw   0x0(%rax,%rax,1)
	mov    0x20(%rbp),%rdi
	lea    0x30(%rbp),%rax
	mov    0x10(%rbp),%r12
	cmp    %rax,%rdi
	je     <_ZNSt8_Rb_treeINSt7__cxx1112basic_stringIcSt11char_traitsIcESaIcEEESt4pairIKS5_N9benchmark7CounterEESt10_Select1stISA_ESt4lessIS5_ESaISA_EE8_M_eraseEPSt13_Rb_tree_nodeISA_E.isra.0+0x176>
	mov    0x30(%rbp),%rax
	lea    0x1(%rax),%rsi
	call   <_ZdlPvm@plt>
	mov    $0x50,%esi
	mov    %rbp,%rdi
	call   <_ZdlPvm@plt>
	test   %r12,%r12
	je     <_ZNSt8_Rb_treeINSt7__cxx1112basic_stringIcSt11char_traitsIcESaIcEEESt4pairIKS5_N9benchmark7CounterEESt10_Select1stISA_ESt4lessIS5_ESaISA_EE8_M_eraseEPSt13_Rb_tree_nodeISA_E.isra.0+0x11a>
	mov    %r12,%rbp
	jmp    <_ZNSt8_Rb_treeINSt7__cxx1112basic_stringIcSt11char_traitsIcESaIcEEESt4pairIKS5_N9benchmark7CounterEESt10_Select1stISA_ESt4lessIS5_ESaISA_EE8_M_eraseEPSt13_Rb_tree_nodeISA_E.isra.0+0x76>
	mov    0x20(%r15),%rdi
	lea    0x30(%r15),%rax
	mov    0x10(%r15),%rbx
	cmp    %rax,%rdi
	je     <_ZNSt8_Rb_treeINSt7__cxx1112basic_stringIcSt11char_traitsIcESaIcEEESt4pairIKS5_N9benchmark7CounterEESt10_Select1stISA_ESt4lessIS5_ESaISA_EE8_M_eraseEPSt13_Rb_tree_nodeISA_E.isra.0+0x1ae>
	mov    0x30(%r15),%rax
	lea    0x1(%rax),%rsi
	call   <_ZdlPvm@plt>
	mov    $0x50,%esi
	mov    %r15,%rdi
	call   <_ZdlPvm@plt>
	test   %rbx,%rbx
	je     <_ZNSt8_Rb_treeINSt7__cxx1112basic_stringIcSt11char_traitsIcESaIcEEESt4pairIKS5_N9benchmark7CounterEESt10_Select1stISA_ESt4lessIS5_ESaISA_EE8_M_eraseEPSt13_Rb_tree_nodeISA_E.isra.0+0x210>
	mov    %rbx,%r15
	jmp    <_ZNSt8_Rb_treeINSt7__cxx1112basic_stringIcSt11char_traitsIcESaIcEEESt4pairIKS5_N9benchmark7CounterEESt10_Select1stISA_ESt4lessIS5_ESaISA_EE8_M_eraseEPSt13_Rb_tree_nodeISA_E.isra.0+0x5c>
	nopl   0x0(%rax,%rax,1)
	mov    0x20(%r12),%rdi
	lea    0x30(%r12),%rax
	mov    0x10(%r12),%r13
	cmp    %rax,%rdi
	je     <_ZNSt8_Rb_treeINSt7__cxx1112basic_stringIcSt11char_traitsIcESaIcEEESt4pairIKS5_N9benchmark7CounterEESt10_Select1stISA_ESt4lessIS5_ESaISA_EE8_M_eraseEPSt13_Rb_tree_nodeISA_E.isra.0+0x1f2>
	mov    0x30(%r12),%rax
	lea    0x1(%rax),%rsi
	call   <_ZdlPvm@plt>
	mov    $0x50,%esi
	mov    %r12,%rdi
	call   <_ZdlPvm@plt>
	test   %r13,%r13
	je     <_ZNSt8_Rb_treeINSt7__cxx1112basic_stringIcSt11char_traitsIcESaIcEEESt4pairIKS5_N9benchmark7CounterEESt10_Select1stISA_ESt4lessIS5_ESaISA_EE8_M_eraseEPSt13_Rb_tree_nodeISA_E.isra.0+0x158>
	mov    %r13,%r12
	jmp    <_ZNSt8_Rb_treeINSt7__cxx1112basic_stringIcSt11char_traitsIcESaIcEEESt4pairIKS5_N9benchmark7CounterEESt10_Select1stISA_ESt4lessIS5_ESaISA_EE8_M_eraseEPSt13_Rb_tree_nodeISA_E.isra.0+0x83>
	mov    0x10(%rsp),%rcx
	mov    0x20(%rcx),%rdi
	lea    0x30(%rcx),%rax
	mov    0x10(%rcx),%rbx
	cmp    %rax,%rdi
	je     <_ZNSt8_Rb_treeINSt7__cxx1112basic_stringIcSt11char_traitsIcESaIcEEESt4pairIKS5_N9benchmark7CounterEESt10_Select1stISA_ESt4lessIS5_ESaISA_EE8_M_eraseEPSt13_Rb_tree_nodeISA_E.isra.0+0x237>
	mov    0x30(%rcx),%rax
	lea    0x1(%rax),%rsi
	mov    %rax,(%rsp)
	call   <_ZdlPvm@plt>
	mov    0x10(%rsp),%rdi
	mov    $0x50,%esi
	call   <_ZdlPvm@plt>
	test   %rbx,%rbx
	je     <_ZNSt8_Rb_treeINSt7__cxx1112basic_stringIcSt11char_traitsIcESaIcEEESt4pairIKS5_N9benchmark7CounterEESt10_Select1stISA_ESt4lessIS5_ESaISA_EE8_M_eraseEPSt13_Rb_tree_nodeISA_E.isra.0+0x255>
	mov    %rbx,0x10(%rsp)
	jmp    <_ZNSt8_Rb_treeINSt7__cxx1112basic_stringIcSt11char_traitsIcESaIcEEESt4pairIKS5_N9benchmark7CounterEESt10_Select1stISA_ESt4lessIS5_ESaISA_EE8_M_eraseEPSt13_Rb_tree_nodeISA_E.isra.0+0x4a>
	mov    0x8(%rsp),%rcx
	mov    0x20(%rcx),%rdi
	lea    0x30(%rcx),%rax
	mov    0x10(%rcx),%rbx
	cmp    %rax,%rdi
	je     <_ZNSt8_Rb_treeINSt7__cxx1112basic_stringIcSt11char_traitsIcESaIcEEESt4pairIKS5_N9benchmark7CounterEESt10_Select1stISA_ESt4lessIS5_ESaISA_EE8_M_eraseEPSt13_Rb_tree_nodeISA_E.isra.0+0x27c>
	mov    0x30(%rcx),%rax
	lea    0x1(%rax),%rsi
	mov    %rax,(%rsp)
	call   <_ZdlPvm@plt>
	mov    0x8(%rsp),%rdi
	mov    $0x50,%esi
	call   <_ZdlPvm@plt>
	test   %rbx,%rbx
	je     <_ZNSt8_Rb_treeINSt7__cxx1112basic_stringIcSt11char_traitsIcESaIcEEESt4pairIKS5_N9benchmark7CounterEESt10_Select1stISA_ESt4lessIS5_ESaISA_EE8_M_eraseEPSt13_Rb_tree_nodeISA_E.isra.0+0x29a>
	mov    %rbx,0x8(%rsp)
	jmp    <_ZNSt8_Rb_treeINSt7__cxx1112basic_stringIcSt11char_traitsIcESaIcEEESt4pairIKS5_N9benchmark7CounterEESt10_Select1stISA_ESt4lessIS5_ESaISA_EE8_M_eraseEPSt13_Rb_tree_nodeISA_E.isra.0+0x33>
	mov    0x18(%rsp),%rdx
	mov    0x20(%rdx),%rdi
	lea    0x30(%rdx),%rax
	mov    0x10(%rdx),%rbx
	cmp    %rax,%rdi
	je     <_ZNSt8_Rb_treeINSt7__cxx1112basic_stringIcSt11char_traitsIcESaIcEEESt4pairIKS5_N9benchmark7CounterEESt10_Select1stISA_ESt4lessIS5_ESaISA_EE8_M_eraseEPSt13_Rb_tree_nodeISA_E.isra.0+0x2c1>
	mov    0x30(%rdx),%rax
	lea    0x1(%rax),%rsi
	mov    %rax,(%rsp)
	call   <_ZdlPvm@plt>
	mov    0x18(%rsp),%rdi
	mov    $0x50,%esi
	call   <_ZdlPvm@plt>
	test   %rbx,%rbx
	je     <_ZNSt8_Rb_treeINSt7__cxx1112basic_stringIcSt11char_traitsIcESaIcEEESt4pairIKS5_N9benchmark7CounterEESt10_Select1stISA_ESt4lessIS5_ESaISA_EE8_M_eraseEPSt13_Rb_tree_nodeISA_E.isra.0+0x2df>
	mov    %rbx,0x18(%rsp)
	jmp    <_ZNSt8_Rb_treeINSt7__cxx1112basic_stringIcSt11char_traitsIcESaIcEEESt4pairIKS5_N9benchmark7CounterEESt10_Select1stISA_ESt4lessIS5_ESaISA_EE8_M_eraseEPSt13_Rb_tree_nodeISA_E.isra.0+0x1c>
	add    $0x28,%rsp
	pop    %rbx
	pop    %rbp
	pop    %r12
	pop    %r13
	pop    %r14
	pop    %r15
	ret
	xchg   %ax,%ax

<_ZNSt8_Rb_treeINSt7__cxx1112basic_stringIcSt11char_traitsIcESaIcEEESt4pairIKS5_N9benchmark7CounterEESt10_Select1stISA_ESt4lessIS5_ESaISA_EE7_M_copyILb0ENSG_20_Reuse_or_alloc_nodeEEEPSt13_Rb_tree_nodeISA_ESL_PSt18_Rb_tree_node_baseRT0_.isra.0>:
	push   %r15
	push   %r14
	push   %r13
	mov    %rdx,%r13
	push   %r12
	push   %rbp
	mov    %rsi,%rbp
	push   %rbx
	mov    %rdi,%rbx
	sub    $0x28,%rsp
	mov    0x8(%rdx),%r12
	mov    %fs:0x28,%rax
	mov    %rax,0x18(%rsp)
	xor    %eax,%eax
	test   %r12,%r12
	je     <_ZNSt8_Rb_treeINSt7__cxx1112basic_stringIcSt11char_traitsIcESaIcEEESt4pairIKS5_N9benchmark7CounterEESt10_Select1stISA_ESt4lessIS5_ESaISA_EE7_M_copyILb0ENSG_20_Reuse_or_alloc_nodeEEEPSt13_Rb_tree_nodeISA_ESL_PSt18_Rb_tree_node_baseRT0_.isra.0+0x330>
	mov    0x8(%r12),%rax
	mov    %rax,0x8(%rdx)
	test   %rax,%rax
	je     <_ZNSt8_Rb_treeINSt7__cxx1112basic_stringIcSt11char_traitsIcESaIcEEESt4pairIKS5_N9benchmark7CounterEESt10_Select1stISA_ESt4lessIS5_ESaISA_EE7_M_copyILb0ENSG_20_Reuse_or_alloc_nodeEEEPSt13_Rb_tree_nodeISA_ESL_PSt18_Rb_tree_node_baseRT0_.isra.0+0x3e0>
	cmp    0x18(%rax),%r12
	je     <_ZNSt8_Rb_treeINSt7__cxx1112basic_stringIcSt11char_traitsIcESaIcEEESt4pairIKS5_N9benchmark7CounterEESt10_Select1stISA_ESt4lessIS5_ESaISA_EE7_M_copyILb0ENSG_20_Reuse_or_alloc_nodeEEEPSt13_Rb_tree_nodeISA_ESL_PSt18_Rb_tree_node_baseRT0_.isra.0+0x3f0>
	movq   $0x0,0x10(%rax)
	mov    0x20(%r12),%rdi
	lea    0x30(%r12),%rax
	cmp    %rax,%rdi
	je     <_ZNSt8_Rb_treeINSt7__cxx1112basic_stringIcSt11char_traitsIcESaIcEEESt4pairIKS5_N9benchmark7CounterEESt10_Select1stISA_ESt4lessIS5_ESaISA_EE7_M_copyILb0ENSG_20_Reuse_or_alloc_nodeEEEPSt13_Rb_tree_nodeISA_ESL_PSt18_Rb_tree_node_baseRT0_.isra.0+0x7f>
	mov    %rax,0x8(%rsp)
	mov    0x30(%r12),%rax
	lea    0x1(%rax),%rsi
	call   <_ZdlPvm@plt>
	mov    0x8(%rsp),%rax
	mov    0x28(%rbx),%r14
	mov    %rax,0x20(%r12)
	mov    0x20(%rbx),%r15
	mov    %r14,0x10(%rsp)
	cmp    $0xf,%r14
	ja     <_ZNSt8_Rb_treeINSt7__cxx1112basic_stringIcSt11char_traitsIcESaIcEEESt4pairIKS5_N9benchmark7CounterEESt10_Select1stISA_ESt4lessIS5_ESaISA_EE7_M_copyILb0ENSG_20_Reuse_or_alloc_nodeEEEPSt13_Rb_tree_nodeISA_ESL_PSt18_Rb_tree_node_baseRT0_.isra.0+0x450>
	cmp    $0x1,%r14
	je     <_ZNSt8_Rb_treeINSt7__cxx1112basic_stringIcSt11char_traitsIcESaIcEEESt4pairIKS5_N9benchmark7CounterEESt10_Select1stISA_ESt4lessIS5_ESaISA_EE7_M_copyILb0ENSG_20_Reuse_or_alloc_nodeEEEPSt13_Rb_tree_nodeISA_ESL_PSt18_Rb_tree_node_baseRT0_.isra.0+0x490>
	test   %r14,%r14
	jne    <_ZNSt8_Rb_treeINSt7__cxx1112basic_stringIcSt11char_traitsIcESaIcEEESt4pairIKS5_N9benchmark7CounterEESt10_Select1stISA_ESt4lessIS5_ESaISA_EE7_M_copyILb0ENSG_20_Reuse_or_alloc_nodeEEEPSt13_Rb_tree_nodeISA_ESL_PSt18_Rb_tree_node_baseRT0_.isra.0+0x470>
	mov    %r14,0x28(%r12)
	movb   $0x0,(%rax,%r14,1)
	movdqu 0x40(%rbx),%xmm2
	movups %xmm2,0x40(%r12)
	mov    (%rbx),%eax
	mov    %rbp,0x8(%r12)
	movq   $0x0,0x10(%r12)
	movq   $0x0,0x18(%r12)
	mov    0x18(%rbx),%rdi
	mov    %eax,(%r12)
	test   %rdi,%rdi
	je     <_ZNSt8_Rb_treeINSt7__cxx1112basic_stringIcSt11char_traitsIcESaIcEEESt4pairIKS5_N9benchmark7CounterEESt10_Select1stISA_ESt4lessIS5_ESaISA_EE7_M_copyILb0ENSG_20_Reuse_or_alloc_nodeEEEPSt13_Rb_tree_nodeISA_ESL_PSt18_Rb_tree_node_baseRT0_.isra.0+0xf9>
	mov    %r13,%rdx
	mov    %r12,%rsi
	call   <_ZNSt8_Rb_treeINSt7__cxx1112basic_stringIcSt11char_traitsIcESaIcEEESt4pairIKS5_N9benchmark7CounterEESt10_Select1stISA_ESt4lessIS5_ESaISA_EE7_M_copyILb0ENSG_20_Reuse_or_alloc_nodeEEEPSt13_Rb_tree_nodeISA_ESL_PSt18_Rb_tree_node_baseRT0_.isra.0>
	mov    %rax,0x18(%r12)
	mov    0x10(%rbx),%rbp
	mov    %r12,%r15
	test   %rbp,%rbp
	je     <_ZNSt8_Rb_treeINSt7__cxx1112basic_stringIcSt11char_traitsIcESaIcEEESt4pairIKS5_N9benchmark7CounterEESt10_Select1stISA_ESt4lessIS5_ESaISA_EE7_M_copyILb0ENSG_20_Reuse_or_alloc_nodeEEEPSt13_Rb_tree_nodeISA_ESL_PSt18_Rb_tree_node_baseRT0_.isra.0+0x250>
	mov    0x8(%r13),%rbx
	test   %rbx,%rbx
	je     <_ZNSt8_Rb_treeINSt7__cxx1112basic_stringIcSt11char_traitsIcESaIcEEESt4pairIKS5_N9benchmark7CounterEESt10_Select1stISA_ESt4lessIS5_ESaISA_EE7_M_copyILb0ENSG_20_Reuse_or_alloc_nodeEEEPSt13_Rb_tree_nodeISA_ESL_PSt18_Rb_tree_node_baseRT0_.isra.0+0x1f0>
	mov    0x8(%rbx),%rax
	mov    %rax,0x8(%r13)
	test   %rax,%rax
	je     <_ZNSt8_Rb_treeINSt7__cxx1112basic_stringIcSt11char_traitsIcESaIcEEESt4pairIKS5_N9benchmark7CounterEESt10_Select1stISA_ESt4lessIS5_ESaISA_EE7_M_copyILb0ENSG_20_Reuse_or_alloc_nodeEEEPSt13_Rb_tree_nodeISA_ESL_PSt18_Rb_tree_node_baseRT0_.isra.0+0x280>
	cmp    0x18(%rax),%rbx
	je     <_ZNSt8_Rb_treeINSt7__cxx1112basic_stringIcSt11char_traitsIcESaIcEEESt4pairIKS5_N9benchmark7CounterEESt10_Select1stISA_ESt4lessIS5_ESaISA_EE7_M_copyILb0ENSG_20_Reuse_or_alloc_nodeEEEPSt13_Rb_tree_nodeISA_ESL_PSt18_Rb_tree_node_baseRT0_.isra.0+0x2e0>
	movq   $0x0,0x10(%rax)
	mov    0x20(%rbx),%rdi
	lea    0x30(%rbx),%rax
	cmp    %rax,%rdi
	je     <_ZNSt8_Rb_treeINSt7__cxx1112basic_stringIcSt11char_traitsIcESaIcEEESt4pairIKS5_N9benchmark7CounterEESt10_Select1stISA_ESt4lessIS5_ESaISA_EE7_M_copyILb0ENSG_20_Reuse_or_alloc_nodeEEEPSt13_Rb_tree_nodeISA_ESL_PSt18_Rb_tree_node_baseRT0_.isra.0+0x15d>
	mov    %rax,0x8(%rsp)
	mov    0x30(%rbx),%rax
	lea    0x1(%rax),%rsi
	call   <_ZdlPvm@plt>
	mov    0x8(%rsp),%rax
	mov    %rax,0x20(%rbx)
	mov    0x28(%rbp),%r14
	mov    0x20(%rbp),%rcx
	mov    %r14,0x10(%rsp)
	mov    %rcx,0x8(%rsp)
	cmp    $0xf,%r14
	ja     <_ZNSt8_Rb_treeINSt7__cxx1112basic_stringIcSt11char_traitsIcESaIcEEESt4pairIKS5_N9benchmark7CounterEESt10_Select1stISA_ESt4lessIS5_ESaISA_EE7_M_copyILb0ENSG_20_Reuse_or_alloc_nodeEEEPSt13_Rb_tree_nodeISA_ESL_PSt18_Rb_tree_node_baseRT0_.isra.0+0x2a0>
	cmp    $0x1,%r14
	je     <_ZNSt8_Rb_treeINSt7__cxx1112basic_stringIcSt11char_traitsIcESaIcEEESt4pairIKS5_N9benchmark7CounterEESt10_Select1stISA_ESt4lessIS5_ESaISA_EE7_M_copyILb0ENSG_20_Reuse_or_alloc_nodeEEEPSt13_Rb_tree_nodeISA_ESL_PSt18_Rb_tree_node_baseRT0_.isra.0+0x290>
	test   %r14,%r14
	jne    <_ZNSt8_Rb_treeINSt7__cxx1112basic_stringIcSt11char_traitsIcESaIcEEESt4pairIKS5_N9benchmark7CounterEESt10_Select1stISA_ESt4lessIS5_ESaISA_EE7_M_copyILb0ENSG_20_Reuse_or_alloc_nodeEEEPSt13_Rb_tree_nodeISA_ESL_PSt18_Rb_tree_node_baseRT0_.isra.0+0x2bd>
	mov    %r14,0x28(%rbx)
	movb   $0x0,(%rax,%r14,1)
	movdqu 0x40(%rbp),%xmm0
	movups %xmm0,0x40(%rbx)
	mov    0x0(%rbp),%eax
	movq   $0x0,0x10(%rbx)
	movq   $0x0,0x18(%rbx)
	mov    %eax,(%rbx)
	mov    %rbx,0x10(%r15)
	mov    %r15,0x8(%rbx)
	mov    0x18(%rbp),%rdi
	test   %rdi,%rdi
	je     <_ZNSt8_Rb_treeINSt7__cxx1112basic_stringIcSt11char_traitsIcESaIcEEESt4pairIKS5_N9benchmark7CounterEESt10_Select1stISA_ESt4lessIS5_ESaISA_EE7_M_copyILb0ENSG_20_Reuse_or_alloc_nodeEEEPSt13_Rb_tree_nodeISA_ESL_PSt18_Rb_tree_node_baseRT0_.isra.0+0x1d7>
	mov    %r13,%rdx
	mov    %rbx,%rsi
	call   <_ZNSt8_Rb_treeINSt7__cxx1112basic_stringIcSt11char_traitsIcESaIcEEESt4pairIKS5_N9benchmark7CounterEESt10_Select1stISA_ESt4lessIS5_ESaISA_EE7_M_copyILb0ENSG_20_Reuse_or_alloc_nodeEEEPSt13_Rb_tree_nodeISA_ESL_PSt18_Rb_tree_node_baseRT0_.isra.0>
	mov    %rax,0x18(%rbx)
	mov    0x10(%rbp),%rbp
	test   %rbp,%rbp
	je     <_ZNSt8_Rb_treeINSt7__cxx1112basic_stringIcSt11char_traitsIcESaIcEEESt4pairIKS5_N9benchmark7CounterEESt10_Select1stISA_ESt4lessIS5_ESaISA_EE7_M_copyILb0ENSG_20_Reuse_or_alloc_nodeEEEPSt13_Rb_tree_nodeISA_ESL_PSt18_Rb_tree_node_baseRT0_.isra.0+0x250>
	mov    %rbx,%r15
	mov    0x8(%r13),%rbx
	test   %rbx,%rbx
	jne    <_ZNSt8_Rb_treeINSt7__cxx1112basic_stringIcSt11char_traitsIcESaIcEEESt4pairIKS5_N9benchmark7CounterEESt10_Select1stISA_ESt4lessIS5_ESaISA_EE7_M_copyILb0ENSG_20_Reuse_or_alloc_nodeEEEPSt13_Rb_tree_nodeISA_ESL_PSt18_Rb_tree_node_baseRT0_.isra.0+0x116>
	mov    $0x50,%edi
	call   <_Znwm@plt>
	mov    %rax,%rbx
	mov    0x28(%rbp),%r14
	lea    0x20(%rax),%rax
	lea    0x30(%rbx),%rdi
	mov    %rdi,0x20(%rbx)
	mov    0x20(%rbp),%rcx
	mov    %r14,0x10(%rsp)
	mov    %rcx,0x8(%rsp)
	cmp    $0xf,%r14
	ja     <_ZNSt8_Rb_treeINSt7__cxx1112basic_stringIcSt11char_traitsIcESaIcEEESt4pairIKS5_N9benchmark7CounterEESt10_Select1stISA_ESt4lessIS5_ESaISA_EE7_M_copyILb0ENSG_20_Reuse_or_alloc_nodeEEEPSt13_Rb_tree_nodeISA_ESL_PSt18_Rb_tree_node_baseRT0_.isra.0+0x3a0>
	cmp    $0x1,%r14
	je     <_ZNSt8_Rb_treeINSt7__cxx1112basic_stringIcSt11char_traitsIcESaIcEEESt4pairIKS5_N9benchmark7CounterEESt10_Select1stISA_ESt4lessIS5_ESaISA_EE7_M_copyILb0ENSG_20_Reuse_or_alloc_nodeEEEPSt13_Rb_tree_nodeISA_ESL_PSt18_Rb_tree_node_baseRT0_.isra.0+0x390>
	test   %r14,%r14
	jne    <_ZNSt8_Rb_treeINSt7__cxx1112basic_stringIcSt11char_traitsIcESaIcEEESt4pairIKS5_N9benchmark7CounterEESt10_Select1stISA_ESt4lessIS5_ESaISA_EE7_M_copyILb0ENSG_20_Reuse_or_alloc_nodeEEEPSt13_Rb_tree_nodeISA_ESL_PSt18_Rb_tree_node_baseRT0_.isra.0+0x3bf>
	mov    %r14,0x28(%rbx)
	movb   $0x0,(%rdi,%r14,1)
	movdqu 0x40(%rbp),%xmm1
	movups %xmm1,0x40(%rbx)
	jmp    <_ZNSt8_Rb_treeINSt7__cxx1112basic_stringIcSt11char_traitsIcESaIcEEESt4pairIKS5_N9benchmark7CounterEESt10_Select1stISA_ESt4lessIS5_ESaISA_EE7_M_copyILb0ENSG_20_Reuse_or_alloc_nodeEEEPSt13_Rb_tree_nodeISA_ESL_PSt18_Rb_tree_node_baseRT0_.isra.0+0x1a2>
	nop
	mov    0x18(%rsp),%rax
	sub    %fs:0x28,%rax
	jne    <_ZNSt8_Rb_treeINSt7__cxx1112basic_stringIcSt11char_traitsIcESaIcEEESt4pairIKS5_N9benchmark7CounterEESt10_Select1stISA_ESt4lessIS5_ESaISA_EE7_M_copyILb0ENSG_20_Reuse_or_alloc_nodeEEEPSt13_Rb_tree_nodeISA_ESL_PSt18_Rb_tree_node_baseRT0_.isra.0+0x4db>
	add    $0x28,%rsp
	mov    %r12,%rax
	pop    %rbx
	pop    %rbp
	pop    %r12
	pop    %r13
	pop    %r14
	pop    %r15
	ret
	cs nopw 0x0(%rax,%rax,1)
	movq   $0x0,0x0(%r13)
	jmp    <_ZNSt8_Rb_treeINSt7__cxx1112basic_stringIcSt11char_traitsIcESaIcEEESt4pairIKS5_N9benchmark7CounterEESt10_Select1stISA_ESt4lessIS5_ESaISA_EE7_M_copyILb0ENSG_20_Reuse_or_alloc_nodeEEEPSt13_Rb_tree_nodeISA_ESL_PSt18_Rb_tree_node_baseRT0_.isra.0+0x139>
	nopl   (%rax)
	movzbl (%rcx),%edx
	mov    %dl,0x30(%rbx)
	jmp    <_ZNSt8_Rb_treeINSt7__cxx1112basic_stringIcSt11char_traitsIcESaIcEEESt4pairIKS5_N9benchmark7CounterEESt10_Select1stISA_ESt4lessIS5_ESaISA_EE7_M_copyILb0ENSG_20_Reuse_or_alloc_nodeEEEPSt13_Rb_tree_nodeISA_ESL_PSt18_Rb_tree_node_baseRT0_.isra.0+0x190>
	nopl   0x0(%rax,%rax,1)
	lea    0x10(%rsp),%rsi
	lea    0x20(%rbx),%rdi
	xor    %edx,%edx
	call   <_ZNSt7__cxx1112basic_stringIcSt11char_traitsIcESaIcEE9_M_createERmm@plt>
	mov    0x10(%rsp),%rdx
	mov    %rax,0x20(%rbx)
	mov    %rdx,0x30(%rbx)
	mov    0x8(%rsp),%rsi
	mov    %r14,%rdx
	mov    %rax,%rdi
	call   <memcpy@plt>
	mov    0x10(%rsp),%r14
	mov    0x20(%rbx),%rax
	jmp    <_ZNSt8_Rb_treeINSt7__cxx1112basic_stringIcSt11char_traitsIcESaIcEEESt4pairIKS5_N9benchmark7CounterEESt10_Select1stISA_ESt4lessIS5_ESaISA_EE7_M_copyILb0ENSG_20_Reuse_or_alloc_nodeEEEPSt13_Rb_tree_nodeISA_ESL_PSt18_Rb_tree_node_baseRT0_.isra.0+0x190>
	nopl   0x0(%rax,%rax,1)
	mov    0x10(%rax),%rdx
	movq   $0x0,0x18(%rax)
	test   %rdx,%rdx
	je     <_ZNSt8_Rb_treeINSt7__cxx1112basic_stringIcSt11char_traitsIcESaIcEEESt4pairIKS5_N9benchmark7CounterEESt10_Select1stISA_ESt4lessIS5_ESaISA_EE7_M_copyILb0ENSG_20_Reuse_or_alloc_nodeEEEPSt13_Rb_tree_nodeISA_ESL_PSt18_Rb_tree_node_baseRT0_.isra.0+0x139>
	mov    0x18(%rdx),%rax
	mov    %rdx,0x8(%r13)
	test   %rax,%rax
	je     <_ZNSt8_Rb_treeINSt7__cxx1112basic_stringIcSt11char_traitsIcESaIcEEESt4pairIKS5_N9benchmark7CounterEESt10_Select1stISA_ESt4lessIS5_ESaISA_EE7_M_copyILb0ENSG_20_Reuse_or_alloc_nodeEEEPSt13_Rb_tree_nodeISA_ESL_PSt18_Rb_tree_node_baseRT0_.isra.0+0x318>
	nopw   0x0(%rax,%rax,1)
	mov    %rax,%rdx
	mov    0x18(%rax),%rax
	test   %rax,%rax
	jne    <_ZNSt8_Rb_treeINSt7__cxx1112basic_stringIcSt11char_traitsIcESaIcEEESt4pairIKS5_N9benchmark7CounterEESt10_Select1stISA_ESt4lessIS5_ESaISA_EE7_M_copyILb0ENSG_20_Reuse_or_alloc_nodeEEEPSt13_Rb_tree_nodeISA_ESL_PSt18_Rb_tree_node_baseRT0_.isra.0+0x308>
	mov    %rdx,0x8(%r13)
	mov    0x10(%rdx),%rax
	test   %rax,%rax
	je     <_ZNSt8_Rb_treeINSt7__cxx1112basic_stringIcSt11char_traitsIcESaIcEEESt4pairIKS5_N9benchmark7CounterEESt10_Select1stISA_ESt4lessIS5_ESaISA_EE7_M_copyILb0ENSG_20_Reuse_or_alloc_nodeEEEPSt13_Rb_tree_nodeISA_ESL_PSt18_Rb_tree_node_baseRT0_.isra.0+0x139>
	mov    %rax,0x8(%r13)
	jmp    <_ZNSt8_Rb_treeINSt7__cxx1112basic_stringIcSt11char_traitsIcESaIcEEESt4pairIKS5_N9benchmark7CounterEESt10_Select1stISA_ESt4lessIS5_ESaISA_EE7_M_copyILb0ENSG_20_Reuse_or_alloc_nodeEEEPSt13_Rb_tree_nodeISA_ESL_PSt18_Rb_tree_node_baseRT0_.isra.0+0x139>
	xchg   %ax,%ax
	mov    $0x50,%edi
	call   <_Znwm@plt>
	mov    0x28(%rbx),%r14
	mov    0x20(%rbx),%r15
	mov    %rax,%r12
	lea    0x20(%rax),%rax
	lea    0x30(%r12),%rdi
	mov    %r14,0x10(%rsp)
	mov    %rdi,0x20(%r12)
	cmp    $0xf,%r14
	ja     <_ZNSt8_Rb_treeINSt7__cxx1112basic_stringIcSt11char_traitsIcESaIcEEESt4pairIKS5_N9benchmark7CounterEESt10_Select1stISA_ESt4lessIS5_ESaISA_EE7_M_copyILb0ENSG_20_Reuse_or_alloc_nodeEEEPSt13_Rb_tree_nodeISA_ESL_PSt18_Rb_tree_node_baseRT0_.isra.0+0x4a0>
	cmp    $0x1,%r14
	je     <_ZNSt8_Rb_treeINSt7__cxx1112basic_stringIcSt11char_traitsIcESaIcEEESt4pairIKS5_N9benchmark7CounterEESt10_Select1stISA_ESt4lessIS5_ESaISA_EE7_M_copyILb0ENSG_20_Reuse_or_alloc_nodeEEEPSt13_Rb_tree_nodeISA_ESL_PSt18_Rb_tree_node_baseRT0_.isra.0+0x440>
	test   %r14,%r14
	jne    <_ZNSt8_Rb_treeINSt7__cxx1112basic_stringIcSt11char_traitsIcESaIcEEESt4pairIKS5_N9benchmark7CounterEESt10_Select1stISA_ESt4lessIS5_ESaISA_EE7_M_copyILb0ENSG_20_Reuse_or_alloc_nodeEEEPSt13_Rb_tree_nodeISA_ESL_PSt18_Rb_tree_node_baseRT0_.isra.0+0x4c1>
	mov    %r14,0x28(%r12)
	movb   $0x0,(%rdi,%r14,1)
	movdqu 0x40(%rbx),%xmm3
	movups %xmm3,0x40(%r12)
	jmp    <_ZNSt8_Rb_treeINSt7__cxx1112basic_stringIcSt11char_traitsIcESaIcEEESt4pairIKS5_N9benchmark7CounterEESt10_Select1stISA_ESt4lessIS5_ESaISA_EE7_M_copyILb0ENSG_20_Reuse_or_alloc_nodeEEEPSt13_Rb_tree_nodeISA_ESL_PSt18_Rb_tree_node_baseRT0_.isra.0+0xc3>
	nop
	movzbl (%rcx),%eax
	mov    %al,0x30(%rbx)
	jmp    <_ZNSt8_Rb_treeINSt7__cxx1112basic_stringIcSt11char_traitsIcESaIcEEESt4pairIKS5_N9benchmark7CounterEESt10_Select1stISA_ESt4lessIS5_ESaISA_EE7_M_copyILb0ENSG_20_Reuse_or_alloc_nodeEEEPSt13_Rb_tree_nodeISA_ESL_PSt18_Rb_tree_node_baseRT0_.isra.0+0x238>
	nopl   0x0(%rax,%rax,1)
	lea    0x10(%rsp),%rsi
	xor    %edx,%edx
	mov    %rax,%rdi
	call   <_ZNSt7__cxx1112basic_stringIcSt11char_traitsIcESaIcEE9_M_createERmm@plt>
	mov    %rax,0x20(%rbx)
	mov    %rax,%rdi
	mov    0x10(%rsp),%rax
	mov    %rax,0x30(%rbx)
	mov    0x8(%rsp),%rsi
	mov    %r14,%rdx
	call   <memcpy@plt>
	mov    0x10(%rsp),%r14
	mov    0x20(%rbx),%rdi
	jmp    <_ZNSt8_Rb_treeINSt7__cxx1112basic_stringIcSt11char_traitsIcESaIcEEESt4pairIKS5_N9benchmark7CounterEESt10_Select1stISA_ESt4lessIS5_ESaISA_EE7_M_copyILb0ENSG_20_Reuse_or_alloc_nodeEEEPSt13_Rb_tree_nodeISA_ESL_PSt18_Rb_tree_node_baseRT0_.isra.0+0x238>
	nopw   0x0(%rax,%rax,1)
	movq   $0x0,(%rdx)
	jmp    <_ZNSt8_Rb_treeINSt7__cxx1112basic_stringIcSt11char_traitsIcESaIcEEESt4pairIKS5_N9benchmark7CounterEESt10_Select1stISA_ESt4lessIS5_ESaISA_EE7_M_copyILb0ENSG_20_Reuse_or_alloc_nodeEEEPSt13_Rb_tree_nodeISA_ESL_PSt18_Rb_tree_node_baseRT0_.isra.0+0x58>
	nopl   0x0(%rax)
	mov    0x10(%rax),%rdx
	movq   $0x0,0x18(%rax)
	test   %rdx,%rdx
	je     <_ZNSt8_Rb_treeINSt7__cxx1112basic_stringIcSt11char_traitsIcESaIcEEESt4pairIKS5_N9benchmark7CounterEESt10_Select1stISA_ESt4lessIS5_ESaISA_EE7_M_copyILb0ENSG_20_Reuse_or_alloc_nodeEEEPSt13_Rb_tree_nodeISA_ESL_PSt18_Rb_tree_node_baseRT0_.isra.0+0x58>
	mov    0x18(%rdx),%rax
	mov    %rdx,0x8(%r13)
	test   %rax,%rax
	je     <_ZNSt8_Rb_treeINSt7__cxx1112basic_stringIcSt11char_traitsIcESaIcEEESt4pairIKS5_N9benchmark7CounterEESt10_Select1stISA_ESt4lessIS5_ESaISA_EE7_M_copyILb0ENSG_20_Reuse_or_alloc_nodeEEEPSt13_Rb_tree_nodeISA_ESL_PSt18_Rb_tree_node_baseRT0_.isra.0+0x428>
	nopw   0x0(%rax,%rax,1)
	mov    %rax,%rdx
	mov    0x18(%rax),%rax
	test   %rax,%rax
	jne    <_ZNSt8_Rb_treeINSt7__cxx1112basic_stringIcSt11char_traitsIcESaIcEEESt4pairIKS5_N9benchmark7CounterEESt10_Select1stISA_ESt4lessIS5_ESaISA_EE7_M_copyILb0ENSG_20_Reuse_or_alloc_nodeEEEPSt13_Rb_tree_nodeISA_ESL_PSt18_Rb_tree_node_baseRT0_.isra.0+0x418>
	mov    %rdx,0x8(%r13)
	mov    0x10(%rdx),%rax
	test   %rax,%rax
	je     <_ZNSt8_Rb_treeINSt7__cxx1112basic_stringIcSt11char_traitsIcESaIcEEESt4pairIKS5_N9benchmark7CounterEESt10_Select1stISA_ESt4lessIS5_ESaISA_EE7_M_copyILb0ENSG_20_Reuse_or_alloc_nodeEEEPSt13_Rb_tree_nodeISA_ESL_PSt18_Rb_tree_node_baseRT0_.isra.0+0x58>
	mov    %rax,0x8(%r13)
	jmp    <_ZNSt8_Rb_treeINSt7__cxx1112basic_stringIcSt11char_traitsIcESaIcEEESt4pairIKS5_N9benchmark7CounterEESt10_Select1stISA_ESt4lessIS5_ESaISA_EE7_M_copyILb0ENSG_20_Reuse_or_alloc_nodeEEEPSt13_Rb_tree_nodeISA_ESL_PSt18_Rb_tree_node_baseRT0_.isra.0+0x58>
	xchg   %ax,%ax
	movzbl (%r15),%eax
	mov    %al,0x30(%r12)
	jmp    <_ZNSt8_Rb_treeINSt7__cxx1112basic_stringIcSt11char_traitsIcESaIcEEESt4pairIKS5_N9benchmark7CounterEESt10_Select1stISA_ESt4lessIS5_ESaISA_EE7_M_copyILb0ENSG_20_Reuse_or_alloc_nodeEEEPSt13_Rb_tree_nodeISA_ESL_PSt18_Rb_tree_node_baseRT0_.isra.0+0x375>
	xchg   %ax,%ax
	lea    0x10(%rsp),%rsi
	lea    0x20(%r12),%rdi
	xor    %edx,%edx
	call   <_ZNSt7__cxx1112basic_stringIcSt11char_traitsIcESaIcEE9_M_createERmm@plt>
	mov    0x10(%rsp),%rdx
	mov    %rax,0x20(%r12)
	mov    %rdx,0x30(%r12)
	mov    %r14,%rdx
	mov    %r15,%rsi
	mov    %rax,%rdi
	call   <memcpy@plt>
	mov    0x10(%rsp),%r14
	mov    0x20(%r12),%rax
	jmp    <_ZNSt8_Rb_treeINSt7__cxx1112basic_stringIcSt11char_traitsIcESaIcEEESt4pairIKS5_N9benchmark7CounterEESt10_Select1stISA_ESt4lessIS5_ESaISA_EE7_M_copyILb0ENSG_20_Reuse_or_alloc_nodeEEEPSt13_Rb_tree_nodeISA_ESL_PSt18_Rb_tree_node_baseRT0_.isra.0+0xae>
	nopl   (%rax)
	movzbl (%r15),%edx
	mov    %dl,0x30(%r12)
	jmp    <_ZNSt8_Rb_treeINSt7__cxx1112basic_stringIcSt11char_traitsIcESaIcEEESt4pairIKS5_N9benchmark7CounterEESt10_Select1stISA_ESt4lessIS5_ESaISA_EE7_M_copyILb0ENSG_20_Reuse_or_alloc_nodeEEEPSt13_Rb_tree_nodeISA_ESL_PSt18_Rb_tree_node_baseRT0_.isra.0+0xae>
	xchg   %ax,%ax
	lea    0x10(%rsp),%rsi
	xor    %edx,%edx
	mov    %rax,%rdi
	call   <_ZNSt7__cxx1112basic_stringIcSt11char_traitsIcESaIcEE9_M_createERmm@plt>
	mov    %rax,0x20(%r12)
	mov    %rax,%rdi
	mov    0x10(%rsp),%rax
	mov    %rax,0x30(%r12)
	mov    %r14,%rdx
	mov    %r15,%rsi
	call   <memcpy@plt>
	mov    0x10(%rsp),%r14
	mov    0x20(%r12),%rdi
	jmp    <_ZNSt8_Rb_treeINSt7__cxx1112basic_stringIcSt11char_traitsIcESaIcEEESt4pairIKS5_N9benchmark7CounterEESt10_Select1stISA_ESt4lessIS5_ESaISA_EE7_M_copyILb0ENSG_20_Reuse_or_alloc_nodeEEEPSt13_Rb_tree_nodeISA_ESL_PSt18_Rb_tree_node_baseRT0_.isra.0+0x375>
	call   <__stack_chk_fail@plt>
	endbr64
	mov    %rax,%rdi
	jmp    <_ZNSt8_Rb_treeINSt7__cxx1112basic_stringIcSt11char_traitsIcESaIcEEESt4pairIKS5_N9benchmark7CounterEESt10_Select1stISA_ESt4lessIS5_ESaISA_EE7_M_copyILb0ENSG_20_Reuse_or_alloc_nodeEEEPSt13_Rb_tree_nodeISA_ESL_PSt18_Rb_tree_node_baseRT0_.isra.0.cold>
	endbr64
	mov    %rax,%rdi
	jmp    <_ZNSt8_Rb_treeINSt7__cxx1112basic_stringIcSt11char_traitsIcESaIcEEESt4pairIKS5_N9benchmark7CounterEESt10_Select1stISA_ESt4lessIS5_ESaISA_EE7_M_copyILb0ENSG_20_Reuse_or_alloc_nodeEEEPSt13_Rb_tree_nodeISA_ESL_PSt18_Rb_tree_node_baseRT0_.isra.0.cold+0x17>
	endbr64
	mov    %rax,%rdi
	jmp    <_ZNSt8_Rb_treeINSt7__cxx1112basic_stringIcSt11char_traitsIcESaIcEEESt4pairIKS5_N9benchmark7CounterEESt10_Select1stISA_ESt4lessIS5_ESaISA_EE7_M_copyILb0ENSG_20_Reuse_or_alloc_nodeEEEPSt13_Rb_tree_nodeISA_ESL_PSt18_Rb_tree_node_baseRT0_.isra.0.cold+0x2e>
	endbr64
	mov    %rax,%rbx
	jmp    <_ZNSt8_Rb_treeINSt7__cxx1112basic_stringIcSt11char_traitsIcESaIcEEESt4pairIKS5_N9benchmark7CounterEESt10_Select1stISA_ESt4lessIS5_ESaISA_EE7_M_copyILb0ENSG_20_Reuse_or_alloc_nodeEEEPSt13_Rb_tree_nodeISA_ESL_PSt18_Rb_tree_node_baseRT0_.isra.0.cold+0x51>
	endbr64
	mov    %rax,%rdi
	jmp    <_ZNSt8_Rb_treeINSt7__cxx1112basic_stringIcSt11char_traitsIcESaIcEEESt4pairIKS5_N9benchmark7CounterEESt10_Select1stISA_ESt4lessIS5_ESaISA_EE7_M_copyILb0ENSG_20_Reuse_or_alloc_nodeEEEPSt13_Rb_tree_nodeISA_ESL_PSt18_Rb_tree_node_baseRT0_.isra.0.cold+0x66>
	nopl   0x0(%rax)

<_ZNSt8_Rb_treeIiSt4pairIKiN9benchmark17BenchmarkReporter19PerFamilyRunReportsEESt10_Select1stIS5_ESt4lessIiESaIS5_EE8_M_eraseEPSt13_Rb_tree_nodeIS5_E.isra.0>:
	test   %rdi,%rdi
	je     <_ZNSt8_Rb_treeIiSt4pairIKiN9benchmark17BenchmarkReporter19PerFamilyRunReportsEESt10_Select1stIS5_ESt4lessIiESaIS5_EE8_M_eraseEPSt13_Rb_tree_nodeIS5_E.isra.0+0x144c>
	push   %r15
	push   %r14
	push   %r13
	push   %r12
	push   %rbp
	push   %rbx
	mov    %rdi,%rbx
	sub    $0x48,%rsp
	mov    0x18(%rbx),%rbp
	test   %rbp,%rbp
	je     <_ZNSt8_Rb_treeIiSt4pairIKiN9benchmark17BenchmarkReporter19PerFamilyRunReportsEESt10_Select1stIS5_ESt4lessIiESaIS5_EE8_M_eraseEPSt13_Rb_tree_nodeIS5_E.isra.0+0x123f>
	mov    0x18(%rbp),%r12
	test   %r12,%r12
	je     <_ZNSt8_Rb_treeIiSt4pairIKiN9benchmark17BenchmarkReporter19PerFamilyRunReportsEESt10_Select1stIS5_ESt4lessIiESaIS5_EE8_M_eraseEPSt13_Rb_tree_nodeIS5_E.isra.0+0xdf8>
	mov    0x18(%r12),%r13
	test   %r13,%r13
	je     <_ZNSt8_Rb_treeIiSt4pairIKiN9benchmark17BenchmarkReporter19PerFamilyRunReportsEESt10_Select1stIS5_ESt4lessIiESaIS5_EE8_M_eraseEPSt13_Rb_tree_nodeIS5_E.isra.0+0x1028>
	mov    %r12,(%rsp)
	mov    %rbp,%r15
	mov    0x18(%r13),%r14
	test   %r14,%r14
	je     <_ZNSt8_Rb_treeIiSt4pairIKiN9benchmark17BenchmarkReporter19PerFamilyRunReportsEESt10_Select1stIS5_ESt4lessIiESaIS5_EE8_M_eraseEPSt13_Rb_tree_nodeIS5_E.isra.0+0x748>
	mov    %r13,%rax
	mov    %r14,%rdx
	mov    %r15,%r13
	mov    %rax,%r15
	mov    0x18(%rdx),%rax
	test   %rax,%rax
	je     <_ZNSt8_Rb_treeIiSt4pairIKiN9benchmark17BenchmarkReporter19PerFamilyRunReportsEESt10_Select1stIS5_ESt4lessIiESaIS5_EE8_M_eraseEPSt13_Rb_tree_nodeIS5_E.isra.0+0x50a>
	mov    %r13,0x8(%rsp)
	mov    %rdx,%r14
	mov    %r15,0x10(%rsp)
	mov    0x18(%rax),%r15
	test   %r15,%r15
	je     <_ZNSt8_Rb_treeIiSt4pairIKiN9benchmark17BenchmarkReporter19PerFamilyRunReportsEESt10_Select1stIS5_ESt4lessIiESaIS5_EE8_M_eraseEPSt13_Rb_tree_nodeIS5_E.isra.0+0x99b>
	mov    %r14,0x18(%rsp)
	mov    %rax,%r12
	mov    %r15,%rax
	mov    0x18(%rax),%r14
	test   %r14,%r14
	je     <_ZNSt8_Rb_treeIiSt4pairIKiN9benchmark17BenchmarkReporter19PerFamilyRunReportsEESt10_Select1stIS5_ESt4lessIiESaIS5_EE8_M_eraseEPSt13_Rb_tree_nodeIS5_E.isra.0+0xbca>
	mov    %rax,0x28(%rsp)
	mov    %r12,0x20(%rsp)
	mov    %r14,%r12
	mov    0x18(%r12),%r15
	test   %r15,%r15
	je     <_ZNSt8_Rb_treeIiSt4pairIKiN9benchmark17BenchmarkReporter19PerFamilyRunReportsEESt10_Select1stIS5_ESt4lessIiESaIS5_EE8_M_eraseEPSt13_Rb_tree_nodeIS5_E.isra.0+0x2d6>
	mov    0x18(%r15),%rdi
	call   <_ZNSt8_Rb_treeIiSt4pairIKiN9benchmark17BenchmarkReporter19PerFamilyRunReportsEESt10_Select1stIS5_ESt4lessIiESaIS5_EE8_M_eraseEPSt13_Rb_tree_nodeIS5_E.isra.0>
	mov    0x38(%r15),%r14
	mov    0x30(%r15),%rbp
	mov    0x10(%r15),%r13
	cmp    %rbp,%r14
	je     <_ZNSt8_Rb_treeIiSt4pairIKiN9benchmark17BenchmarkReporter19PerFamilyRunReportsEESt10_Select1stIS5_ESt4lessIiESaIS5_EE8_M_eraseEPSt13_Rb_tree_nodeIS5_E.isra.0+0x2a8>
	mov    %rbx,0x30(%rsp)
	nop
	mov    0x200(%rbp),%rbx
	test   %rbx,%rbx
	je     <_ZNSt8_Rb_treeIiSt4pairIKiN9benchmark17BenchmarkReporter19PerFamilyRunReportsEESt10_Select1stIS5_ESt4lessIiESaIS5_EE8_M_eraseEPSt13_Rb_tree_nodeIS5_E.isra.0+0x132>
	mov    0x18(%rbx),%rdi
	call   <_ZNSt8_Rb_treeINSt7__cxx1112basic_stringIcSt11char_traitsIcESaIcEEESt4pairIKS5_N9benchmark7CounterEESt10_Select1stISA_ESt4lessIS5_ESaISA_EE8_M_eraseEPSt13_Rb_tree_nodeISA_E.isra.0>
	mov    %rbx,%rax
	mov    0x10(%rbx),%rbx
	mov    0x20(%rax),%rdi
	lea    0x30(%rax),%rdx
	cmp    %rdx,%rdi
	je     <_ZNSt8_Rb_treeIiSt4pairIKiN9benchmark17BenchmarkReporter19PerFamilyRunReportsEESt10_Select1stIS5_ESt4lessIiESaIS5_EE8_M_eraseEPSt13_Rb_tree_nodeIS5_E.isra.0+0x120>
	mov    0x30(%rax),%rcx
	mov    %rax,0x38(%rsp)
	lea    0x1(%rcx),%rsi
	call   <_ZdlPvm@plt>
	mov    0x38(%rsp),%rax
	mov    $0x50,%esi
	mov    %rax,%rdi
	call   <_ZdlPvm@plt>
	test   %rbx,%rbx
	jne    <_ZNSt8_Rb_treeIiSt4pairIKiN9benchmark17BenchmarkReporter19PerFamilyRunReportsEESt10_Select1stIS5_ESt4lessIiESaIS5_EE8_M_eraseEPSt13_Rb_tree_nodeIS5_E.isra.0+0xec>
	mov    0x168(%rbp),%rdi
	lea    0x178(%rbp),%rax
	cmp    %rax,%rdi
	je     <_ZNSt8_Rb_treeIiSt4pairIKiN9benchmark17BenchmarkReporter19PerFamilyRunReportsEESt10_Select1stIS5_ESt4lessIiESaIS5_EE8_M_eraseEPSt13_Rb_tree_nodeIS5_E.isra.0+0x155>
	mov    0x178(%rbp),%rax
	lea    0x1(%rax),%rsi
	call   <_ZdlPvm@plt>
	mov    0x140(%rbp),%rdi
	lea    0x150(%rbp),%rax
	cmp    %rax,%rdi
	je     <_ZNSt8_Rb_treeIiSt4pairIKiN9benchmark17BenchmarkReporter19PerFamilyRunReportsEESt10_Select1stIS5_ESt4lessIiESaIS5_EE8_M_eraseEPSt13_Rb_tree_nodeIS5_E.isra.0+0x178>
	mov    0x150(%rbp),%rax
	lea    0x1(%rax),%rsi
	call   <_ZdlPvm@plt>
	mov    0x118(%rbp),%rdi
	lea    0x128(%rbp),%rax
	cmp    %rax,%rdi
	je     <_ZNSt8_Rb_treeIiSt4pairIKiN9benchmark17BenchmarkReporter19PerFamilyRunReportsEESt10_Select1stIS5_ESt4lessIiESaIS5_EE8_M_eraseEPSt13_Rb_tree_nodeIS5_E.isra.0+0x19b>
	mov    0x128(%rbp),%rax
	lea    0x1(%rax),%rsi
	call   <_ZdlPvm@plt>
	mov    0xe0(%rbp),%rdi
	lea    0xf0(%rbp),%rax
	cmp    %rax,%rdi
	je     <_ZNSt8_Rb_treeIiSt4pairIKiN9benchmark17BenchmarkReporter19PerFamilyRunReportsEESt10_Select1stIS5_ESt4lessIiESaIS5_EE8_M_eraseEPSt13_Rb_tree_nodeIS5_E.isra.0+0x1be>
	mov    0xf0(%rbp),%rax
	lea    0x1(%rax),%rsi
	call   <_ZdlPvm@plt>
	mov    0xc0(%rbp),%rdi
	lea    0xd0(%rbp),%rax
	cmp    %rax,%rdi
	je     <_ZNSt8_Rb_treeIiSt4pairIKiN9benchmark17BenchmarkReporter19PerFamilyRunReportsEESt10_Select1stIS5_ESt4lessIiESaIS5_EE8_M_eraseEPSt13_Rb_tree_nodeIS5_E.isra.0+0x1e1>
	mov    0xd0(%rbp),%rax
	lea    0x1(%rax),%rsi
	call   <_ZdlPvm@plt>
	mov    0xa0(%rbp),%rdi
	lea    0xb0(%rbp),%rax
	cmp    %rax,%rdi
	je     <_ZNSt8_Rb_treeIiSt4pairIKiN9benchmark17BenchmarkReporter19PerFamilyRunReportsEESt10_Select1stIS5_ESt4lessIiESaIS5_EE8_M_eraseEPSt13_Rb_tree_nodeIS5_E.isra.0+0x204>
	mov    0xb0(%rbp),%rax
	lea    0x1(%rax),%rsi
	call   <_ZdlPvm@plt>
	mov    0x80(%rbp),%rdi
	lea    0x90(%rbp),%rax
	cmp    %rax,%rdi
	je     <_ZNSt8_Rb_treeIiSt4pairIKiN9benchmark17BenchmarkReporter19PerFamilyRunReportsEESt10_Select1stIS5_ESt4lessIiESaIS5_EE8_M_eraseEPSt13_Rb_tree_nodeIS5_E.isra.0+0x227>
	mov    0x90(%rbp),%rax
	lea    0x1(%rax),%rsi
	call   <_ZdlPvm@plt>
	mov    0x60(%rbp),%rdi
	lea    0x70(%rbp),%rax
	cmp    %rax,%rdi
	je     <_ZNSt8_Rb_treeIiSt4pairIKiN9benchmark17BenchmarkReporter19PerFamilyRunReportsEESt10_Select1stIS5_ESt4lessIiESaIS5_EE8_M_eraseEPSt13_Rb_tree_nodeIS5_E.isra.0+0x241>
	mov    0x70(%rbp),%rax
	lea    0x1(%rax),%rsi
	call   <_ZdlPvm@plt>
	mov    0x40(%rbp),%rdi
	lea    0x50(%rbp),%rax
	cmp    %rax,%rdi
	je     <_ZNSt8_Rb_treeIiSt4pairIKiN9benchmark17BenchmarkReporter19PerFamilyRunReportsEESt10_Select1stIS5_ESt4lessIiESaIS5_EE8_M_eraseEPSt13_Rb_tree_nodeIS5_E.isra.0+0x25b>
	mov    0x50(%rbp),%rax
	lea    0x1(%rax),%rsi
	call   <_ZdlPvm@plt>
	mov    0x20(%rbp),%rdi
	lea    0x30(%rbp),%rax
	cmp    %rax,%rdi
	je     <_ZNSt8_Rb_treeIiSt4pairIKiN9benchmark17BenchmarkReporter19PerFamilyRunReportsEESt10_Select1stIS5_ESt4lessIiESaIS5_EE8_M_eraseEPSt13_Rb_tree_nodeIS5_E.isra.0+0x275>
	mov    0x30(%rbp),%rax
	lea    0x1(%rax),%rsi
	call   <_ZdlPvm@plt>
	mov    0x0(%rbp),%rdi
	lea    0x10(%rbp),%rax
	cmp    %rax,%rdi
	je     <_ZNSt8_Rb_treeIiSt4pairIKiN9benchmark17BenchmarkReporter19PerFamilyRunReportsEESt10_Select1stIS5_ESt4lessIiESaIS5_EE8_M_eraseEPSt13_Rb_tree_nodeIS5_E.isra.0+0x28f>
	mov    0x10(%rbp),%rax
	lea    0x1(%rax),%rsi
	call   <_ZdlPvm@plt>
	add    $0x230,%rbp
	cmp    %rbp,%r14
	jne    <_ZNSt8_Rb_treeIiSt4pairIKiN9benchmark17BenchmarkReporter19PerFamilyRunReportsEESt10_Select1stIS5_ESt4lessIiESaIS5_EE8_M_eraseEPSt13_Rb_tree_nodeIS5_E.isra.0+0xe0>
	mov    0x30(%rsp),%rbx
	mov    0x30(%r15),%rbp
	test   %rbp,%rbp
	je     <_ZNSt8_Rb_treeIiSt4pairIKiN9benchmark17BenchmarkReporter19PerFamilyRunReportsEESt10_Select1stIS5_ESt4lessIiESaIS5_EE8_M_eraseEPSt13_Rb_tree_nodeIS5_E.isra.0+0x2bc>
	mov    0x40(%r15),%rsi
	mov    %rbp,%rdi
	sub    %rbp,%rsi
	call   <_ZdlPvm@plt>
	mov    $0x48,%esi
	mov    %r15,%rdi
	call   <_ZdlPvm@plt>
	test   %r13,%r13
	je     <_ZNSt8_Rb_treeIiSt4pairIKiN9benchmark17BenchmarkReporter19PerFamilyRunReportsEESt10_Select1stIS5_ESt4lessIiESaIS5_EE8_M_eraseEPSt13_Rb_tree_nodeIS5_E.isra.0+0x2d6>
	mov    %r13,%r15
	jmp    <_ZNSt8_Rb_treeIiSt4pairIKiN9benchmark17BenchmarkReporter19PerFamilyRunReportsEESt10_Select1stIS5_ESt4lessIiESaIS5_EE8_M_eraseEPSt13_Rb_tree_nodeIS5_E.isra.0+0xbc>
	mov    0x38(%r12),%r14
	mov    0x30(%r12),%rbp
	mov    0x10(%r12),%r13
	cmp    %rbp,%r14
	je     <_ZNSt8_Rb_treeIiSt4pairIKiN9benchmark17BenchmarkReporter19PerFamilyRunReportsEESt10_Select1stIS5_ESt4lessIiESaIS5_EE8_M_eraseEPSt13_Rb_tree_nodeIS5_E.isra.0+0x4b4>
	xchg   %ax,%ax
	mov    0x200(%rbp),%r15
	test   %r15,%r15
	je     <_ZNSt8_Rb_treeIiSt4pairIKiN9benchmark17BenchmarkReporter19PerFamilyRunReportsEESt10_Select1stIS5_ESt4lessIiESaIS5_EE8_M_eraseEPSt13_Rb_tree_nodeIS5_E.isra.0+0x342>
	mov    0x18(%r15),%rdi
	call   <_ZNSt8_Rb_treeINSt7__cxx1112basic_stringIcSt11char_traitsIcESaIcEEESt4pairIKS5_N9benchmark7CounterEESt10_Select1stISA_ESt4lessIS5_ESaISA_EE8_M_eraseEPSt13_Rb_tree_nodeISA_E.isra.0>
	mov    %r15,%rax
	mov    0x10(%r15),%r15
	mov    0x20(%rax),%rdi
	lea    0x30(%rax),%rdx
	cmp    %rdx,%rdi
	je     <_ZNSt8_Rb_treeIiSt4pairIKiN9benchmark17BenchmarkReporter19PerFamilyRunReportsEESt10_Select1stIS5_ESt4lessIiESaIS5_EE8_M_eraseEPSt13_Rb_tree_nodeIS5_E.isra.0+0x330>
	mov    0x30(%rax),%rcx
	mov    %rax,0x30(%rsp)
	lea    0x1(%rcx),%rsi
	call   <_ZdlPvm@plt>
	mov    0x30(%rsp),%rax
	mov    $0x50,%esi
	mov    %rax,%rdi
	call   <_ZdlPvm@plt>
	test   %r15,%r15
	jne    <_ZNSt8_Rb_treeIiSt4pairIKiN9benchmark17BenchmarkReporter19PerFamilyRunReportsEESt10_Select1stIS5_ESt4lessIiESaIS5_EE8_M_eraseEPSt13_Rb_tree_nodeIS5_E.isra.0+0x2fc>
	mov    0x168(%rbp),%rdi
	lea    0x178(%rbp),%rax
	cmp    %rax,%rdi
	je     <_ZNSt8_Rb_treeIiSt4pairIKiN9benchmark17BenchmarkReporter19PerFamilyRunReportsEESt10_Select1stIS5_ESt4lessIiESaIS5_EE8_M_eraseEPSt13_Rb_tree_nodeIS5_E.isra.0+0x365>
	mov    0x178(%rbp),%rax
	lea    0x1(%rax),%rsi
	call   <_ZdlPvm@plt>
	mov    0x140(%rbp),%rdi
	lea    0x150(%rbp),%rax
	cmp    %rax,%rdi
	je     <_ZNSt8_Rb_treeIiSt4pairIKiN9benchmark17BenchmarkReporter19PerFamilyRunReportsEESt10_Select1stIS5_ESt4lessIiESaIS5_EE8_M_eraseEPSt13_Rb_tree_nodeIS5_E.isra.0+0x388>
	mov    0x150(%rbp),%rax
	lea    0x1(%rax),%rsi
	call   <_ZdlPvm@plt>
	mov    0x118(%rbp),%rdi
	lea    0x128(%rbp),%rax
	cmp    %rax,%rdi
	je     <_ZNSt8_Rb_treeIiSt4pairIKiN9benchmark17BenchmarkReporter19PerFamilyRunReportsEESt10_Select1stIS5_ESt4lessIiESaIS5_EE8_M_eraseEPSt13_Rb_tree_nodeIS5_E.isra.0+0x3ab>
	mov    0x128(%rbp),%rax
	lea    0x1(%rax),%rsi
	call   <_ZdlPvm@plt>
	mov    0xe0(%rbp),%rdi
	lea    0xf0(%rbp),%rax
	cmp    %rax,%rdi
	je     <_ZNSt8_Rb_treeIiSt4pairIKiN9benchmark17BenchmarkReporter19PerFamilyRunReportsEESt10_Select1stIS5_ESt4lessIiESaIS5_EE8_M_eraseEPSt13_Rb_tree_nodeIS5_E.isra.0+0x3ce>
	mov    0xf0(%rbp),%rax
	lea    0x1(%rax),%rsi
	call   <_ZdlPvm@plt>
	mov    0xc0(%rbp),%rdi
	lea    0xd0(%rbp),%rax
	cmp    %rax,%rdi
	je     <_ZNSt8_Rb_treeIiSt4pairIKiN9benchmark17BenchmarkReporter19PerFamilyRunReportsEESt10_Select1stIS5_ESt4lessIiESaIS5_EE8_M_eraseEPSt13_Rb_tree_nodeIS5_E.isra.0+0x3f1>
	mov    0xd0(%rbp),%rax
	lea    0x1(%rax),%rsi
	call   <_ZdlPvm@plt>
	mov    0xa0(%rbp),%rdi
	lea    0xb0(%rbp),%rax
	cmp    %rax,%rdi
	je     <_ZNSt8_Rb_treeIiSt4pairIKiN9benchmark17BenchmarkReporter19PerFamilyRunReportsEESt10_Select1stIS5_ESt4lessIiESaIS5_EE8_M_eraseEPSt13_Rb_tree_nodeIS5_E.isra.0+0x414>
	mov    0xb0(%rbp),%rax
	lea    0x1(%rax),%rsi
	call   <_ZdlPvm@plt>
	mov    0x80(%rbp),%rdi
	lea    0x90(%rbp),%rax
	cmp    %rax,%rdi
	je     <_ZNSt8_Rb_treeIiSt4pairIKiN9benchmark17BenchmarkReporter19PerFamilyRunReportsEESt10_Select1stIS5_ESt4lessIiESaIS5_EE8_M_eraseEPSt13_Rb_tree_nodeIS5_E.isra.0+0x437>
	mov    0x90(%rbp),%rax
	lea    0x1(%rax),%rsi
	call   <_ZdlPvm@plt>
	mov    0x60(%rbp),%rdi
	lea    0x70(%rbp),%rax
	cmp    %rax,%rdi
	je     <_ZNSt8_Rb_treeIiSt4pairIKiN9benchmark17BenchmarkReporter19PerFamilyRunReportsEESt10_Select1stIS5_ESt4lessIiESaIS5_EE8_M_eraseEPSt13_Rb_tree_nodeIS5_E.isra.0+0x451>
	mov    0x70(%rbp),%rax
	lea    0x1(%rax),%rsi
	call   <_ZdlPvm@plt>
	mov    0x40(%rbp),%rdi
	lea    0x50(%rbp),%rax
	cmp    %rax,%rdi
	je     <_ZNSt8_Rb_treeIiSt4pairIKiN9benchmark17BenchmarkReporter19PerFamilyRunReportsEESt10_Select1stIS5_ESt4lessIiESaIS5_EE8_M_eraseEPSt13_Rb_tree_nodeIS5_E.isra.0+0x46b>
	mov    0x50(%rbp),%rax
	lea    0x1(%rax),%rsi
	call   <_ZdlPvm@plt>
	mov    0x20(%rbp),%rdi
	lea    0x30(%rbp),%rax
	cmp    %rax,%rdi
	je     <_ZNSt8_Rb_treeIiSt4pairIKiN9benchmark17BenchmarkReporter19PerFamilyRunReportsEESt10_Select1stIS5_ESt4lessIiESaIS5_EE8_M_eraseEPSt13_Rb_tree_nodeIS5_E.isra.0+0x485>
	mov    0x30(%rbp),%rax
	lea    0x1(%rax),%rsi
	call   <_ZdlPvm@plt>
	mov    0x0(%rbp),%rdi
	lea    0x10(%rbp),%rax
	cmp    %rax,%rdi
	je     <_ZNSt8_Rb_treeIiSt4pairIKiN9benchmark17BenchmarkReporter19PerFamilyRunReportsEESt10_Select1stIS5_ESt4lessIiESaIS5_EE8_M_eraseEPSt13_Rb_tree_nodeIS5_E.isra.0+0x49f>
	mov    0x10(%rbp),%rax
	lea    0x1(%rax),%rsi
	call   <_ZdlPvm@plt>
	add    $0x230,%rbp
	cmp    %rbp,%r14
	jne    <_ZNSt8_Rb_treeIiSt4pairIKiN9benchmark17BenchmarkReporter19PerFamilyRunReportsEESt10_Select1stIS5_ESt4lessIiESaIS5_EE8_M_eraseEPSt13_Rb_tree_nodeIS5_E.isra.0+0x2f0>
	mov    0x30(%r12),%rbp
	test   %rbp,%rbp
	je     <_ZNSt8_Rb_treeIiSt4pairIKiN9benchmark17BenchmarkReporter19PerFamilyRunReportsEESt10_Select1stIS5_ESt4lessIiESaIS5_EE8_M_eraseEPSt13_Rb_tree_nodeIS5_E.isra.0+0x4c9>
	mov    0x40(%r12),%rsi
	mov    %rbp,%rdi
	sub    %rbp,%rsi
	call   <_ZdlPvm@plt>
	mov    $0x48,%esi
	mov    %r12,%rdi
	call   <_ZdlPvm@plt>
	test   %r13,%r13
	je     <_ZNSt8_Rb_treeIiSt4pairIKiN9benchmark17BenchmarkReporter19PerFamilyRunReportsEESt10_Select1stIS5_ESt4lessIiESaIS5_EE8_M_eraseEPSt13_Rb_tree_nodeIS5_E.isra.0+0xbc0>
	mov    %r13,%r12
	jmp    <_ZNSt8_Rb_treeIiSt4pairIKiN9benchmark17BenchmarkReporter19PerFamilyRunReportsEESt10_Select1stIS5_ESt4lessIiESaIS5_EE8_M_eraseEPSt13_Rb_tree_nodeIS5_E.isra.0+0xae>
	mov    $0x48,%esi
	mov    %rax,%rdi
	call   <_ZdlPvm@plt>
	test   %rbp,%rbp
	jne    <_ZNSt8_Rb_treeIiSt4pairIKiN9benchmark17BenchmarkReporter19PerFamilyRunReportsEESt10_Select1stIS5_ESt4lessIiESaIS5_EE8_M_eraseEPSt13_Rb_tree_nodeIS5_E.isra.0+0xbb8>
	mov    0x8(%rsp),%r13
	mov    0x10(%rsp),%r15
	mov    %r14,%rdx
	mov    0x38(%rdx),%r14
	mov    0x30(%rdx),%rbp
	mov    0x10(%rdx),%r12
	cmp    %rbp,%r14
	je     <_ZNSt8_Rb_treeIiSt4pairIKiN9benchmark17BenchmarkReporter19PerFamilyRunReportsEESt10_Select1stIS5_ESt4lessIiESaIS5_EE8_M_eraseEPSt13_Rb_tree_nodeIS5_E.isra.0+0x6f8>
	mov    %rdx,0x8(%rsp)
	mov    %rbx,0x10(%rsp)
	mov    %rbp,%rbx
	mov    0x200(%rbx),%rbp
	test   %rbp,%rbp
	je     <_ZNSt8_Rb_treeIiSt4pairIKiN9benchmark17BenchmarkReporter19PerFamilyRunReportsEESt10_Select1stIS5_ESt4lessIiESaIS5_EE8_M_eraseEPSt13_Rb_tree_nodeIS5_E.isra.0+0x57e>
	mov    0x18(%rbp),%rdi
	call   <_ZNSt8_Rb_treeINSt7__cxx1112basic_stringIcSt11char_traitsIcESaIcEEESt4pairIKS5_N9benchmark7CounterEESt10_Select1stISA_ESt4lessIS5_ESaISA_EE8_M_eraseEPSt13_Rb_tree_nodeISA_E.isra.0>
	mov    %rbp,%rcx
	mov    0x10(%rbp),%rbp
	mov    0x20(%rcx),%rdi
	lea    0x30(%rcx),%rsi
	cmp    %rsi,%rdi
	je     <_ZNSt8_Rb_treeIiSt4pairIKiN9benchmark17BenchmarkReporter19PerFamilyRunReportsEESt10_Select1stIS5_ESt4lessIiESaIS5_EE8_M_eraseEPSt13_Rb_tree_nodeIS5_E.isra.0+0x56c>
	mov    0x30(%rcx),%rax
	mov    %rcx,0x18(%rsp)
	lea    0x1(%rax),%rsi
	call   <_ZdlPvm@plt>
	mov    0x18(%rsp),%rcx
	mov    $0x50,%esi
	mov    %rcx,%rdi
	call   <_ZdlPvm@plt>
	test   %rbp,%rbp
	jne    <_ZNSt8_Rb_treeIiSt4pairIKiN9benchmark17BenchmarkReporter19PerFamilyRunReportsEESt10_Select1stIS5_ESt4lessIiESaIS5_EE8_M_eraseEPSt13_Rb_tree_nodeIS5_E.isra.0+0x538>
	mov    0x168(%rbx),%rdi
	lea    0x178(%rbx),%rdx
	cmp    %rdx,%rdi
	je     <_ZNSt8_Rb_treeIiSt4pairIKiN9benchmark17BenchmarkReporter19PerFamilyRunReportsEESt10_Select1stIS5_ESt4lessIiESaIS5_EE8_M_eraseEPSt13_Rb_tree_nodeIS5_E.isra.0+0x5a1>
	mov    0x178(%rbx),%rax
	lea    0x1(%rax),%rsi
	call   <_ZdlPvm@plt>
	mov    0x140(%rbx),%rdi
	lea    0x150(%rbx),%rdx
	cmp    %rdx,%rdi
	je     <_ZNSt8_Rb_treeIiSt4pairIKiN9benchmark17BenchmarkReporter19PerFamilyRunReportsEESt10_Select1stIS5_ESt4lessIiESaIS5_EE8_M_eraseEPSt13_Rb_tree_nodeIS5_E.isra.0+0x5c4>
	mov    0x150(%rbx),%rax
	lea    0x1(%rax),%rsi
	call   <_ZdlPvm@plt>
	mov    0x118(%rbx),%rdi
	lea    0x128(%rbx),%rdx
	cmp    %rdx,%rdi
	je     <_ZNSt8_Rb_treeIiSt4pairIKiN9benchmark17BenchmarkReporter19PerFamilyRunReportsEESt10_Select1stIS5_ESt4lessIiESaIS5_EE8_M_eraseEPSt13_Rb_tree_nodeIS5_E.isra.0+0x5e7>
	mov    0x128(%rbx),%rax
	lea    0x1(%rax),%rsi
	call   <_ZdlPvm@plt>
	mov    0xe0(%rbx),%rdi
	lea    0xf0(%rbx),%rdx
	cmp    %rdx,%rdi
	je     <_ZNSt8_Rb_treeIiSt4pairIKiN9benchmark17BenchmarkReporter19PerFamilyRunReportsEESt10_Select1stIS5_ESt4lessIiESaIS5_EE8_M_eraseEPSt13_Rb_tree_nodeIS5_E.isra.0+0x60a>
	mov    0xf0(%rbx),%rax
	lea    0x1(%rax),%rsi
	call   <_ZdlPvm@plt>
	mov    0xc0(%rbx),%rdi
	lea    0xd0(%rbx),%rdx
	cmp    %rdx,%rdi
	je     <_ZNSt8_Rb_treeIiSt4pairIKiN9benchmark17BenchmarkReporter19PerFamilyRunReportsEESt10_Select1stIS5_ESt4lessIiESaIS5_EE8_M_eraseEPSt13_Rb_tree_nodeIS5_E.isra.0+0x62d>
	mov    0xd0(%rbx),%rax
	lea    0x1(%rax),%rsi
	call   <_ZdlPvm@plt>
	mov    0xa0(%rbx),%rdi
	lea    0xb0(%rbx),%rdx
	cmp    %rdx,%rdi
	je     <_ZNSt8_Rb_treeIiSt4pairIKiN9benchmark17BenchmarkReporter19PerFamilyRunReportsEESt10_Select1stIS5_ESt4lessIiESaIS5_EE8_M_eraseEPSt13_Rb_tree_nodeIS5_E.isra.0+0x650>
	mov    0xb0(%rbx),%rax
	lea    0x1(%rax),%rsi
	call   <_ZdlPvm@plt>
	mov    0x80(%rbx),%rdi
	lea    0x90(%rbx),%rdx
	cmp    %rdx,%rdi
	je     <_ZNSt8_Rb_treeIiSt4pairIKiN9benchmark17BenchmarkReporter19PerFamilyRunReportsEESt10_Select1stIS5_ESt4lessIiESaIS5_EE8_M_eraseEPSt13_Rb_tree_nodeIS5_E.isra.0+0x673>
	mov    0x90(%rbx),%rax
	lea    0x1(%rax),%rsi
	call   <_ZdlPvm@plt>
	mov    0x60(%rbx),%rdi
	lea    0x70(%rbx),%rdx
	cmp    %rdx,%rdi
	je     <_ZNSt8_Rb_treeIiSt4pairIKiN9benchmark17BenchmarkReporter19PerFamilyRunReportsEESt10_Select1stIS5_ESt4lessIiESaIS5_EE8_M_eraseEPSt13_Rb_tree_nodeIS5_E.isra.0+0x68d>
	mov    0x70(%rbx),%rax
	lea    0x1(%rax),%rsi
	call   <_ZdlPvm@plt>
	mov    0x40(%rbx),%rdi
	lea    0x50(%rbx),%rdx
	cmp    %rdx,%rdi
	je     <_ZNSt8_Rb_treeIiSt4pairIKiN9benchmark17BenchmarkReporter19PerFamilyRunReportsEESt10_Select1stIS5_ESt4lessIiESaIS5_EE8_M_eraseEPSt13_Rb_tree_nodeIS5_E.isra.0+0x6a7>
	mov    0x50(%rbx),%rax
	lea    0x1(%rax),%rsi
	call   <_ZdlPvm@plt>
	mov    0x20(%rbx),%rdi
	lea    0x30(%rbx),%rdx
	cmp    %rdx,%rdi
	je     <_ZNSt8_Rb_treeIiSt4pairIKiN9benchmark17BenchmarkReporter19PerFamilyRunReportsEESt10_Select1stIS5_ESt4lessIiESaIS5_EE8_M_eraseEPSt13_Rb_tree_nodeIS5_E.isra.0+0x6c1>
	mov    0x30(%rbx),%rax
	lea    0x1(%rax),%rsi
	call   <_ZdlPvm@plt>
	mov    (%rbx),%rdi
	lea    0x10(%rbx),%rdx
	cmp    %rdx,%rdi
	je     <_ZNSt8_Rb_treeIiSt4pairIKiN9benchmark17BenchmarkReporter19PerFamilyRunReportsEESt10_Select1stIS5_ESt4lessIiESaIS5_EE8_M_eraseEPSt13_Rb_tree_nodeIS5_E.isra.0+0x6da>
	mov    0x10(%rbx),%rax
	lea    0x1(%rax),%rsi
	call   <_ZdlPvm@plt>
	add    $0x230,%rbx
	cmp    %rbx,%r14
	jne    <_ZNSt8_Rb_treeIiSt4pairIKiN9benchmark17BenchmarkReporter19PerFamilyRunReportsEESt10_Select1stIS5_ESt4lessIiESaIS5_EE8_M_eraseEPSt13_Rb_tree_nodeIS5_E.isra.0+0x52c>
	mov    0x8(%rsp),%rdx
	mov    0x10(%rsp),%rbx
	mov    0x30(%rdx),%rbp
	test   %rbp,%rbp
	je     <_ZNSt8_Rb_treeIiSt4pairIKiN9benchmark17BenchmarkReporter19PerFamilyRunReportsEESt10_Select1stIS5_ESt4lessIiESaIS5_EE8_M_eraseEPSt13_Rb_tree_nodeIS5_E.isra.0+0x72d>
	mov    0x40(%rdx),%rsi
	mov    %rbp,%rdi
	mov    %rdx,0x8(%rsp)
	sub    %rbp,%rsi
	call   <_ZdlPvm@plt>
	mov    0x8(%rsp),%rdi
	mov    $0x48,%esi
	call   <_ZdlPvm@plt>
	test   %r12,%r12
	je     <_ZNSt8_Rb_treeIiSt4pairIKiN9benchmark17BenchmarkReporter19PerFamilyRunReportsEESt10_Select1stIS5_ESt4lessIiESaIS5_EE8_M_eraseEPSt13_Rb_tree_nodeIS5_E.isra.0+0x73f>
	mov    %r12,%rdx
	jmp    <_ZNSt8_Rb_treeIiSt4pairIKiN9benchmark17BenchmarkReporter19PerFamilyRunReportsEESt10_Select1stIS5_ESt4lessIiESaIS5_EE8_M_eraseEPSt13_Rb_tree_nodeIS5_E.isra.0+0x62>
	mov    $0x48,%esi
	mov    %rdx,%rdi
	call   <_ZdlPvm@plt>
	test   %r12,%r12
	jne    <_ZNSt8_Rb_treeIiSt4pairIKiN9benchmark17BenchmarkReporter19PerFamilyRunReportsEESt10_Select1stIS5_ESt4lessIiESaIS5_EE8_M_eraseEPSt13_Rb_tree_nodeIS5_E.isra.0+0x725>
	mov    %r15,%rax
	mov    %r13,%r15
	mov    %rax,%r13
	mov    0x38(%r13),%r14
	mov    0x30(%r13),%r12
	mov    0x10(%r13),%rbp
	cmp    %r12,%r14
	je     <_ZNSt8_Rb_treeIiSt4pairIKiN9benchmark17BenchmarkReporter19PerFamilyRunReportsEESt10_Select1stIS5_ESt4lessIiESaIS5_EE8_M_eraseEPSt13_Rb_tree_nodeIS5_E.isra.0+0x94b>
	mov    %rbx,0x8(%rsp)
	mov    0x200(%r12),%rbx
	test   %rbx,%rbx
	je     <_ZNSt8_Rb_treeIiSt4pairIKiN9benchmark17BenchmarkReporter19PerFamilyRunReportsEESt10_Select1stIS5_ESt4lessIiESaIS5_EE8_M_eraseEPSt13_Rb_tree_nodeIS5_E.isra.0+0x7b5>
	mov    0x18(%rbx),%rdi
	call   <_ZNSt8_Rb_treeINSt7__cxx1112basic_stringIcSt11char_traitsIcESaIcEEESt4pairIKS5_N9benchmark7CounterEESt10_Select1stISA_ESt4lessIS5_ESaISA_EE8_M_eraseEPSt13_Rb_tree_nodeISA_E.isra.0>
	mov    %rbx,%rdx
	mov    0x10(%rbx),%rbx
	mov    0x20(%rdx),%rdi
	lea    0x30(%rdx),%rcx
	cmp    %rcx,%rdi
	je     <_ZNSt8_Rb_treeIiSt4pairIKiN9benchmark17BenchmarkReporter19PerFamilyRunReportsEESt10_Select1stIS5_ESt4lessIiESaIS5_EE8_M_eraseEPSt13_Rb_tree_nodeIS5_E.isra.0+0x7a3>
	mov    0x30(%rdx),%rax
	mov    %rdx,0x10(%rsp)
	lea    0x1(%rax),%rsi
	call   <_ZdlPvm@plt>
	mov    0x10(%rsp),%rdx
	mov    $0x50,%esi
	mov    %rdx,%rdi
	call   <_ZdlPvm@plt>
	test   %rbx,%rbx
	jne    <_ZNSt8_Rb_treeIiSt4pairIKiN9benchmark17BenchmarkReporter19PerFamilyRunReportsEESt10_Select1stIS5_ESt4lessIiESaIS5_EE8_M_eraseEPSt13_Rb_tree_nodeIS5_E.isra.0+0x76f>
	mov    0x168(%r12),%rdi
	lea    0x178(%r12),%rax
	cmp    %rax,%rdi
	je     <_ZNSt8_Rb_treeIiSt4pairIKiN9benchmark17BenchmarkReporter19PerFamilyRunReportsEESt10_Select1stIS5_ESt4lessIiESaIS5_EE8_M_eraseEPSt13_Rb_tree_nodeIS5_E.isra.0+0x7db>
	mov    0x178(%r12),%rax
	lea    0x1(%rax),%rsi
	call   <_ZdlPvm@plt>
	mov    0x140(%r12),%rdi
	lea    0x150(%r12),%rax
	cmp    %rax,%rdi
	je     <_ZNSt8_Rb_treeIiSt4pairIKiN9benchmark17BenchmarkReporter19PerFamilyRunReportsEESt10_Select1stIS5_ESt4lessIiESaIS5_EE8_M_eraseEPSt13_Rb_tree_nodeIS5_E.isra.0+0x801>
	mov    0x150(%r12),%rax
	lea    0x1(%rax),%rsi
	call   <_ZdlPvm@plt>
	mov    0x118(%r12),%rdi
	lea    0x128(%r12),%rax
	cmp    %rax,%rdi
	je     <_ZNSt8_Rb_treeIiSt4pairIKiN9benchmark17BenchmarkReporter19PerFamilyRunReportsEESt10_Select1stIS5_ESt4lessIiESaIS5_EE8_M_eraseEPSt13_Rb_tree_nodeIS5_E.isra.0+0x827>
	mov    0x128(%r12),%rax
	lea    0x1(%rax),%rsi
	call   <_ZdlPvm@plt>
	mov    0xe0(%r12),%rdi
	lea    0xf0(%r12),%rax
	cmp    %rax,%rdi
	je     <_ZNSt8_Rb_treeIiSt4pairIKiN9benchmark17BenchmarkReporter19PerFamilyRunReportsEESt10_Select1stIS5_ESt4lessIiESaIS5_EE8_M_eraseEPSt13_Rb_tree_nodeIS5_E.isra.0+0x84d>
	mov    0xf0(%r12),%rax
	lea    0x1(%rax),%rsi
	call   <_ZdlPvm@plt>
	mov    0xc0(%r12),%rdi
	lea    0xd0(%r12),%rax
	cmp    %rax,%rdi
	je     <_ZNSt8_Rb_treeIiSt4pairIKiN9benchmark17BenchmarkReporter19PerFamilyRunReportsEESt10_Select1stIS5_ESt4lessIiESaIS5_EE8_M_eraseEPSt13_Rb_tree_nodeIS5_E.isra.0+0x873>
	mov    0xd0(%r12),%rax
	lea    0x1(%rax),%rsi
	call   <_ZdlPvm@plt>
	mov    0xa0(%r12),%rdi
	lea    0xb0(%r12),%rax
	cmp    %rax,%rdi
	je     <_ZNSt8_Rb_treeIiSt4pairIKiN9benchmark17BenchmarkReporter19PerFamilyRunReportsEESt10_Select1stIS5_ESt4lessIiESaIS5_EE8_M_eraseEPSt13_Rb_tree_nodeIS5_E.isra.0+0x899>
	mov    0xb0(%r12),%rax
	lea    0x1(%rax),%rsi
	call   <_ZdlPvm@plt>
	mov    0x80(%r12),%rdi
	lea    0x90(%r12),%rax
	cmp    %rax,%rdi
	je     <_ZNSt8_Rb_treeIiSt4pairIKiN9benchmark17BenchmarkReporter19PerFamilyRunReportsEESt10_Select1stIS5_ESt4lessIiESaIS5_EE8_M_eraseEPSt13_Rb_tree_nodeIS5_E.isra.0+0x8bf>
	mov    0x90(%r12),%rax
	lea    0x1(%rax),%rsi
	call   <_ZdlPvm@plt>
	mov    0x60(%r12),%rdi
	lea    0x70(%r12),%rax
	cmp    %rax,%rdi
	je     <_ZNSt8_Rb_treeIiSt4pairIKiN9benchmark17BenchmarkReporter19PerFamilyRunReportsEESt10_Select1stIS5_ESt4lessIiESaIS5_EE8_M_eraseEPSt13_Rb_tree_nodeIS5_E.isra.0+0x8dc>
	mov    0x70(%r12),%rax
	lea    0x1(%rax),%rsi
	call   <_ZdlPvm@plt>
	mov    0x40(%r12),%rdi
	lea    0x50(%r12),%rax
	cmp    %rax,%rdi
	je     <_ZNSt8_Rb_treeIiSt4pairIKiN9benchmark17BenchmarkReporter19PerFamilyRunReportsEESt10_Select1stIS5_ESt4lessIiESaIS5_EE8_M_eraseEPSt13_Rb_tree_nodeIS5_E.isra.0+0x8f9>
	mov    0x50(%r12),%rax
	lea    0x1(%rax),%rsi
	call   <_ZdlPvm@plt>
	mov    0x20(%r12),%rdi
	lea    0x30(%r12),%rax
	cmp    %rax,%rdi
	je     <_ZNSt8_Rb_treeIiSt4pairIKiN9benchmark17BenchmarkReporter19PerFamilyRunReportsEESt10_Select1stIS5_ESt4lessIiESaIS5_EE8_M_eraseEPSt13_Rb_tree_nodeIS5_E.isra.0+0x916>
	mov    0x30(%r12),%rax
	lea    0x1(%rax),%rsi
	call   <_ZdlPvm@plt>
	mov    (%r12),%rdi
	lea    0x10(%r12),%rax
	cmp    %rax,%rdi
	je     <_ZNSt8_Rb_treeIiSt4pairIKiN9benchmark17BenchmarkReporter19PerFamilyRunReportsEESt10_Select1stIS5_ESt4lessIiESaIS5_EE8_M_eraseEPSt13_Rb_tree_nodeIS5_E.isra.0+0x932>
	mov    0x10(%r12),%rax
	lea    0x1(%rax),%rsi
	call   <_ZdlPvm@plt>
	add    $0x230,%r12
	cmp    %r12,%r14
	jne    <_ZNSt8_Rb_treeIiSt4pairIKiN9benchmark17BenchmarkReporter19PerFamilyRunReportsEESt10_Select1stIS5_ESt4lessIiESaIS5_EE8_M_eraseEPSt13_Rb_tree_nodeIS5_E.isra.0+0x762>
	mov    0x8(%rsp),%rbx
	mov    0x30(%r13),%r12
	test   %r12,%r12
	je     <_ZNSt8_Rb_treeIiSt4pairIKiN9benchmark17BenchmarkReporter19PerFamilyRunReportsEESt10_Select1stIS5_ESt4lessIiESaIS5_EE8_M_eraseEPSt13_Rb_tree_nodeIS5_E.isra.0+0x95f>
	mov    0x40(%r13),%rsi
	mov    %r12,%rdi
	sub    %r12,%rsi
	call   <_ZdlPvm@plt>
	mov    $0x48,%esi
	mov    %r13,%rdi
	call   <_ZdlPvm@plt>
	test   %rbp,%rbp
	je     <_ZNSt8_Rb_treeIiSt4pairIKiN9benchmark17BenchmarkReporter19PerFamilyRunReportsEESt10_Select1stIS5_ESt4lessIiESaIS5_EE8_M_eraseEPSt13_Rb_tree_nodeIS5_E.isra.0+0x1021>
	mov    %rbp,%r13
	jmp    <_ZNSt8_Rb_treeIiSt4pairIKiN9benchmark17BenchmarkReporter19PerFamilyRunReportsEESt10_Select1stIS5_ESt4lessIiESaIS5_EE8_M_eraseEPSt13_Rb_tree_nodeIS5_E.isra.0+0x49>
	mov    $0x48,%esi
	mov    %rax,%rdi
	call   <_ZdlPvm@plt>
	test   %r13,%r13
	jne    <_ZNSt8_Rb_treeIiSt4pairIKiN9benchmark17BenchmarkReporter19PerFamilyRunReportsEESt10_Select1stIS5_ESt4lessIiESaIS5_EE8_M_eraseEPSt13_Rb_tree_nodeIS5_E.isra.0+0xdf0>
	mov    0x18(%rsp),%r14
	mov    %r12,%rax
	mov    0x38(%rax),%r12
	mov    0x30(%rax),%r13
	mov    0x10(%rax),%rbp
	cmp    %r13,%r12
	je     <_ZNSt8_Rb_treeIiSt4pairIKiN9benchmark17BenchmarkReporter19PerFamilyRunReportsEESt10_Select1stIS5_ESt4lessIiESaIS5_EE8_M_eraseEPSt13_Rb_tree_nodeIS5_E.isra.0+0xb83>
	mov    %rbx,0x18(%rsp)
	mov    %rax,%r15
	mov    0x200(%r13),%rbx
	test   %rbx,%rbx
	je     <_ZNSt8_Rb_treeIiSt4pairIKiN9benchmark17BenchmarkReporter19PerFamilyRunReportsEESt10_Select1stIS5_ESt4lessIiESaIS5_EE8_M_eraseEPSt13_Rb_tree_nodeIS5_E.isra.0+0xa0a>
	mov    0x18(%rbx),%rdi
	call   <_ZNSt8_Rb_treeINSt7__cxx1112basic_stringIcSt11char_traitsIcESaIcEEESt4pairIKS5_N9benchmark7CounterEESt10_Select1stISA_ESt4lessIS5_ESaISA_EE8_M_eraseEPSt13_Rb_tree_nodeISA_E.isra.0>
	mov    %rbx,%rdx
	mov    0x10(%rbx),%rbx
	mov    0x20(%rdx),%rdi
	lea    0x30(%rdx),%rcx
	cmp    %rcx,%rdi
	je     <_ZNSt8_Rb_treeIiSt4pairIKiN9benchmark17BenchmarkReporter19PerFamilyRunReportsEESt10_Select1stIS5_ESt4lessIiESaIS5_EE8_M_eraseEPSt13_Rb_tree_nodeIS5_E.isra.0+0x9f8>
	mov    0x30(%rdx),%rax
	mov    %rdx,0x20(%rsp)
	lea    0x1(%rax),%rsi
	call   <_ZdlPvm@plt>
	mov    0x20(%rsp),%rdx
	mov    $0x50,%esi
	mov    %rdx,%rdi
	call   <_ZdlPvm@plt>
	test   %rbx,%rbx
	jne    <_ZNSt8_Rb_treeIiSt4pairIKiN9benchmark17BenchmarkReporter19PerFamilyRunReportsEESt10_Select1stIS5_ESt4lessIiESaIS5_EE8_M_eraseEPSt13_Rb_tree_nodeIS5_E.isra.0+0x9c4>
	mov    0x168(%r13),%rdi
	lea    0x178(%r13),%rax
	cmp    %rax,%rdi
	je     <_ZNSt8_Rb_treeIiSt4pairIKiN9benchmark17BenchmarkReporter19PerFamilyRunReportsEESt10_Select1stIS5_ESt4lessIiESaIS5_EE8_M_eraseEPSt13_Rb_tree_nodeIS5_E.isra.0+0xa2d>
	mov    0x178(%r13),%rax
	lea    0x1(%rax),%rsi
	call   <_ZdlPvm@plt>
	mov    0x140(%r13),%rdi
	lea    0x150(%r13),%rax
	cmp    %rax,%rdi
	je     <_ZNSt8_Rb_treeIiSt4pairIKiN9benchmark17BenchmarkReporter19PerFamilyRunReportsEESt10_Select1stIS5_ESt4lessIiESaIS5_EE8_M_eraseEPSt13_Rb_tree_nodeIS5_E.isra.0+0xa50>
	mov    0x150(%r13),%rax
	lea    0x1(%rax),%rsi
	call   <_ZdlPvm@plt>
	mov    0x118(%r13),%rdi
	lea    0x128(%r13),%rax
	cmp    %rax,%rdi
	je     <_ZNSt8_Rb_treeIiSt4pairIKiN9benchmark17BenchmarkReporter19PerFamilyRunReportsEESt10_Select1stIS5_ESt4lessIiESaIS5_EE8_M_eraseEPSt13_Rb_tree_nodeIS5_E.isra.0+0xa73>
	mov    0x128(%r13),%rax
	lea    0x1(%rax),%rsi
	call   <_ZdlPvm@plt>
	mov    0xe0(%r13),%rdi
	lea    0xf0(%r13),%rax
	cmp    %rax,%rdi
	je     <_ZNSt8_Rb_treeIiSt4pairIKiN9benchmark17BenchmarkReporter19PerFamilyRunReportsEESt10_Select1stIS5_ESt4lessIiESaIS5_EE8_M_eraseEPSt13_Rb_tree_nodeIS5_E.isra.0+0xa96>
	mov    0xf0(%r13),%rax
	lea    0x1(%rax),%rsi
	call   <_ZdlPvm@plt>
	mov    0xc0(%r13),%rdi
	lea    0xd0(%r13),%rax
	cmp    %rax,%rdi
	je     <_ZNSt8_Rb_treeIiSt4pairIKiN9benchmark17BenchmarkReporter19PerFamilyRunReportsEESt10_Select1stIS5_ESt4lessIiESaIS5_EE8_M_eraseEPSt13_Rb_tree_nodeIS5_E.isra.0+0xab9>
	mov    0xd0(%r13),%rax
	lea    0x1(%rax),%rsi
	call   <_ZdlPvm@plt>
	mov    0xa0(%r13),%rdi
	lea    0xb0(%r13),%rax
	cmp    %rax,%rdi
	je     <_ZNSt8_Rb_treeIiSt4pairIKiN9benchmark17BenchmarkReporter19PerFamilyRunReportsEESt10_Select1stIS5_ESt4lessIiESaIS5_EE8_M_eraseEPSt13_Rb_tree_nodeIS5_E.isra.0+0xadc>
	mov    0xb0(%r13),%rax
	lea    0x1(%rax),%rsi
	call   <_ZdlPvm@plt>
	mov    0x80(%r13),%rdi
	lea    0x90(%r13),%rax
	cmp    %rax,%rdi
	je     <_ZNSt8_Rb_treeIiSt4pairIKiN9benchmark17BenchmarkReporter19PerFamilyRunReportsEESt10_Select1stIS5_ESt4lessIiESaIS5_EE8_M_eraseEPSt13_Rb_tree_nodeIS5_E.isra.0+0xaff>
	mov    0x90(%r13),%rax
	lea    0x1(%rax),%rsi
	call   <_ZdlPvm@plt>
	mov    0x60(%r13),%rdi
	lea    0x70(%r13),%rax
	cmp    %rax,%rdi
	je     <_ZNSt8_Rb_treeIiSt4pairIKiN9benchmark17BenchmarkReporter19PerFamilyRunReportsEESt10_Select1stIS5_ESt4lessIiESaIS5_EE8_M_eraseEPSt13_Rb_tree_nodeIS5_E.isra.0+0xb19>
	mov    0x70(%r13),%rax
	lea    0x1(%rax),%rsi
	call   <_ZdlPvm@plt>
	mov    0x40(%r13),%rdi
	lea    0x50(%r13),%rax
	cmp    %rax,%rdi
	je     <_ZNSt8_Rb_treeIiSt4pairIKiN9benchmark17BenchmarkReporter19PerFamilyRunReportsEESt10_Select1stIS5_ESt4lessIiESaIS5_EE8_M_eraseEPSt13_Rb_tree_nodeIS5_E.isra.0+0xb33>
	mov    0x50(%r13),%rax
	lea    0x1(%rax),%rsi
	call   <_ZdlPvm@plt>
	mov    0x20(%r13),%rdi
	lea    0x30(%r13),%rax
	cmp    %rax,%rdi
	je     <_ZNSt8_Rb_treeIiSt4pairIKiN9benchmark17BenchmarkReporter19PerFamilyRunReportsEESt10_Select1stIS5_ESt4lessIiESaIS5_EE8_M_eraseEPSt13_Rb_tree_nodeIS5_E.isra.0+0xb4d>
	mov    0x30(%r13),%rax
	lea    0x1(%rax),%rsi
	call   <_ZdlPvm@plt>
	mov    0x0(%r13),%rdi
	lea    0x10(%r13),%rax
	cmp    %rax,%rdi
	je     <_ZNSt8_Rb_treeIiSt4pairIKiN9benchmark17BenchmarkReporter19PerFamilyRunReportsEESt10_Select1stIS5_ESt4lessIiESaIS5_EE8_M_eraseEPSt13_Rb_tree_nodeIS5_E.isra.0+0xb67>
	mov    0x10(%r13),%rax
	lea    0x1(%rax),%rsi
	call   <_ZdlPvm@plt>
	add    $0x230,%r13
	cmp    %r13,%r12
	jne    <_ZNSt8_Rb_treeIiSt4pairIKiN9benchmark17BenchmarkReporter19PerFamilyRunReportsEESt10_Select1stIS5_ESt4lessIiESaIS5_EE8_M_eraseEPSt13_Rb_tree_nodeIS5_E.isra.0+0x9b8>
	mov    0x18(%rsp),%rbx
	mov    0x30(%r15),%r13
	mov    %r15,%rax
	test   %r13,%r13
	je     <_ZNSt8_Rb_treeIiSt4pairIKiN9benchmark17BenchmarkReporter19PerFamilyRunReportsEESt10_Select1stIS5_ESt4lessIiESaIS5_EE8_M_eraseEPSt13_Rb_tree_nodeIS5_E.isra.0+0x4e7>
	mov    0x40(%rax),%rsi
	mov    %r13,%rdi
	mov    %rax,0x18(%rsp)
	sub    %r13,%rsi
	call   <_ZdlPvm@plt>
	mov    0x18(%rsp),%rdi
	mov    $0x48,%esi
	call   <_ZdlPvm@plt>
	test   %rbp,%rbp
	je     <_ZNSt8_Rb_treeIiSt4pairIKiN9benchmark17BenchmarkReporter19PerFamilyRunReportsEESt10_Select1stIS5_ESt4lessIiESaIS5_EE8_M_eraseEPSt13_Rb_tree_nodeIS5_E.isra.0+0x4fd>
	mov    %rbp,%rax
	jmp    <_ZNSt8_Rb_treeIiSt4pairIKiN9benchmark17BenchmarkReporter19PerFamilyRunReportsEESt10_Select1stIS5_ESt4lessIiESaIS5_EE8_M_eraseEPSt13_Rb_tree_nodeIS5_E.isra.0+0x7c>
	mov    0x20(%rsp),%r12
	mov    0x28(%rsp),%rax
	mov    0x38(%rax),%r15
	mov    0x30(%rax),%rbp
	mov    0x10(%rax),%r13
	cmp    %rbp,%r15
	je     <_ZNSt8_Rb_treeIiSt4pairIKiN9benchmark17BenchmarkReporter19PerFamilyRunReportsEESt10_Select1stIS5_ESt4lessIiESaIS5_EE8_M_eraseEPSt13_Rb_tree_nodeIS5_E.isra.0+0xdbb>
	mov    %rbx,0x20(%rsp)
	mov    %rax,%r14
	nopw   0x0(%rax,%rax,1)
	mov    0x200(%rbp),%rbx
	test   %rbx,%rbx
	je     <_ZNSt8_Rb_treeIiSt4pairIKiN9benchmark17BenchmarkReporter19PerFamilyRunReportsEESt10_Select1stIS5_ESt4lessIiESaIS5_EE8_M_eraseEPSt13_Rb_tree_nodeIS5_E.isra.0+0xc42>
	mov    0x18(%rbx),%rdi
	call   <_ZNSt8_Rb_treeINSt7__cxx1112basic_stringIcSt11char_traitsIcESaIcEEESt4pairIKS5_N9benchmark7CounterEESt10_Select1stISA_ESt4lessIS5_ESaISA_EE8_M_eraseEPSt13_Rb_tree_nodeISA_E.isra.0>
	mov    %rbx,%rdx
	mov    0x10(%rbx),%rbx
	mov    0x20(%rdx),%rdi
	lea    0x30(%rdx),%rcx
	cmp    %rcx,%rdi
	je     <_ZNSt8_Rb_treeIiSt4pairIKiN9benchmark17BenchmarkReporter19PerFamilyRunReportsEESt10_Select1stIS5_ESt4lessIiESaIS5_EE8_M_eraseEPSt13_Rb_tree_nodeIS5_E.isra.0+0xc30>
	mov    0x30(%rdx),%rax
	mov    %rdx,0x28(%rsp)
	lea    0x1(%rax),%rsi
	call   <_ZdlPvm@plt>
	mov    0x28(%rsp),%rdx
	mov    $0x50,%esi
	mov    %rdx,%rdi
	call   <_ZdlPvm@plt>
	test   %rbx,%rbx
	jne    <_ZNSt8_Rb_treeIiSt4pairIKiN9benchmark17BenchmarkReporter19PerFamilyRunReportsEESt10_Select1stIS5_ESt4lessIiESaIS5_EE8_M_eraseEPSt13_Rb_tree_nodeIS5_E.isra.0+0xbfc>
	mov    0x168(%rbp),%rdi
	lea    0x178(%rbp),%rax
	cmp    %rax,%rdi
	je     <_ZNSt8_Rb_treeIiSt4pairIKiN9benchmark17BenchmarkReporter19PerFamilyRunReportsEESt10_Select1stIS5_ESt4lessIiESaIS5_EE8_M_eraseEPSt13_Rb_tree_nodeIS5_E.isra.0+0xc65>
	mov    0x178(%rbp),%rax
	lea    0x1(%rax),%rsi
	call   <_ZdlPvm@plt>
	mov    0x140(%rbp),%rdi
	lea    0x150(%rbp),%rax
	cmp    %rax,%rdi
	je     <_ZNSt8_Rb_treeIiSt4pairIKiN9benchmark17BenchmarkReporter19PerFamilyRunReportsEESt10_Select1stIS5_ESt4lessIiESaIS5_EE8_M_eraseEPSt13_Rb_tree_nodeIS5_E.isra.0+0xc88>
	mov    0x150(%rbp),%rax
	lea    0x1(%rax),%rsi
	call   <_ZdlPvm@plt>
	mov    0x118(%rbp),%rdi
	lea    0x128(%rbp),%rax
	cmp    %rax,%rdi
	je     <_ZNSt8_Rb_treeIiSt4pairIKiN9benchmark17BenchmarkReporter19PerFamilyRunReportsEESt10_Select1stIS5_ESt4lessIiESaIS5_EE8_M_eraseEPSt13_Rb_tree_nodeIS5_E.isra.0+0xcab>
	mov    0x128(%rbp),%rax
	lea    0x1(%rax),%rsi
	call   <_ZdlPvm@plt>
	mov    0xe0(%rbp),%rdi
	lea    0xf0(%rbp),%rax
	cmp    %rax,%rdi
	je     <_ZNSt8_Rb_treeIiSt4pairIKiN9benchmark17BenchmarkReporter19PerFamilyRunReportsEESt10_Select1stIS5_ESt4lessIiESaIS5_EE8_M_eraseEPSt13_Rb_tree_nodeIS5_E.isra.0+0xcce>
	mov    0xf0(%rbp),%rax
	lea    0x1(%rax),%rsi
	call   <_ZdlPvm@plt>
	mov    0xc0(%rbp),%rdi
	lea    0xd0(%rbp),%rax
	cmp    %rax,%rdi
	je     <_ZNSt8_Rb_treeIiSt4pairIKiN9benchmark17BenchmarkReporter19PerFamilyRunReportsEESt10_Select1stIS5_ESt4lessIiESaIS5_EE8_M_eraseEPSt13_Rb_tree_nodeIS5_E.isra.0+0xcf1>
	mov    0xd0(%rbp),%rax
	lea    0x1(%rax),%rsi
	call   <_ZdlPvm@plt>
	mov    0xa0(%rbp),%rdi
	lea    0xb0(%rbp),%rax
	cmp    %rax,%rdi
	je     <_ZNSt8_Rb_treeIiSt4pairIKiN9benchmark17BenchmarkReporter19PerFamilyRunReportsEESt10_Select1stIS5_ESt4lessIiESaIS5_EE8_M_eraseEPSt13_Rb_tree_nodeIS5_E.isra.0+0xd14>
	mov    0xb0(%rbp),%rax
	lea    0x1(%rax),%rsi
	call   <_ZdlPvm@plt>
	mov    0x80(%rbp),%rdi
	lea    0x90(%rbp),%rax
	cmp    %rax,%rdi
	je     <_ZNSt8_Rb_treeIiSt4pairIKiN9benchmark17BenchmarkReporter19PerFamilyRunReportsEESt10_Select1stIS5_ESt4lessIiESaIS5_EE8_M_eraseEPSt13_Rb_tree_nodeIS5_E.isra.0+0xd37>
	mov    0x90(%rbp),%rax
	lea    0x1(%rax),%rsi
	call   <_ZdlPvm@plt>
	mov    0x60(%rbp),%rdi
	lea    0x70(%rbp),%rax
	cmp    %rax,%rdi
	je     <_ZNSt8_Rb_treeIiSt4pairIKiN9benchmark17BenchmarkReporter19PerFamilyRunReportsEESt10_Select1stIS5_ESt4lessIiESaIS5_EE8_M_eraseEPSt13_Rb_tree_nodeIS5_E.isra.0+0xd51>
	mov    0x70(%rbp),%rax
	lea    0x1(%rax),%rsi
	call   <_ZdlPvm@plt>
	mov    0x40(%rbp),%rdi
	lea    0x50(%rbp),%rax
	cmp    %rax,%rdi
	je     <_ZNSt8_Rb_treeIiSt4pairIKiN9benchmark17BenchmarkReporter19PerFamilyRunReportsEESt10_Select1stIS5_ESt4lessIiESaIS5_EE8_M_eraseEPSt13_Rb_tree_nodeIS5_E.isra.0+0xd6b>
	mov    0x50(%rbp),%rax
	lea    0x1(%rax),%rsi
	call   <_ZdlPvm@plt>
	mov    0x20(%rbp),%rdi
	lea    0x30(%rbp),%rax
	cmp    %rax,%rdi
	je     <_ZNSt8_Rb_treeIiSt4pairIKiN9benchmark17BenchmarkReporter19PerFamilyRunReportsEESt10_Select1stIS5_ESt4lessIiESaIS5_EE8_M_eraseEPSt13_Rb_tree_nodeIS5_E.isra.0+0xd85>
	mov    0x30(%rbp),%rax
	lea    0x1(%rax),%rsi
	call   <_ZdlPvm@plt>
	mov    0x0(%rbp),%rdi
	lea    0x10(%rbp),%rax
	cmp    %rax,%rdi
	je     <_ZNSt8_Rb_treeIiSt4pairIKiN9benchmark17BenchmarkReporter19PerFamilyRunReportsEESt10_Select1stIS5_ESt4lessIiESaIS5_EE8_M_eraseEPSt13_Rb_tree_nodeIS5_E.isra.0+0xd9f>
	mov    0x10(%rbp),%rax
	lea    0x1(%rax),%rsi
	call   <_ZdlPvm@plt>
	add    $0x230,%rbp
	cmp    %rbp,%r15
	jne    <_ZNSt8_Rb_treeIiSt4pairIKiN9benchmark17BenchmarkReporter19PerFamilyRunReportsEESt10_Select1stIS5_ESt4lessIiESaIS5_EE8_M_eraseEPSt13_Rb_tree_nodeIS5_E.isra.0+0xbf0>
	mov    0x20(%rsp),%rbx
	mov    0x30(%r14),%rbp
	mov    %r14,%rax
	test   %rbp,%rbp
	je     <_ZNSt8_Rb_treeIiSt4pairIKiN9benchmark17BenchmarkReporter19PerFamilyRunReportsEESt10_Select1stIS5_ESt4lessIiESaIS5_EE8_M_eraseEPSt13_Rb_tree_nodeIS5_E.isra.0+0x97d>
	mov    0x40(%rax),%rsi
	mov    %rbp,%rdi
	mov    %rax,0x20(%rsp)
	sub    %rbp,%rsi
	call   <_ZdlPvm@plt>
	mov    0x20(%rsp),%rdi
	mov    $0x48,%esi
	call   <_ZdlPvm@plt>
	test   %r13,%r13
	je     <_ZNSt8_Rb_treeIiSt4pairIKiN9benchmark17BenchmarkReporter19PerFamilyRunReportsEESt10_Select1stIS5_ESt4lessIiESaIS5_EE8_M_eraseEPSt13_Rb_tree_nodeIS5_E.isra.0+0x993>
	mov    %r13,%rax
	jmp    <_ZNSt8_Rb_treeIiSt4pairIKiN9benchmark17BenchmarkReporter19PerFamilyRunReportsEESt10_Select1stIS5_ESt4lessIiESaIS5_EE8_M_eraseEPSt13_Rb_tree_nodeIS5_E.isra.0+0x94>
	mov    0x38(%rbp),%r15
	mov    0x30(%rbp),%r12
	mov    0x10(%rbp),%r14
	cmp    %r12,%r15
	je     <_ZNSt8_Rb_treeIiSt4pairIKiN9benchmark17BenchmarkReporter19PerFamilyRunReportsEESt10_Select1stIS5_ESt4lessIiESaIS5_EE8_M_eraseEPSt13_Rb_tree_nodeIS5_E.isra.0+0xfef>
	mov    0x200(%r12),%r13
	test   %r13,%r13
	je     <_ZNSt8_Rb_treeIiSt4pairIKiN9benchmark17BenchmarkReporter19PerFamilyRunReportsEESt10_Select1stIS5_ESt4lessIiESaIS5_EE8_M_eraseEPSt13_Rb_tree_nodeIS5_E.isra.0+0xe5e>
	mov    0x18(%r13),%rdi
	call   <_ZNSt8_Rb_treeINSt7__cxx1112basic_stringIcSt11char_traitsIcESaIcEEESt4pairIKS5_N9benchmark7CounterEESt10_Select1stISA_ESt4lessIS5_ESaISA_EE8_M_eraseEPSt13_Rb_tree_nodeISA_E.isra.0>
	mov    %r13,%rax
	mov    0x10(%r13),%r13
	mov    0x20(%rax),%rdi
	lea    0x30(%rax),%rdx
	cmp    %rdx,%rdi
	je     <_ZNSt8_Rb_treeIiSt4pairIKiN9benchmark17BenchmarkReporter19PerFamilyRunReportsEESt10_Select1stIS5_ESt4lessIiESaIS5_EE8_M_eraseEPSt13_Rb_tree_nodeIS5_E.isra.0+0xe4c>
	mov    0x30(%rax),%rcx
	mov    %rax,(%rsp)
	lea    0x1(%rcx),%rsi
	call   <_ZdlPvm@plt>
	mov    (%rsp),%rax
	mov    $0x50,%esi
	mov    %rax,%rdi
	call   <_ZdlPvm@plt>
	test   %r13,%r13
	jne    <_ZNSt8_Rb_treeIiSt4pairIKiN9benchmark17BenchmarkReporter19PerFamilyRunReportsEESt10_Select1stIS5_ESt4lessIiESaIS5_EE8_M_eraseEPSt13_Rb_tree_nodeIS5_E.isra.0+0xe1a>
	mov    0x168(%r12),%rdi
	lea    0x178(%r12),%rax
	cmp    %rax,%rdi
	je     <_ZNSt8_Rb_treeIiSt4pairIKiN9benchmark17BenchmarkReporter19PerFamilyRunReportsEESt10_Select1stIS5_ESt4lessIiESaIS5_EE8_M_eraseEPSt13_Rb_tree_nodeIS5_E.isra.0+0xe84>
	mov    0x178(%r12),%rax
	lea    0x1(%rax),%rsi
	call   <_ZdlPvm@plt>
	mov    0x140(%r12),%rdi
	lea    0x150(%r12),%rax
	cmp    %rax,%rdi
	je     <_ZNSt8_Rb_treeIiSt4pairIKiN9benchmark17BenchmarkReporter19PerFamilyRunReportsEESt10_Select1stIS5_ESt4lessIiESaIS5_EE8_M_eraseEPSt13_Rb_tree_nodeIS5_E.isra.0+0xeaa>
	mov    0x150(%r12),%rax
	lea    0x1(%rax),%rsi
	call   <_ZdlPvm@plt>
	mov    0x118(%r12),%rdi
	lea    0x128(%r12),%rax
	cmp    %rax,%rdi
	je     <_ZNSt8_Rb_treeIiSt4pairIKiN9benchmark17BenchmarkReporter19PerFamilyRunReportsEESt10_Select1stIS5_ESt4lessIiESaIS5_EE8_M_eraseEPSt13_Rb_tree_nodeIS5_E.isra.0+0xed0>
	mov    0x128(%r12),%rax
	lea    0x1(%rax),%rsi
	call   <_ZdlPvm@plt>
	mov    0xe0(%r12),%rdi
	lea    0xf0(%r12),%rax
	cmp    %rax,%rdi
	je     <_ZNSt8_Rb_treeIiSt4pairIKiN9benchmark17BenchmarkReporter19PerFamilyRunReportsEESt10_Select1stIS5_ESt4lessIiESaIS5_EE8_M_eraseEPSt13_Rb_tree_nodeIS5_E.isra.0+0xef6>
	mov    0xf0(%r12),%rax
	lea    0x1(%rax),%rsi
	call   <_ZdlPvm@plt>
	mov    0xc0(%r12),%rdi
	lea    0xd0(%r12),%rax
	cmp    %rax,%rdi
	je     <_ZNSt8_Rb_treeIiSt4pairIKiN9benchmark17BenchmarkReporter19PerFamilyRunReportsEESt10_Select1stIS5_ESt4lessIiESaIS5_EE8_M_eraseEPSt13_Rb_tree_nodeIS5_E.isra.0+0xf1c>
	mov    0xd0(%r12),%rax
	lea    0x1(%rax),%rsi
	call   <_ZdlPvm@plt>
	mov    0xa0(%r12),%rdi
	lea    0xb0(%r12),%rax
	cmp    %rax,%rdi
	je     <_ZNSt8_Rb_treeIiSt4pairIKiN9benchmark17BenchmarkReporter19PerFamilyRunReportsEESt10_Select1stIS5_ESt4lessIiESaIS5_EE8_M_eraseEPSt13_Rb_tree_nodeIS5_E.isra.0+0xf42>
	mov    0xb0(%r12),%rax
	lea    0x1(%rax),%rsi
	call   <_ZdlPvm@plt>
	mov    0x80(%r12),%rdi
	lea    0x90(%r12),%rax
	cmp    %rax,%rdi
	je     <_ZNSt8_Rb_treeIiSt4pairIKiN9benchmark17BenchmarkReporter19PerFamilyRunReportsEESt10_Select1stIS5_ESt4lessIiESaIS5_EE8_M_eraseEPSt13_Rb_tree_nodeIS5_E.isra.0+0xf68>
	mov    0x90(%r12),%rax
	lea    0x1(%rax),%rsi
	call   <_ZdlPvm@plt>
	mov    0x60(%r12),%rdi
	lea    0x70(%r12),%rax
	cmp    %rax,%rdi
	je     <_ZNSt8_Rb_treeIiSt4pairIKiN9benchmark17BenchmarkReporter19PerFamilyRunReportsEESt10_Select1stIS5_ESt4lessIiESaIS5_EE8_M_eraseEPSt13_Rb_tree_nodeIS5_E.isra.0+0xf85>
	mov    0x70(%r12),%rax
	lea    0x1(%rax),%rsi
	call   <_ZdlPvm@plt>
	mov    0x40(%r12),%rdi
	lea    0x50(%r12),%rax
	cmp    %rax,%rdi
	je     <_ZNSt8_Rb_treeIiSt4pairIKiN9benchmark17BenchmarkReporter19PerFamilyRunReportsEESt10_Select1stIS5_ESt4lessIiESaIS5_EE8_M_eraseEPSt13_Rb_tree_nodeIS5_E.isra.0+0xfa2>
	mov    0x50(%r12),%rax
	lea    0x1(%rax),%rsi
	call   <_ZdlPvm@plt>
	mov    0x20(%r12),%rdi
	lea    0x30(%r12),%rax
	cmp    %rax,%rdi
	je     <_ZNSt8_Rb_treeIiSt4pairIKiN9benchmark17BenchmarkReporter19PerFamilyRunReportsEESt10_Select1stIS5_ESt4lessIiESaIS5_EE8_M_eraseEPSt13_Rb_tree_nodeIS5_E.isra.0+0xfbf>
	mov    0x30(%r12),%rax
	lea    0x1(%rax),%rsi
	call   <_ZdlPvm@plt>
	mov    (%r12),%rdi
	lea    0x10(%r12),%rax
	cmp    %rax,%rdi
	je     <_ZNSt8_Rb_treeIiSt4pairIKiN9benchmark17BenchmarkReporter19PerFamilyRunReportsEESt10_Select1stIS5_ESt4lessIiESaIS5_EE8_M_eraseEPSt13_Rb_tree_nodeIS5_E.isra.0+0xfdb>
	mov    0x10(%r12),%rax
	lea    0x1(%rax),%rsi
	call   <_ZdlPvm@plt>
	add    $0x230,%r12
	cmp    %r12,%r15
	jne    <_ZNSt8_Rb_treeIiSt4pairIKiN9benchmark17BenchmarkReporter19PerFamilyRunReportsEESt10_Select1stIS5_ESt4lessIiESaIS5_EE8_M_eraseEPSt13_Rb_tree_nodeIS5_E.isra.0+0xe0d>
	mov    0x30(%rbp),%r12
	test   %r12,%r12
	je     <_ZNSt8_Rb_treeIiSt4pairIKiN9benchmark17BenchmarkReporter19PerFamilyRunReportsEESt10_Select1stIS5_ESt4lessIiESaIS5_EE8_M_eraseEPSt13_Rb_tree_nodeIS5_E.isra.0+0x1003>
	mov    0x40(%rbp),%rsi
	mov    %r12,%rdi
	sub    %r12,%rsi
	call   <_ZdlPvm@plt>
	mov    $0x48,%esi
	mov    %rbp,%rdi
	call   <_ZdlPvm@plt>
	test   %r14,%r14
	je     <_ZNSt8_Rb_treeIiSt4pairIKiN9benchmark17BenchmarkReporter19PerFamilyRunReportsEESt10_Select1stIS5_ESt4lessIiESaIS5_EE8_M_eraseEPSt13_Rb_tree_nodeIS5_E.isra.0+0x123f>
	mov    %r14,%rbp
	jmp    <_ZNSt8_Rb_treeIiSt4pairIKiN9benchmark17BenchmarkReporter19PerFamilyRunReportsEESt10_Select1stIS5_ESt4lessIiESaIS5_EE8_M_eraseEPSt13_Rb_tree_nodeIS5_E.isra.0+0x27>
	mov    (%rsp),%r12
	mov    %r15,%rbp
	mov    0x38(%r12),%r15
	mov    0x30(%r12),%r13
	mov    0x10(%r12),%r14
	cmp    %r13,%r15
	je     <_ZNSt8_Rb_treeIiSt4pairIKiN9benchmark17BenchmarkReporter19PerFamilyRunReportsEESt10_Select1stIS5_ESt4lessIiESaIS5_EE8_M_eraseEPSt13_Rb_tree_nodeIS5_E.isra.0+0x120c>
	mov    %rbx,(%rsp)
	mov    0x200(%r13),%rbx
	test   %rbx,%rbx
	je     <_ZNSt8_Rb_treeIiSt4pairIKiN9benchmark17BenchmarkReporter19PerFamilyRunReportsEESt10_Select1stIS5_ESt4lessIiESaIS5_EE8_M_eraseEPSt13_Rb_tree_nodeIS5_E.isra.0+0x1096>
	mov    0x18(%rbx),%rdi
	call   <_ZNSt8_Rb_treeINSt7__cxx1112basic_stringIcSt11char_traitsIcESaIcEEESt4pairIKS5_N9benchmark7CounterEESt10_Select1stISA_ESt4lessIS5_ESaISA_EE8_M_eraseEPSt13_Rb_tree_nodeISA_E.isra.0>
	mov    %rbx,%rdx
	mov    0x10(%rbx),%rbx
	mov    0x20(%rdx),%rdi
	lea    0x30(%rdx),%rcx
	cmp    %rcx,%rdi
	je     <_ZNSt8_Rb_treeIiSt4pairIKiN9benchmark17BenchmarkReporter19PerFamilyRunReportsEESt10_Select1stIS5_ESt4lessIiESaIS5_EE8_M_eraseEPSt13_Rb_tree_nodeIS5_E.isra.0+0x1084>
	mov    0x30(%rdx),%rax
	mov    %rdx,0x8(%rsp)
	lea    0x1(%rax),%rsi
	call   <_ZdlPvm@plt>
	mov    0x8(%rsp),%rdx
	mov    $0x50,%esi
	mov    %rdx,%rdi
	call   <_ZdlPvm@plt>
	test   %rbx,%rbx
	jne    <_ZNSt8_Rb_treeIiSt4pairIKiN9benchmark17BenchmarkReporter19PerFamilyRunReportsEESt10_Select1stIS5_ESt4lessIiESaIS5_EE8_M_eraseEPSt13_Rb_tree_nodeIS5_E.isra.0+0x1050>
	mov    0x168(%r13),%rdi
	lea    0x178(%r13),%rax
	cmp    %rax,%rdi
	je     <_ZNSt8_Rb_treeIiSt4pairIKiN9benchmark17BenchmarkReporter19PerFamilyRunReportsEESt10_Select1stIS5_ESt4lessIiESaIS5_EE8_M_eraseEPSt13_Rb_tree_nodeIS5_E.isra.0+0x10b9>
	mov    0x178(%r13),%rax
	lea    0x1(%rax),%rsi
	call   <_ZdlPvm@plt>
	mov    0x140(%r13),%rdi
	lea    0x150(%r13),%rax
	cmp    %rax,%rdi
	je     <_ZNSt8_Rb_treeIiSt4pairIKiN9benchmark17BenchmarkReporter19PerFamilyRunReportsEESt10_Select1stIS5_ESt4lessIiESaIS5_EE8_M_eraseEPSt13_Rb_tree_nodeIS5_E.isra.0+0x10dc>
	mov    0x150(%r13),%rax
	lea    0x1(%rax),%rsi
	call   <_ZdlPvm@plt>
	mov    0x118(%r13),%rdi
	lea    0x128(%r13),%rax
	cmp    %rax,%rdi
	je     <_ZNSt8_Rb_treeIiSt4pairIKiN9benchmark17BenchmarkReporter19PerFamilyRunReportsEESt10_Select1stIS5_ESt4lessIiESaIS5_EE8_M_eraseEPSt13_Rb_tree_nodeIS5_E.isra.0+0x10ff>
	mov    0x128(%r13),%rax
	lea    0x1(%rax),%rsi
	call   <_ZdlPvm@plt>
	mov    0xe0(%r13),%rdi
	lea    0xf0(%r13),%rax
	cmp    %rax,%rdi
	je     <_ZNSt8_Rb_treeIiSt4pairIKiN9benchmark17BenchmarkReporter19PerFamilyRunReportsEESt10_Select1stIS5_ESt4lessIiESaIS5_EE8_M_eraseEPSt13_Rb_tree_nodeIS5_E.isra.0+0x1122>
	mov    0xf0(%r13),%rax
	lea    0x1(%rax),%rsi
	call   <_ZdlPvm@plt>
	mov    0xc0(%r13),%rdi
	lea    0xd0(%r13),%rax
	cmp    %rax,%rdi
	je     <_ZNSt8_Rb_treeIiSt4pairIKiN9benchmark17BenchmarkReporter19PerFamilyRunReportsEESt10_Select1stIS5_ESt4lessIiESaIS5_EE8_M_eraseEPSt13_Rb_tree_nodeIS5_E.isra.0+0x1145>
	mov    0xd0(%r13),%rax
	lea    0x1(%rax),%rsi
	call   <_ZdlPvm@plt>
	mov    0xa0(%r13),%rdi
	lea    0xb0(%r13),%rax
	cmp    %rax,%rdi
	je     <_ZNSt8_Rb_treeIiSt4pairIKiN9benchmark17BenchmarkReporter19PerFamilyRunReportsEESt10_Select1stIS5_ESt4lessIiESaIS5_EE8_M_eraseEPSt13_Rb_tree_nodeIS5_E.isra.0+0x1168>
	mov    0xb0(%r13),%rax
	lea    0x1(%rax),%rsi
	call   <_ZdlPvm@plt>
	mov    0x80(%r13),%rdi
	lea    0x90(%r13),%rax
	cmp    %rax,%rdi
	je     <_ZNSt8_Rb_treeIiSt4pairIKiN9benchmark17BenchmarkReporter19PerFamilyRunReportsEESt10_Select1stIS5_ESt4lessIiESaIS5_EE8_M_eraseEPSt13_Rb_tree_nodeIS5_E.isra.0+0x118b>
	mov    0x90(%r13),%rax
	lea    0x1(%rax),%rsi
	call   <_ZdlPvm@plt>
	mov    0x60(%r13),%rdi
	lea    0x70(%r13),%rax
	cmp    %rax,%rdi
	je     <_ZNSt8_Rb_treeIiSt4pairIKiN9benchmark17BenchmarkReporter19PerFamilyRunReportsEESt10_Select1stIS5_ESt4lessIiESaIS5_EE8_M_eraseEPSt13_Rb_tree_nodeIS5_E.isra.0+0x11a5>
	mov    0x70(%r13),%rax
	lea    0x1(%rax),%rsi
	call   <_ZdlPvm@plt>
	mov    0x40(%r13),%rdi
	lea    0x50(%r13),%rax
	cmp    %rax,%rdi
	je     <_ZNSt8_Rb_treeIiSt4pairIKiN9benchmark17BenchmarkReporter19PerFamilyRunReportsEESt10_Select1stIS5_ESt4lessIiESaIS5_EE8_M_eraseEPSt13_Rb_tree_nodeIS5_E.isra.0+0x11bf>
	mov    0x50(%r13),%rax
	lea    0x1(%rax),%rsi
	call   <_ZdlPvm@plt>
	mov    0x20(%r13),%rdi
	lea    0x30(%r13),%rax
	cmp    %rax,%rdi
	je     <_ZNSt8_Rb_treeIiSt4pairIKiN9benchmark17BenchmarkReporter19PerFamilyRunReportsEESt10_Select1stIS5_ESt4lessIiESaIS5_EE8_M_eraseEPSt13_Rb_tree_nodeIS5_E.isra.0+0x11d9>
	mov    0x30(%r13),%rax
	lea    0x1(%rax),%rsi
	call   <_ZdlPvm@plt>
	mov    0x0(%r13),%rdi
	lea    0x10(%r13),%rax
	cmp    %rax,%rdi
	je     <_ZNSt8_Rb_treeIiSt4pairIKiN9benchmark17BenchmarkReporter19PerFamilyRunReportsEESt10_Select1stIS5_ESt4lessIiESaIS5_EE8_M_eraseEPSt13_Rb_tree_nodeIS5_E.isra.0+0x11f3>
	mov    0x10(%r13),%rax
	lea    0x1(%rax),%rsi
	call   <_ZdlPvm@plt>
	add    $0x230,%r13
	cmp    %r13,%r15
	jne    <_ZNSt8_Rb_treeIiSt4pairIKiN9benchmark17BenchmarkReporter19PerFamilyRunReportsEESt10_Select1stIS5_ESt4lessIiESaIS5_EE8_M_eraseEPSt13_Rb_tree_nodeIS5_E.isra.0+0x1044>
	mov    (%rsp),%rbx
	mov    0x30(%r12),%r13
	test   %r13,%r13
	je     <_ZNSt8_Rb_treeIiSt4pairIKiN9benchmark17BenchmarkReporter19PerFamilyRunReportsEESt10_Select1stIS5_ESt4lessIiESaIS5_EE8_M_eraseEPSt13_Rb_tree_nodeIS5_E.isra.0+0x1221>
	mov    0x40(%r12),%rsi
	mov    %r13,%rdi
	sub    %r13,%rsi
	call   <_ZdlPvm@plt>
	mov    $0x48,%esi
	mov    %r12,%rdi
	call   <_ZdlPvm@plt>
	test   %r14,%r14
	je     <_ZNSt8_Rb_treeIiSt4pairIKiN9benchmark17BenchmarkReporter19PerFamilyRunReportsEESt10_Select1stIS5_ESt4lessIiESaIS5_EE8_M_eraseEPSt13_Rb_tree_nodeIS5_E.isra.0+0xdf8>
	mov    %r14,%r12
	jmp    <_ZNSt8_Rb_treeIiSt4pairIKiN9benchmark17BenchmarkReporter19PerFamilyRunReportsEESt10_Select1stIS5_ESt4lessIiESaIS5_EE8_M_eraseEPSt13_Rb_tree_nodeIS5_E.isra.0+0x34>
	mov    0x38(%rbx),%r14
	mov    0x30(%rbx),%rbp
	mov    0x10(%rbx),%r13
	cmp    %rbp,%r14
	je     <_ZNSt8_Rb_treeIiSt4pairIKiN9benchmark17BenchmarkReporter19PerFamilyRunReportsEESt10_Select1stIS5_ESt4lessIiESaIS5_EE8_M_eraseEPSt13_Rb_tree_nodeIS5_E.isra.0+0x140f>
	mov    0x200(%rbp),%r12
	test   %r12,%r12
	je     <_ZNSt8_Rb_treeIiSt4pairIKiN9benchmark17BenchmarkReporter19PerFamilyRunReportsEESt10_Select1stIS5_ESt4lessIiESaIS5_EE8_M_eraseEPSt13_Rb_tree_nodeIS5_E.isra.0+0x129e>
	mov    0x18(%r12),%rdi
	mov    %r12,%r15
	call   <_ZNSt8_Rb_treeINSt7__cxx1112basic_stringIcSt11char_traitsIcESaIcEEESt4pairIKS5_N9benchmark7CounterEESt10_Select1stISA_ESt4lessIS5_ESaISA_EE8_M_eraseEPSt13_Rb_tree_nodeISA_E.isra.0>
	mov    0x20(%r15),%rdi
	lea    0x30(%r15),%rax
	mov    0x10(%r12),%r12
	cmp    %rax,%rdi
	je     <_ZNSt8_Rb_treeIiSt4pairIKiN9benchmark17BenchmarkReporter19PerFamilyRunReportsEESt10_Select1stIS5_ESt4lessIiESaIS5_EE8_M_eraseEPSt13_Rb_tree_nodeIS5_E.isra.0+0x128c>
	mov    0x30(%r15),%rax
	lea    0x1(%rax),%rsi
	call   <_ZdlPvm@plt>
	mov    $0x50,%esi
	mov    %r15,%rdi
	call   <_ZdlPvm@plt>
	test   %r12,%r12
	jne    <_ZNSt8_Rb_treeIiSt4pairIKiN9benchmark17BenchmarkReporter19PerFamilyRunReportsEESt10_Select1stIS5_ESt4lessIiESaIS5_EE8_M_eraseEPSt13_Rb_tree_nodeIS5_E.isra.0+0x1260>
	mov    0x168(%rbp),%rdi
	lea    0x178(%rbp),%rax
	cmp    %rax,%rdi
	je     <_ZNSt8_Rb_treeIiSt4pairIKiN9benchmark17BenchmarkReporter19PerFamilyRunReportsEESt10_Select1stIS5_ESt4lessIiESaIS5_EE8_M_eraseEPSt13_Rb_tree_nodeIS5_E.isra.0+0x12c1>
	mov    0x178(%rbp),%rax
	lea    0x1(%rax),%rsi
	call   <_ZdlPvm@plt>
	mov    0x140(%rbp),%rdi
	lea    0x150(%rbp),%rax
	cmp    %rax,%rdi
	je     <_ZNSt8_Rb_treeIiSt4pairIKiN9benchmark17BenchmarkReporter19PerFamilyRunReportsEESt10_Select1stIS5_ESt4lessIiESaIS5_EE8_M_eraseEPSt13_Rb_tree_nodeIS5_E.isra.0+0x12e4>
	mov    0x150(%rbp),%rax
	lea    0x1(%rax),%rsi
	call   <_ZdlPvm@plt>
	mov    0x118(%rbp),%rdi
	lea    0x128(%rbp),%rax
	cmp    %rax,%rdi
	je     <_ZNSt8_Rb_treeIiSt4pairIKiN9benchmark17BenchmarkReporter19PerFamilyRunReportsEESt10_Select1stIS5_ESt4lessIiESaIS5_EE8_M_eraseEPSt13_Rb_tree_nodeIS5_E.isra.0+0x1307>
	mov    0x128(%rbp),%rax
	lea    0x1(%rax),%rsi
	call   <_ZdlPvm@plt>
	mov    0xe0(%rbp),%rdi
	lea    0xf0(%rbp),%rax
	cmp    %rax,%rdi
	je     <_ZNSt8_Rb_treeIiSt4pairIKiN9benchmark17BenchmarkReporter19PerFamilyRunReportsEESt10_Select1stIS5_ESt4lessIiESaIS5_EE8_M_eraseEPSt13_Rb_tree_nodeIS5_E.isra.0+0x132a>
	mov    0xf0(%rbp),%rax
	lea    0x1(%rax),%rsi
	call   <_ZdlPvm@plt>
	mov    0xc0(%rbp),%rdi
	lea    0xd0(%rbp),%rax
	cmp    %rax,%rdi
	je     <_ZNSt8_Rb_treeIiSt4pairIKiN9benchmark17BenchmarkReporter19PerFamilyRunReportsEESt10_Select1stIS5_ESt4lessIiESaIS5_EE8_M_eraseEPSt13_Rb_tree_nodeIS5_E.isra.0+0x134d>
	mov    0xd0(%rbp),%rax
	lea    0x1(%rax),%rsi
	call   <_ZdlPvm@plt>
	mov    0xa0(%rbp),%rdi
	lea    0xb0(%rbp),%rax
	cmp    %rax,%rdi
	je     <_ZNSt8_Rb_treeIiSt4pairIKiN9benchmark17BenchmarkReporter19PerFamilyRunReportsEESt10_Select1stIS5_ESt4lessIiESaIS5_EE8_M_eraseEPSt13_Rb_tree_nodeIS5_E.isra.0+0x1370>
	mov    0xb0(%rbp),%rax
	lea    0x1(%rax),%rsi
	call   <_ZdlPvm@plt>
	mov    0x80(%rbp),%rdi
	lea    0x90(%rbp),%rax
	cmp    %rax,%rdi
	je     <_ZNSt8_Rb_treeIiSt4pairIKiN9benchmark17BenchmarkReporter19PerFamilyRunReportsEESt10_Select1stIS5_ESt4lessIiESaIS5_EE8_M_eraseEPSt13_Rb_tree_nodeIS5_E.isra.0+0x1393>
	mov    0x90(%rbp),%rax
	lea    0x1(%rax),%rsi
	call   <_ZdlPvm@plt>
	mov    0x60(%rbp),%rdi
	lea    0x70(%rbp),%rax
	cmp    %rax,%rdi
	je     <_ZNSt8_Rb_treeIiSt4pairIKiN9benchmark17BenchmarkReporter19PerFamilyRunReportsEESt10_Select1stIS5_ESt4lessIiESaIS5_EE8_M_eraseEPSt13_Rb_tree_nodeIS5_E.isra.0+0x13ad>
	mov    0x70(%rbp),%rax
	lea    0x1(%rax),%rsi
	call   <_ZdlPvm@plt>
	mov    0x40(%rbp),%rdi
	lea    0x50(%rbp),%rax
	cmp    %rax,%rdi
	je     <_ZNSt8_Rb_treeIiSt4pairIKiN9benchmark17BenchmarkReporter19PerFamilyRunReportsEESt10_Select1stIS5_ESt4lessIiESaIS5_EE8_M_eraseEPSt13_Rb_tree_nodeIS5_E.isra.0+0x13c7>
	mov    0x50(%rbp),%rax
	lea    0x1(%rax),%rsi
	call   <_ZdlPvm@plt>
	mov    0x20(%rbp),%rdi
	lea    0x30(%rbp),%rax
	cmp    %rax,%rdi
	je     <_ZNSt8_Rb_treeIiSt4pairIKiN9benchmark17BenchmarkReporter19PerFamilyRunReportsEESt10_Select1stIS5_ESt4lessIiESaIS5_EE8_M_eraseEPSt13_Rb_tree_nodeIS5_E.isra.0+0x13e1>
	mov    0x30(%rbp),%rax
	lea    0x1(%rax),%rsi
	call   <_ZdlPvm@plt>
	mov    0x0(%rbp),%rdi
	lea    0x10(%rbp),%rax
	cmp    %rax,%rdi
	je     <_ZNSt8_Rb_treeIiSt4pairIKiN9benchmark17BenchmarkReporter19PerFamilyRunReportsEESt10_Select1stIS5_ESt4lessIiESaIS5_EE8_M_eraseEPSt13_Rb_tree_nodeIS5_E.isra.0+0x13fb>
	mov    0x10(%rbp),%rax
	lea    0x1(%rax),%rsi
	call   <_ZdlPvm@plt>
	add    $0x230,%rbp
	cmp    %rbp,%r14
	jne    <_ZNSt8_Rb_treeIiSt4pairIKiN9benchmark17BenchmarkReporter19PerFamilyRunReportsEESt10_Select1stIS5_ESt4lessIiESaIS5_EE8_M_eraseEPSt13_Rb_tree_nodeIS5_E.isra.0+0x1254>
	mov    0x30(%rbx),%rbp
	test   %rbp,%rbp
	je     <_ZNSt8_Rb_treeIiSt4pairIKiN9benchmark17BenchmarkReporter19PerFamilyRunReportsEESt10_Select1stIS5_ESt4lessIiESaIS5_EE8_M_eraseEPSt13_Rb_tree_nodeIS5_E.isra.0+0x1423>
	mov    0x40(%rbx),%rsi
	mov    %rbp,%rdi
	sub    %rbp,%rsi
	call   <_ZdlPvm@plt>
	mov    $0x48,%esi
	mov    %rbx,%rdi
	call   <_ZdlPvm@plt>
	test   %r13,%r13
	je     <_ZNSt8_Rb_treeIiSt4pairIKiN9benchmark17BenchmarkReporter19PerFamilyRunReportsEESt10_Select1stIS5_ESt4lessIiESaIS5_EE8_M_eraseEPSt13_Rb_tree_nodeIS5_E.isra.0+0x143d>
	mov    %r13,%rbx
	jmp    <_ZNSt8_Rb_treeIiSt4pairIKiN9benchmark17BenchmarkReporter19PerFamilyRunReportsEESt10_Select1stIS5_ESt4lessIiESaIS5_EE8_M_eraseEPSt13_Rb_tree_nodeIS5_E.isra.0+0x1a>
	add    $0x48,%rsp
	pop    %rbx
	pop    %rbp
	pop    %r12
	pop    %r13
	pop    %r14
	pop    %r15
	ret
	ret
	nopl   (%rax)

<_ZN9benchmark8internal16GetGlobalContextB5cxx11Ev>:
	endbr64
	lea    0x61d5d(%rip),%rax        # <_ZN9benchmark8internal14global_contextB5cxx11E>
	ret
	nopl   0x0(%rax)

<_ZN9benchmark8internal14UseCharPointerEPVKc>:
	endbr64
	mov    %rdi,0x61f0d(%rip)        # <_ZN9benchmark8internalL27global_force_escape_pointerE>
	ret
	nopl   0x0(%rax)

<_ZN9benchmark5State12ResumeTimingEv>:
	endbr64
	push   %rbp
	push   %rbx
	mov    %rdi,%rbx
	sub    $0x8,%rsp
	movzbl 0x61f14(%rip),%eax        # <_ZGVZN9benchmark8internal18GetNullLogInstanceEvE8null_log>
	test   %al,%al
	je     <_ZN9benchmark5State12ResumeTimingEv+0xb0>
	mov    0x98(%rbx),%rbp
	movb   $0x1,0x1(%rbp)
	call   <_ZNSt6chrono3_V212steady_clock3nowEv@plt>
	pxor   %xmm0,%xmm0
	cmpb   $0x0,0x0(%rbp)
	cvtsi2sd %rax,%xmm0
	divsd  0x5241f(%rip),%xmm0        # <_ZSt19piecewise_construct+0x9f>
	movsd  %xmm0,0x8(%rbp)
	je     <_ZN9benchmark5State12ResumeTimingEv+0x70>
	call   <_ZN9benchmark15ProcessCPUUsageEv>
	mov    0xa8(%rbx),%rbx
	movsd  %xmm0,0x10(%rbp)
	test   %rbx,%rbx
	je     <_ZN9benchmark5State12ResumeTimingEv+0x68>
	mov    0x30(%rbx),%rax
	cmp    %rax,0x38(%rbx)
	jne    <_ZN9benchmark5State12ResumeTimingEv+0x80>
	add    $0x8,%rsp
	pop    %rbx
	pop    %rbp
	ret
	nop
	call   <_ZN9benchmark14ThreadCPUUsageEv>
	jmp    <_ZN9benchmark5State12ResumeTimingEv+0x4d>
	nopw   0x0(%rax,%rax,1)
	lea    0x18(%rbx),%rsi
	lea    0x50(%rbx),%rdi
	call   <_ZN9benchmark8internal17PerfCounterValues4ReadERKSt6vectorIiSaIiEE>
	mov    %rax,%rdx
	mov    0x8(%rbx),%rax
	sub    (%rbx),%rax
	sar    $0x2,%rax
	cmp    %rdx,%rax
	sete   %al
	and    %al,0x48(%rbx)
	add    $0x8,%rsp
	pop    %rbx
	pop    %rbp
	ret
	nopl   0x0(%rax,%rax,1)
	lea    0x61e71(%rip),%rbp        # <_ZGVZN9benchmark8internal18GetNullLogInstanceEvE8null_log>
	mov    %rbp,%rdi
	call   <__cxa_guard_acquire@plt>
	test   %eax,%eax
	je     <_ZN9benchmark5State12ResumeTimingEv+0x1c>
	movq   $0x0,0x61e5e(%rip)        # <_ZZN9benchmark8internal18GetNullLogInstanceEvE8null_log>
	mov    %rbp,%rdi
	call   <__cxa_guard_release@plt>
	jmp    <_ZN9benchmark5State12ResumeTimingEv+0x1c>
	nop

<_ZN9benchmark5State15SkipWithMessageERKNSt7__cxx1112basic_stringIcSt11char_traitsIcESaIcEEE>:
	endbr64
	push   %r12
	mov    %rsi,%r12
	push   %rbp
	push   %rbx
	mov    0xa0(%rdi),%rax
	mov    %rdi,%rbx
	movl   $0x1,0x1c(%rdi)
	lea    0xa0(%rax),%rbp
	mov    %rbp,%rdi
	call   <pthread_mutex_lock@plt>
	test   %eax,%eax
	jne    <_ZN9benchmark5State15SkipWithMessageERKNSt7__cxx1112basic_stringIcSt11char_traitsIcESaIcEEE+0x11b>
	mov    0xa0(%rbx),%rdi
	mov    0x68(%rdi),%eax
	test   %eax,%eax
	jne    <_ZN9benchmark5State15SkipWithMessageERKNSt7__cxx1112basic_stringIcSt11char_traitsIcESaIcEEE+0x5a>
	add    $0x48,%rdi
	mov    %r12,%rsi
	call   <_ZNSt7__cxx1112basic_stringIcSt11char_traitsIcESaIcEE9_M_assignERKS4_@plt>
	mov    0x1c(%rbx),%edx
	mov    0xa0(%rbx),%rax
	mov    %edx,0x68(%rax)
	mov    %rbp,%rdi
	call   <pthread_mutex_unlock@plt>
	movq   $0x0,(%rbx)
	mov    0x98(%rbx),%rbx
	cmpb   $0x0,0x1(%rbx)
	jne    <_ZN9benchmark5State15SkipWithMessageERKNSt7__cxx1112basic_stringIcSt11char_traitsIcESaIcEEE+0x80>
	pop    %rbx
	pop    %rbp
	pop    %r12
	ret
	nopl   0x0(%rax,%rax,1)
	movzbl 0x61dc1(%rip),%eax        # <_ZGVZN9benchmark8internal18GetNullLogInstanceEvE8null_log>
	test   %al,%al
	je     <_ZN9benchmark5State15SkipWithMessageERKNSt7__cxx1112basic_stringIcSt11char_traitsIcESaIcEEE+0xf0>
	movb   $0x0,0x1(%rbx)
	call   <_ZNSt6chrono3_V212steady_clock3nowEv@plt>
	pxor   %xmm0,%xmm0
	cmpb   $0x0,(%rbx)
	cvtsi2sd %rax,%xmm0
	divsd  0x522d8(%rip),%xmm0        # <_ZSt19piecewise_construct+0x9f>
	subsd  0x8(%rbx),%xmm0
	addsd  0x18(%rbx),%xmm0
	movsd  %xmm0,0x18(%rbx)
	jne    <_ZN9benchmark5State15SkipWithMessageERKNSt7__cxx1112basic_stringIcSt11char_traitsIcESaIcEEE+0xe0>
	call   <_ZN9benchmark14ThreadCPUUsageEv>
	subsd  0x10(%rbx),%xmm0
	pxor   %xmm1,%xmm1
	comisd %xmm0,%xmm1
	jbe    <_ZN9benchmark5State15SkipWithMessageERKNSt7__cxx1112basic_stringIcSt11char_traitsIcESaIcEEE+0xd1>
	movapd %xmm1,%xmm0
	addsd  0x20(%rbx),%xmm0
	movsd  %xmm0,0x20(%rbx)
	pop    %rbx
	pop    %rbp
	pop    %r12
	ret
	call   <_ZN9benchmark15ProcessCPUUsageEv>
	jmp    <_ZN9benchmark5State15SkipWithMessageERKNSt7__cxx1112basic_stringIcSt11char_traitsIcESaIcEEE+0xbe>
	nopw   0x0(%rax,%rax,1)
	lea    0x61d51(%rip),%rbp        # <_ZGVZN9benchmark8internal18GetNullLogInstanceEvE8null_log>
	mov    %rbp,%rdi
	call   <__cxa_guard_acquire@plt>
	test   %eax,%eax
	je     <_ZN9benchmark5State15SkipWithMessageERKNSt7__cxx1112basic_stringIcSt11char_traitsIcESaIcEEE+0x8b>
	movq   $0x0,0x61d42(%rip)        # <_ZZN9benchmark8internal18GetNullLogInstanceEvE8null_log>
	mov    %rbp,%rdi
	call   <__cxa_guard_release@plt>
	jmp    <_ZN9benchmark5State15SkipWithMessageERKNSt7__cxx1112basic_stringIcSt11char_traitsIcESaIcEEE+0x8b>
	mov    %eax,%edi
	call   <_ZSt20__throw_system_errori@plt>
	endbr64
	mov    %rax,%rbx
	jmp    <_ZN9benchmark5State15SkipWithMessageERKNSt7__cxx1112basic_stringIcSt11char_traitsIcESaIcEEE.cold>
	xchg   %ax,%ax

<_ZN9benchmark5State13SkipWithErrorERKNSt7__cxx1112basic_stringIcSt11char_traitsIcESaIcEEE>:
	endbr64
	push   %r12
	mov    %rsi,%r12
	push   %rbp
	push   %rbx
	mov    0xa0(%rdi),%rax
	mov    %rdi,%rbx
	movl   $0x2,0x1c(%rdi)
	lea    0xa0(%rax),%rbp
	mov    %rbp,%rdi
	call   <pthread_mutex_lock@plt>
	test   %eax,%eax
	jne    <_ZN9benchmark5State13SkipWithErrorERKNSt7__cxx1112basic_stringIcSt11char_traitsIcESaIcEEE+0x11b>
	mov    0xa0(%rbx),%rdi
	mov    0x68(%rdi),%eax
	test   %eax,%eax
	jne    <_ZN9benchmark5State13SkipWithErrorERKNSt7__cxx1112basic_stringIcSt11char_traitsIcESaIcEEE+0x5a>
	add    $0x48,%rdi
	mov    %r12,%rsi
	call   <_ZNSt7__cxx1112basic_stringIcSt11char_traitsIcESaIcEE9_M_assignERKS4_@plt>
	mov    0x1c(%rbx),%edx
	mov    0xa0(%rbx),%rax
	mov    %edx,0x68(%rax)
	mov    %rbp,%rdi
	call   <pthread_mutex_unlock@plt>
	movq   $0x0,(%rbx)
	mov    0x98(%rbx),%rbx
	cmpb   $0x0,0x1(%rbx)
	jne    <_ZN9benchmark5State13SkipWithErrorERKNSt7__cxx1112basic_stringIcSt11char_traitsIcESaIcEEE+0x80>
	pop    %rbx
	pop    %rbp
	pop    %r12
	ret
	nopl   0x0(%rax,%rax,1)
	movzbl 0x61c91(%rip),%eax        # <_ZGVZN9benchmark8internal18GetNullLogInstanceEvE8null_log>
	test   %al,%al
	je     <_ZN9benchmark5State13SkipWithErrorERKNSt7__cxx1112basic_stringIcSt11char_traitsIcESaIcEEE+0xf0>
	movb   $0x0,0x1(%rbx)
	call   <_ZNSt6chrono3_V212steady_clock3nowEv@plt>
	pxor   %xmm0,%xmm0
	cmpb   $0x0,(%rbx)
	cvtsi2sd %rax,%xmm0
	divsd  0x521a8(%rip),%xmm0        # <_ZSt19piecewise_construct+0x9f>
	subsd  0x8(%rbx),%xmm0
	addsd  0x18(%rbx),%xmm0
	movsd  %xmm0,0x18(%rbx)
	jne    <_ZN9benchmark5State13SkipWithErrorERKNSt7__cxx1112basic_stringIcSt11char_traitsIcESaIcEEE+0xe0>
	call   <_ZN9benchmark14ThreadCPUUsageEv>
	subsd  0x10(%rbx),%xmm0
	pxor   %xmm1,%xmm1
	comisd %xmm0,%xmm1
	jbe    <_ZN9benchmark5State13SkipWithErrorERKNSt7__cxx1112basic_stringIcSt11char_traitsIcESaIcEEE+0xd1>
	movapd %xmm1,%xmm0
	addsd  0x20(%rbx),%xmm0
	movsd  %xmm0,0x20(%rbx)
	pop    %rbx
	pop    %rbp
	pop    %r12
	ret
	call   <_ZN9benchmark15ProcessCPUUsageEv>
	jmp    <_ZN9benchmark5State13SkipWithErrorERKNSt7__cxx1112basic_stringIcSt11char_traitsIcESaIcEEE+0xbe>
	nopw   0x0(%rax,%rax,1)
	lea    0x61c21(%rip),%rbp        # <_ZGVZN9benchmark8internal18GetNullLogInstanceEvE8null_log>
	mov    %rbp,%rdi
	call   <__cxa_guard_acquire@plt>
	test   %eax,%eax
	je     <_ZN9benchmark5State13SkipWithErrorERKNSt7__cxx1112basic_stringIcSt11char_traitsIcESaIcEEE+0x8b>
	movq   $0x0,0x61c12(%rip)        # <_ZZN9benchmark8internal18GetNullLogInstanceEvE8null_log>
	mov    %rbp,%rdi
	call   <__cxa_guard_release@plt>
	jmp    <_ZN9benchmark5State13SkipWithErrorERKNSt7__cxx1112basic_stringIcSt11char_traitsIcESaIcEEE+0x8b>
	mov    %eax,%edi
	call   <_ZSt20__throw_system_errori@plt>
	endbr64
	mov    %rax,%rbx
	jmp    <_ZN9benchmark5State13SkipWithErrorERKNSt7__cxx1112basic_stringIcSt11char_traitsIcESaIcEEE.cold>
	xchg   %ax,%ax

<_ZN9benchmark5State16SetIterationTimeEd>:
	endbr64
	mov    0x98(%rdi),%rax
	addsd  0x28(%rax),%xmm0
	movsd  %xmm0,0x28(%rax)
	ret
	cs nopw 0x0(%rax,%rax,1)

<_ZN9benchmark5State8SetLabelERKNSt7__cxx1112basic_stringIcSt11char_traitsIcESaIcEEE>:
	endbr64
	push   %r12
	mov    %rsi,%r12
	push   %rbp
	mov    %rdi,%rbp
	push   %rbx
	mov    0xa0(%rdi),%rax
	lea    0xa0(%rax),%rbx
	mov    %rbx,%rdi
	call   <pthread_mutex_lock@plt>
	test   %eax,%eax
	jne    <_ZN9benchmark5State8SetLabelERKNSt7__cxx1112basic_stringIcSt11char_traitsIcESaIcEEE+0x47>
	mov    0xa0(%rbp),%rdi
	mov    %r12,%rsi
	add    $0x28,%rdi
	call   <_ZNSt7__cxx1112basic_stringIcSt11char_traitsIcESaIcEE9_M_assignERKS4_@plt>
	mov    %rbx,%rdi
	pop    %rbx
	pop    %rbp
	pop    %r12
	jmp    <pthread_mutex_unlock@plt>
	mov    %eax,%edi
	call   <_ZSt20__throw_system_errori@plt>
	endbr64
	mov    %rax,%rbp
	jmp    <_ZN9benchmark5State8SetLabelERKNSt7__cxx1112basic_stringIcSt11char_traitsIcESaIcEEE.cold>
	nopw   0x0(%rax,%rax,1)

<_ZN9benchmark8internal6IsZeroEd>:
	endbr64
	andpd  0x52144(%rip),%xmm0        # <_ZStL19piecewise_construct+0xb>
	movsd  0x52094(%rip),%xmm1        # <_ZSt19piecewise_construct+0xa7>
	comisd %xmm0,%xmm1
	seta   %al
	ret
	nopl   0x0(%rax)

<_ZN9benchmark8internal16GetOutputOptionsEb>:
	endbr64
	test   %dil,%dil
	je     <_ZN9benchmark8internal16GetOutputOptionsEb+0x28>
	cmpb   $0x0,0x619f0(%rip)        # <_ZN9benchmark32FLAGS_benchmark_counters_tabularE>
	mov    $0x2,%eax
	je     <_ZN9benchmark8internal16GetOutputOptionsEb+0x20>
	ret
	nopl   0x0(%rax,%rax,1)
	and    $0xfffffffd,%eax
	ret
	nopl   0x0(%rax)
	push   %rbx
	lea    0x619f0(%rip),%rbx        # <_ZN9benchmark21FLAGS_benchmark_colorB5cxx11E>
	lea    0x513f9(%rip),%rsi        # <_IO_stdin_used+0x1310>
	mov    %rbx,%rdi
	call   <_ZNKSt7__cxx1112basic_stringIcSt11char_traitsIcESaIcEE7compareEPKc@plt>
	test   %eax,%eax
	jne    <_ZN9benchmark8internal16GetOutputOptionsEb+0x60>
	call   <_ZN9benchmark15IsColorTerminalEv>
	movzbl %al,%eax
	add    $0x2,%eax
	cmpb   $0x0,0x619ab(%rip)        # <_ZN9benchmark32FLAGS_benchmark_counters_tabularE>
	jne    <_ZN9benchmark8internal16GetOutputOptionsEb+0x5a>
	and    $0xfffffffd,%eax
	pop    %rbx
	ret
	nopl   0x0(%rax)
	mov    %rbx,%rdi
	call   <_ZN9benchmark17IsTruthyFlagValueERKNSt7__cxx1112basic_stringIcSt11char_traitsIcESaIcEEE>
	jmp    <_ZN9benchmark8internal16GetOutputOptionsEb+0x48>
	nopw   0x0(%rax,%rax,1)

<_ZN9benchmark28CreateDefaultDisplayReporterEv>:
	endbr64
	push   %rbp
	push   %rbx
	sub    $0x18,%rsp
	mov    %fs:0x28,%rax
	mov    %rax,0x8(%rsp)
	xor    %eax,%eax
	movzbl 0x61a87(%rip),%eax        # <_ZGVZN9benchmark28CreateDefaultDisplayReporterEvE24default_display_reporter>
	test   %al,%al
	je     <_ZN9benchmark28CreateDefaultDisplayReporterEv+0x50>
	mov    0x61a84(%rip),%rax        # <_ZZN9benchmark28CreateDefaultDisplayReporterEvE24default_display_reporter>
	mov    0x8(%rsp),%rdx
	sub    %fs:0x28,%rdx
	jne    <_ZN9benchmark28CreateDefaultDisplayReporterEv+0xd2>
	add    $0x18,%rsp
	pop    %rbx
	pop    %rbp
	ret
	nopw   0x0(%rax,%rax,1)
	lea    0x61a51(%rip),%rbx        # <_ZGVZN9benchmark28CreateDefaultDisplayReporterEvE24default_display_reporter>
	mov    %rbx,%rdi
	call   <__cxa_guard_acquire@plt>
	test   %eax,%eax
	je     <_ZN9benchmark28CreateDefaultDisplayReporterEv+0x25>
	lea    0x61946(%rip),%rbp        # <_ZN9benchmark21FLAGS_benchmark_colorB5cxx11E>
	lea    0x5134f(%rip),%rsi        # <_IO_stdin_used+0x1310>
	mov    %rbp,%rdi
	call   <_ZNKSt7__cxx1112basic_stringIcSt11char_traitsIcESaIcEE7compareEPKc@plt>
	test   %eax,%eax
	jne    <_ZN9benchmark28CreateDefaultDisplayReporterEv+0xc8>
	call   <_ZN9benchmark15IsColorTerminalEv>
	movzbl %al,%edx
	add    $0x2,%edx
	cmpb   $0x0,0x61901(%rip)        # <_ZN9benchmark32FLAGS_benchmark_counters_tabularE>
	je     <_ZN9benchmark28CreateDefaultDisplayReporterEv+0xc0>
	mov    %rsp,%rdi
	lea    0x61975(%rip),%rsi        # <_ZN9benchmark22FLAGS_benchmark_formatB5cxx11E>
	call   <_ZN9benchmark8internal12_GLOBAL__N_114CreateReporterERKNSt7__cxx1112basic_stringIcSt11char_traitsIcESaIcEEENS_15ConsoleReporter13OutputOptionsE>
	mov    (%rsp),%rax
	mov    %rbx,%rdi
	mov    %rax,0x61a02(%rip)        # <_ZZN9benchmark28CreateDefaultDisplayReporterEvE24default_display_reporter>
	call   <__cxa_guard_release@plt>
	jmp    <_ZN9benchmark28CreateDefaultDisplayReporterEv+0x25>
	nopl   0x0(%rax,%rax,1)
	and    $0xfffffffd,%edx
	jmp    <_ZN9benchmark28CreateDefaultDisplayReporterEv+0x91>
	nopl   (%rax)
	mov    %rbp,%rdi
	call   <_ZN9benchmark17IsTruthyFlagValueERKNSt7__cxx1112basic_stringIcSt11char_traitsIcESaIcEEE>
	jmp    <_ZN9benchmark28CreateDefaultDisplayReporterEv+0x82>
	call   <__stack_chk_fail@plt>
	endbr64
	mov    %rax,%rbp
	jmp    <_ZN9benchmark28CreateDefaultDisplayReporterEv.cold>
	data16 cs nopw 0x0(%rax,%rax,1)
	xchg   %ax,%ax

<_ZN9benchmark18GetDefaultTimeUnitEv>:
	endbr64
	mov    0x619aa(%rip),%eax        # <_ZN9benchmark12_GLOBAL__N_117default_time_unitE>
	ret
	nopl   0x0(%rax,%rax,1)

<_ZN9benchmark18SetDefaultTimeUnitENS_8TimeUnitE>:
	endbr64
	mov    %edi,0x6199a(%rip)        # <_ZN9benchmark12_GLOBAL__N_117default_time_unitE>
	ret
	nopl   0x0(%rax,%rax,1)

<_ZN9benchmark18GetBenchmarkFilterB5cxx11Ev>:
	endbr64
	push   %r12
	push   %rbp
	push   %rbx
	mov    %rdi,%rbx
	add    $0x10,%rdi
	sub    $0x10,%rsp
	mov    0x6194e(%rip),%rbp        # <_ZN9benchmark22FLAGS_benchmark_filterB5cxx11E+0x8>
	mov    %fs:0x28,%rax
	mov    %rax,0x8(%rsp)
	xor    %eax,%eax
	mov    %rdi,(%rbx)
	mov    0x6192c(%rip),%r12        # <_ZN9benchmark22FLAGS_benchmark_filterB5cxx11E>
	mov    %rbp,(%rsp)
	cmp    $0xf,%rbp
	ja     <_ZN9benchmark18GetBenchmarkFilterB5cxx11Ev+0x80>
	cmp    $0x1,%rbp
	jne    <_ZN9benchmark18GetBenchmarkFilterB5cxx11Ev+0x70>
	movzbl (%r12),%eax
	mov    %al,0x10(%rbx)
	mov    %rbp,0x8(%rbx)
	movb   $0x0,(%rdi,%rbp,1)
	mov    0x8(%rsp),%rax
	sub    %fs:0x28,%rax
	jne    <_ZN9benchmark18GetBenchmarkFilterB5cxx11Ev+0xaf>
	add    $0x10,%rsp
	mov    %rbx,%rax
	pop    %rbx
	pop    %rbp
	pop    %r12
	ret
	test   %rbp,%rbp
	je     <_ZN9benchmark18GetBenchmarkFilterB5cxx11Ev+0x4c>
	jmp    <_ZN9benchmark18GetBenchmarkFilterB5cxx11Ev+0x9b>
	nopw   0x0(%rax,%rax,1)
	mov    %rbx,%rdi
	mov    %rsp,%rsi
	xor    %edx,%edx
	call   <_ZNSt7__cxx1112basic_stringIcSt11char_traitsIcESaIcEE9_M_createERmm@plt>
	mov    %rax,(%rbx)
	mov    %rax,%rdi
	mov    (%rsp),%rax
	mov    %rax,0x10(%rbx)
	mov    %rbp,%rdx
	mov    %r12,%rsi
	call   <memcpy@plt>
	mov    (%rsp),%rbp
	mov    (%rbx),%rdi
	jmp    <_ZN9benchmark18GetBenchmarkFilterB5cxx11Ev+0x4c>
	call   <__stack_chk_fail@plt>
	data16 cs nopw 0x0(%rax,%rax,1)
	nop

<_ZN9benchmark18SetBenchmarkFilterENSt7__cxx1112basic_stringIcSt11char_traitsIcESaIcEEE>:
	endbr64
	mov    0x61895(%rip),%rdx        # <_ZN9benchmark22FLAGS_benchmark_filterB5cxx11E>
	lea    0x6189e(%rip),%rcx        # <_ZN9benchmark22FLAGS_benchmark_filterB5cxx11E+0x10>
	mov    %rdi,%rax
	mov    %rdx,%rdi
	cmp    %rcx,%rdx
	je     <_ZN9benchmark18SetBenchmarkFilterENSt7__cxx1112basic_stringIcSt11char_traitsIcESaIcEEE+0x60>
	mov    (%rax),%rsi
	lea    0x10(%rax),%rcx
	cmp    %rcx,%rsi
	je     <_ZN9benchmark18SetBenchmarkFilterENSt7__cxx1112basic_stringIcSt11char_traitsIcESaIcEEE+0x98>
	movdqu 0x8(%rax),%xmm0
	mov    0x6187b(%rip),%rdi        # <_ZN9benchmark22FLAGS_benchmark_filterB5cxx11E+0x10>
	mov    %rsi,0x61864(%rip)        # <_ZN9benchmark22FLAGS_benchmark_filterB5cxx11E>
	movups %xmm0,0x61865(%rip)        # <_ZN9benchmark22FLAGS_benchmark_filterB5cxx11E+0x8>
	test   %rdx,%rdx
	je     <_ZN9benchmark18SetBenchmarkFilterENSt7__cxx1112basic_stringIcSt11char_traitsIcESaIcEEE+0x110>
	mov    %rdx,(%rax)
	mov    %rdi,0x10(%rax)
	movq   $0x0,0x8(%rax)
	movb   $0x0,(%rdx)
	ret
	nop
	mov    (%rax),%rcx
	lea    0x10(%rax),%rsi
	cmp    %rcx,%rsi
	je     <_ZN9benchmark18SetBenchmarkFilterENSt7__cxx1112basic_stringIcSt11char_traitsIcESaIcEEE+0x98>
	movdqu 0x8(%rax),%xmm1
	mov    %rcx,0x61828(%rip)        # <_ZN9benchmark22FLAGS_benchmark_filterB5cxx11E>
	mov    %rsi,%rdx
	movups %xmm1,0x61826(%rip)        # <_ZN9benchmark22FLAGS_benchmark_filterB5cxx11E+0x8>
	mov    %rdx,(%rax)
	movq   $0x0,0x8(%rax)
	movb   $0x0,(%rdx)
	ret
	nopl   0x0(%rax)
	mov    0x8(%rax),%rsi
	lea    0x617fd(%rip),%r9        # <_ZN9benchmark22FLAGS_benchmark_filterB5cxx11E>
	mov    %rsi,%r8
	cmp    %r9,%rax
	je     <_ZN9benchmark18SetBenchmarkFilterENSt7__cxx1112basic_stringIcSt11char_traitsIcESaIcEEE+0x188>
	test   %rsi,%rsi
	je     <_ZN9benchmark18SetBenchmarkFilterENSt7__cxx1112basic_stringIcSt11char_traitsIcESaIcEEE+0xf3>
	cmp    $0x1,%rsi
	je     <_ZN9benchmark18SetBenchmarkFilterENSt7__cxx1112basic_stringIcSt11char_traitsIcESaIcEEE+0x170>
	mov    %esi,%edx
	cmp    $0x8,%esi
	jae    <_ZN9benchmark18SetBenchmarkFilterENSt7__cxx1112basic_stringIcSt11char_traitsIcESaIcEEE+0x120>
	test   $0x4,%sil
	jne    <_ZN9benchmark18SetBenchmarkFilterENSt7__cxx1112basic_stringIcSt11char_traitsIcESaIcEEE+0x190>
	test   %edx,%edx
	je     <_ZN9benchmark18SetBenchmarkFilterENSt7__cxx1112basic_stringIcSt11char_traitsIcESaIcEEE+0xed>
	movzbl (%rcx),%esi
	mov    %sil,(%rdi)
	test   $0x2,%dl
	jne    <_ZN9benchmark18SetBenchmarkFilterENSt7__cxx1112basic_stringIcSt11char_traitsIcESaIcEEE+0x1ac>
	mov    0x617b7(%rip),%rdi        # <_ZN9benchmark22FLAGS_benchmark_filterB5cxx11E>
	mov    0x8(%rax),%r8
	mov    %r8,%rsi
	mov    %rdi,%rdx
	mov    %rsi,0x617ae(%rip)        # <_ZN9benchmark22FLAGS_benchmark_filterB5cxx11E+0x8>
	movb   $0x0,(%rdx,%rsi,1)
	mov    (%rax),%rdx
	movq   $0x0,0x8(%rax)
	movb   $0x0,(%rdx)
	ret
	nopl   (%rax)
	mov    %rcx,%rdx
	jmp    <_ZN9benchmark18SetBenchmarkFilterENSt7__cxx1112basic_stringIcSt11char_traitsIcESaIcEEE+0x82>
	nopl   0x0(%rax,%rax,1)
	mov    (%rcx),%rdx
	lea    0x8(%rdi),%r9
	and    $0xfffffffffffffff8,%r9
	mov    %rdx,(%rdi)
	mov    %esi,%edx
	mov    -0x8(%rcx,%rdx,1),%rsi
	mov    %rsi,-0x8(%rdi,%rdx,1)
	sub    %r9,%rdi
	mov    %rdi,%rdx
	sub    %rdi,%rcx
	add    %r8d,%edx
	and    $0xfffffff8,%edx
	cmp    $0x8,%edx
	jb     <_ZN9benchmark18SetBenchmarkFilterENSt7__cxx1112basic_stringIcSt11char_traitsIcESaIcEEE+0xe2>
	and    $0xfffffff8,%edx
	xor    %esi,%esi
	mov    %esi,%edi
	add    $0x8,%esi
	mov    (%rcx,%rdi,1),%r8
	mov    %r8,(%r9,%rdi,1)
	cmp    %edx,%esi
	jb     <_ZN9benchmark18SetBenchmarkFilterENSt7__cxx1112basic_stringIcSt11char_traitsIcESaIcEEE+0x153>
	jmp    <_ZN9benchmark18SetBenchmarkFilterENSt7__cxx1112basic_stringIcSt11char_traitsIcESaIcEEE+0xe2>
	nopl   0x0(%rax)
	movzbl (%rcx),%edx
	mov    %dl,(%rdi)
	mov    0x8(%rax),%rsi
	mov    0x61720(%rip),%rdx        # <_ZN9benchmark22FLAGS_benchmark_filterB5cxx11E>
	jmp    <_ZN9benchmark18SetBenchmarkFilterENSt7__cxx1112basic_stringIcSt11char_traitsIcESaIcEEE+0xf3>
	nopl   (%rax)
	mov    %rcx,%rdx
	jmp    <_ZN9benchmark18SetBenchmarkFilterENSt7__cxx1112basic_stringIcSt11char_traitsIcESaIcEEE+0x53>
	mov    (%rcx),%esi
	mov    %esi,(%rdi)
	mov    -0x4(%rcx,%rdx,1),%ecx
	mov    %ecx,-0x4(%rdi,%rdx,1)
	mov    0x616fd(%rip),%rdi        # <_ZN9benchmark22FLAGS_benchmark_filterB5cxx11E>
	mov    0x8(%rax),%r8
	jmp    <_ZN9benchmark18SetBenchmarkFilterENSt7__cxx1112basic_stringIcSt11char_traitsIcESaIcEEE+0xed>
	movzwl -0x2(%rcx,%rdx,1),%ecx
	mov    %cx,-0x2(%rdi,%rdx,1)
	mov    0x616e3(%rip),%rdi        # <_ZN9benchmark22FLAGS_benchmark_filterB5cxx11E>
	mov    0x8(%rax),%r8
	jmp    <_ZN9benchmark18SetBenchmarkFilterENSt7__cxx1112basic_stringIcSt11char_traitsIcESaIcEEE+0xed>
	cs nopw 0x0(%rax,%rax,1)

<_ZN9benchmark21GetBenchmarkVerbosityEv>:
	endbr64
	mov    0x61556(%rip),%eax        # <_ZN9benchmark7FLAGS_vE>
	ret
	nopl   0x0(%rax,%rax,1)

<_ZN9benchmark21RegisterMemoryManagerEPNS_13MemoryManagerE>:
	endbr64
	mov    %rdi,0x617e5(%rip)        # <_ZN9benchmark8internal14memory_managerE>
	ret
	nopl   0x0(%rax)

<_ZN9benchmark23RegisterProfilerManagerEPNS_15ProfilerManagerE>:
	endbr64
	mov    %rdi,0x617cd(%rip)        # <_ZN9benchmark8internal16profiler_managerE>
	ret
	nopl   0x0(%rax)

<_ZN9benchmark8internal17PrintUsageAndExitEv>:
	endbr64
	push   %rax
	pop    %rax
	sub    $0x8,%rsp
	call   *0x61510(%rip)        # <_ZN9benchmark8internal12HelperPrintfE>
	xor    %edi,%edi
	call   <exit@plt>
	nopw   0x0(%rax,%rax,1)

<_ZN9benchmark8internal26SetDefaultTimeUnitFromFlagERKNSt7__cxx1112basic_stringIcSt11char_traitsIcESaIcEEE>:
	endbr64
	push   %rbx
	lea    0x518a4(%rip),%rsi        # <_IO_stdin_used+0x1bf0>
	mov    %rdi,%rbx
	call   <_ZNKSt7__cxx1112basic_stringIcSt11char_traitsIcESaIcEE7compareEPKc@plt>
	test   %eax,%eax
	jne    <_ZN9benchmark8internal26SetDefaultTimeUnitFromFlagERKNSt7__cxx1112basic_stringIcSt11char_traitsIcESaIcEEE+0x28>
	movl   $0x3,0x61692(%rip)        # <_ZN9benchmark12_GLOBAL__N_117default_time_unitE>
	pop    %rbx
	ret
	nopl   0x0(%rax)
	lea    0x50fa6(%rip),%rsi        # <_IO_stdin_used+0x1315>
	mov    %rbx,%rdi
	call   <_ZNKSt7__cxx1112basic_stringIcSt11char_traitsIcESaIcEE7compareEPKc@plt>
	test   %eax,%eax
	jne    <_ZN9benchmark8internal26SetDefaultTimeUnitFromFlagERKNSt7__cxx1112basic_stringIcSt11char_traitsIcESaIcEEE+0x50>
	movl   $0x2,0x6166f(%rip)        # <_ZN9benchmark12_GLOBAL__N_117default_time_unitE>
	pop    %rbx
	ret
	nopw   0x0(%rax,%rax,1)
	lea    0x50f81(%rip),%rsi        # <_IO_stdin_used+0x1318>
	mov    %rbx,%rdi
	call   <_ZNKSt7__cxx1112basic_stringIcSt11char_traitsIcESaIcEE7compareEPKc@plt>
	test   %eax,%eax
	jne    <_ZN9benchmark8internal26SetDefaultTimeUnitFromFlagERKNSt7__cxx1112basic_stringIcSt11char_traitsIcESaIcEEE+0x70>
	movl   $0x1,0x61647(%rip)        # <_ZN9benchmark12_GLOBAL__N_117default_time_unitE>
	pop    %rbx
	ret
	nop
	lea    0x516a1(%rip),%rsi        # <_IO_stdin_used+0x1a58>
	mov    %rbx,%rdi
	call   <_ZNKSt7__cxx1112basic_stringIcSt11char_traitsIcESaIcEE7compareEPKc@plt>
	test   %eax,%eax
	je     <_ZN9benchmark8internal26SetDefaultTimeUnitFromFlagERKNSt7__cxx1112basic_stringIcSt11char_traitsIcESaIcEEE+0x90>
	cmpq   $0x0,0x8(%rbx)
	je     <_ZN9benchmark8internal26SetDefaultTimeUnitFromFlagERKNSt7__cxx1112basic_stringIcSt11char_traitsIcESaIcEEE+0x22>
	call   <_ZN9benchmark8internal17PrintUsageAndExitEv>
	nop
	movl   $0x0,0x6161a(%rip)        # <_ZN9benchmark12_GLOBAL__N_117default_time_unitE>
	pop    %rbx
	ret
	nopl   0x0(%rax)

<_ZN9benchmark8internal17InitializeStreamsEv>:
	endbr64
	movzbl 0x615fd(%rip),%eax        # <_ZGVZN9benchmark8internal17InitializeStreamsEvE4init>
	test   %al,%al
	je     <_ZN9benchmark8internal17InitializeStreamsEv+0x18>
	xor    %eax,%eax
	ret
	nopw   0x0(%rax,%rax,1)
	push   %rbp
	push   %rbx
	lea    0x615e7(%rip),%rbx        # <_ZGVZN9benchmark8internal17InitializeStreamsEvE4init>
	mov    %rbx,%rdi
	sub    $0x8,%rsp
	call   <__cxa_guard_acquire@plt>
	test   %eax,%eax
	jne    <_ZN9benchmark8internal17InitializeStreamsEv+0x40>
	add    $0x8,%rsp
	xor    %eax,%eax
	pop    %rbx
	pop    %rbp
	ret
	nopw   0x0(%rax,%rax,1)
	lea    0x615c9(%rip),%rbp        # <_ZZN9benchmark8internal17InitializeStreamsEvE4init>
	mov    %rbp,%rdi
	call   <_ZNSt8ios_base4InitC1Ev@plt>
	mov    0x60bb2(%rip),%rdi        # <_ZNSt8ios_base4InitD1Ev@GLIBCXX_3.4>
	mov    %rbp,%rsi
	lea    0x60bc8(%rip),%rdx        # <__dso_handle>
	call   <__cxa_atexit@plt>
	mov    %rbx,%rdi
	call   <__cxa_guard_release@plt>
	add    $0x8,%rsp
	xor    %eax,%eax
	pop    %rbx
	pop    %rbp
	ret
	endbr64
	mov    %rax,%rbp
	jmp    <_ZN9benchmark8internal17InitializeStreamsEv.cold>
	data16 cs nopw 0x0(%rax,%rax,1)
	nopl   (%rax)

<_ZN9benchmark19GetBenchmarkVersionB5cxx11Ev>:
	endbr64
	push   %rbx
	xor    %edx,%edx
	mov    %rdi,%rbx
	sub    $0x10,%rsp
	mov    %fs:0x28,%rax
	mov    %rax,0x8(%rsp)
	xor    %eax,%eax
	lea    0x10(%rdi),%rax
	mov    %rsp,%rsi
	movq   $0x13,(%rsp)
	mov    %rax,(%rdi)
	call   <_ZNSt7__cxx1112basic_stringIcSt11char_traitsIcESaIcEE9_M_createERmm@plt>
	mov    (%rsp),%rdx
	movdqa 0x51b6f(%rip),%xmm0        # <_ZStL19piecewise_construct+0x1b>
	mov    %rax,(%rbx)
	mov    %rdx,0x10(%rbx)
	movups %xmm0,(%rax)
	movl   $0x63653530,0xf(%rax)
	mov    (%rbx),%rax
	mov    %rdx,0x8(%rbx)
	movb   $0x0,(%rax,%rdx,1)
	mov    0x8(%rsp),%rax
	sub    %fs:0x28,%rax
	jne    <_ZN9benchmark19GetBenchmarkVersionB5cxx11Ev+0x76>
	add    $0x10,%rsp
	mov    %rbx,%rax
	pop    %rbx
	ret
	call   <__stack_chk_fail@plt>
	nopl   0x0(%rax,%rax,1)

<_ZN9benchmark16PrintDefaultHelpEv>:
	endbr64
	mov    0x60f45(%rip),%rdi        # <stdout@GLIBC_2.2.5>
	lea    0x4fc06(%rip),%rdx        # <_IO_stdin_used+0x108>
	mov    $0x2,%esi
	xor    %eax,%eax
	jmp    <__fprintf_chk@plt>
	xchg   %ax,%ax

<_ZN9benchmark8ShutdownEv>:
	endbr64
	push   %r12
	mov    0x6132b(%rip),%r12        # <_ZN9benchmark8internal14global_contextB5cxx11E>
	push   %rbp
	push   %rbx
	test   %r12,%r12
	je     <_ZN9benchmark8ShutdownEv+0x88>
	mov    0x10(%r12),%rbp
	test   %rbp,%rbp
	je     <_ZN9benchmark8ShutdownEv+0x74>
	mov    0x18(%rbp),%rdi
	mov    %rbp,%rbx
	call   <_ZNSt8_Rb_treeINSt7__cxx1112basic_stringIcSt11char_traitsIcESaIcEEESt4pairIKS5_S5_ESt10_Select1stIS8_ESt4lessIS5_ESaIS8_EE8_M_eraseEPSt13_Rb_tree_nodeIS8_E.isra.0>
	mov    0x40(%rbx),%rdi
	lea    0x50(%rbx),%rax
	mov    0x10(%rbp),%rbp
	cmp    %rax,%rdi
	je     <_ZN9benchmark8ShutdownEv+0x48>
	mov    0x50(%rbx),%rax
	lea    0x1(%rax),%rsi
	call   <_ZdlPvm@plt>
	mov    0x20(%rbx),%rdi
	lea    0x30(%rbx),%rax
	cmp    %rax,%rdi
	je     <_ZN9benchmark8ShutdownEv+0x62>
	mov    0x30(%rbx),%rax
	lea    0x1(%rax),%rsi
	call   <_ZdlPvm@plt>
	mov    $0x60,%esi
	mov    %rbx,%rdi
	call   <_ZdlPvm@plt>
	test   %rbp,%rbp
	jne    <_ZN9benchmark8ShutdownEv+0x1e>
	pop    %rbx
	mov    %r12,%rdi
	pop    %rbp
	mov    $0x30,%esi
	pop    %r12
	jmp    <_ZdlPvm@plt>
	nopl   (%rax)
	pop    %rbx
	pop    %rbp
	pop    %r12
	ret
	nopl   (%rax)

<_ZN9benchmark27ReportUnrecognizedArgumentsEiPPc>:
	endbr64
	push   %r14
	mov    %edi,%r14d
	push   %r13
	push   %r12
	push   %rbp
	push   %rbx
	cmp    $0x1,%edi
	jle    <_ZN9benchmark27ReportUnrecognizedArgumentsEiPPc+0x56>
	lea    -0x2(%rdi),%eax
	mov    %rsi,%rbp
	lea    0x8(%rsi),%rbx
	lea    0x10(%rsi,%rax,8),%r13
	lea    0x4fed6(%rip),%r12        # <_IO_stdin_used+0x4a0>
	nopw   0x0(%rax,%rax,1)
	mov    (%rbx),%r8
	mov    0x0(%rbp),%rcx
	mov    %r12,%rdx
	mov    $0x2,%esi
	mov    0x610fa(%rip),%rdi        # <stderr@GLIBC_2.2.5>
	xor    %eax,%eax
	add    $0x8,%rbx
	call   <__fprintf_chk@plt>
	cmp    %r13,%rbx
	jne    <_ZN9benchmark27ReportUnrecognizedArgumentsEiPPc+0x30>
	cmp    $0x1,%r14d
	pop    %rbx
	pop    %rbp
	setg   %al
	pop    %r12
	pop    %r13
	pop    %r14
	ret
	cs nopw 0x0(%rax,%rax,1)

<_ZN9benchmark5State16StartKeepRunningEv>:
	endbr64
	push   %r14
	push   %r13
	push   %r12
	push   %rbp
	push   %rbx
	mov    %rdi,%rbx
	sub    $0x20,%rsp
	mov    %fs:0x28,%rax
	mov    %rax,0x18(%rsp)
	xor    %eax,%eax
	movzbl 0x613ee(%rip),%eax        # <_ZGVZN9benchmark8internal18GetNullLogInstanceEvE8null_log>
	test   %al,%al
	je     <_ZN9benchmark5State16StartKeepRunningEv+0x150>
	mov    0x1c(%rbx),%edx
	movb   $0x1,0x18(%rbx)
	xor    %eax,%eax
	test   %edx,%edx
	jne    <_ZN9benchmark5State16StartKeepRunningEv+0x43>
	mov    0x10(%rbx),%rax
	mov    0xb0(%rbx),%rdi
	mov    %rax,(%rbx)
	test   %rdi,%rdi
	jne    <_ZN9benchmark5State16StartKeepRunningEv+0x1f0>
	mov    0xa0(%rbx),%rbp
	movb   $0x0,0x8(%rsp)
	lea    0xd0(%rbp),%rdi
	mov    %rdi,(%rsp)
	call   <pthread_mutex_lock@plt>
	test   %eax,%eax
	jne    <_ZN9benchmark5State16StartKeepRunningEv+0x1fb>
	movb   $0x1,0x8(%rsp)
	movzbl 0x61392(%rip),%eax        # <_ZGVZN9benchmark8internal18GetNullLogInstanceEvE8null_log>
	test   %al,%al
	je     <_ZN9benchmark5State16StartKeepRunningEv+0x180>
	mov    0x130(%rbp),%eax
	mov    0x12c(%rbp),%r12d
	lea    0xf8(%rbp),%r13
	add    $0x1,%eax
	mov    %eax,0x130(%rbp)
	cmp    0x128(%rbp),%eax
	jge    <_ZN9benchmark5State16StartKeepRunningEv+0xfb>
	mov    %r12d,%eax
	mov    0x128(%rbp),%edx
	cmp    %edx,0x130(%rbp)
	je     <_ZN9benchmark5State16StartKeepRunningEv+0xf8>
	mov    %rsp,%r14
	mov    %r13,%rdi
	mov    %r14,%rsi
	call   <_ZNSt18condition_variable4waitERSt11unique_lockISt5mutexE@plt>
	mov    0x12c(%rbp),%eax
	cmp    %eax,%r12d
	jge    <_ZN9benchmark5State16StartKeepRunningEv+0xb6>
	cmpb   $0x0,0x8(%rsp)
	je     <_ZN9benchmark5State16StartKeepRunningEv+0x123>
	mov    (%rsp),%rdi
	test   %rdi,%rdi
	je     <_ZN9benchmark5State16StartKeepRunningEv+0x123>
	call   <pthread_mutex_unlock@plt>
	jmp    <_ZN9benchmark5State16StartKeepRunningEv+0x123>
	nopl   0x0(%rax)
	mov    %eax,%r12d
	movl   $0x0,0x130(%rbp)
	add    $0x1,%r12d
	cmpb   $0x0,0x8(%rsp)
	mov    %r12d,0x12c(%rbp)
	jne    <_ZN9benchmark5State16StartKeepRunningEv+0x1d8>
	mov    %r13,%rdi
	call   <_ZNSt18condition_variable10notify_allEv@plt>
	mov    0x1c(%rbx),%eax
	test   %eax,%eax
	je     <_ZN9benchmark5State16StartKeepRunningEv+0x1b0>
	mov    0x18(%rsp),%rax
	sub    %fs:0x28,%rax
	jne    <_ZN9benchmark5State16StartKeepRunningEv+0x202>
	add    $0x20,%rsp
	pop    %rbx
	pop    %rbp
	pop    %r12
	pop    %r13
	pop    %r14
	ret
	nop
	lea    0x612c1(%rip),%rbp        # <_ZGVZN9benchmark8internal18GetNullLogInstanceEvE8null_log>
	mov    %rbp,%rdi
	call   <__cxa_guard_acquire@plt>
	test   %eax,%eax
	je     <_ZN9benchmark5State16StartKeepRunningEv+0x32>
	movq   $0x0,0x612ae(%rip)        # <_ZZN9benchmark8internal18GetNullLogInstanceEvE8null_log>
	mov    %rbp,%rdi
	call   <__cxa_guard_release@plt>
	jmp    <_ZN9benchmark5State16StartKeepRunningEv+0x32>
	nop
	lea    0x61291(%rip),%r12        # <_ZGVZN9benchmark8internal18GetNullLogInstanceEvE8null_log>
	mov    %r12,%rdi
	call   <__cxa_guard_acquire@plt>
	test   %eax,%eax
	je     <_ZN9benchmark5State16StartKeepRunningEv+0x8e>
	movq   $0x0,0x6127e(%rip)        # <_ZZN9benchmark8internal18GetNullLogInstanceEvE8null_log>
	mov    %r12,%rdi
	call   <__cxa_guard_release@plt>
	jmp    <_ZN9benchmark5State16StartKeepRunningEv+0x8e>
	nop
	mov    0x18(%rsp),%rax
	sub    %fs:0x28,%rax
	jne    <_ZN9benchmark5State16StartKeepRunningEv+0x202>
	add    $0x20,%rsp
	mov    %rbx,%rdi
	pop    %rbx
	pop    %rbp
	pop    %r12
	pop    %r13
	pop    %r14
	jmp    <_ZN9benchmark5State12ResumeTimingEv>
	nopl   0x0(%rax)
	mov    (%rsp),%rdi
	test   %rdi,%rdi
	je     <_ZN9benchmark5State16StartKeepRunningEv+0x11b>
	call   <pthread_mutex_unlock@plt>
	jmp    <_ZN9benchmark5State16StartKeepRunningEv+0x11b>
	nop
	mov    (%rdi),%rax
	call   *0x10(%rax)
	jmp    <_ZN9benchmark5State16StartKeepRunningEv+0x56>
	mov    %eax,%edi
	call   <_ZSt20__throw_system_errori@plt>
	call   <__stack_chk_fail@plt>
	endbr64
	mov    %rax,%rbx
	jmp    <_ZN9benchmark5State16StartKeepRunningEv.cold>
	data16 cs nopw 0x0(%rax,%rax,1)
	xchg   %ax,%ax

<_ZN9benchmark16AddCustomContextERKNSt7__cxx1112basic_stringIcSt11char_traitsIcESaIcEEES7_>:
	endbr64
	push   %r12
	push   %rbp
	mov    %rdi,%rbp
	mov    0x61007(%rip),%rdi        # <_ZN9benchmark8internal14global_contextB5cxx11E>
	push   %rbx
	mov    %rsi,%rbx
	test   %rdi,%rdi
	je     <_ZN9benchmark16AddCustomContextERKNSt7__cxx1112basic_stringIcSt11char_traitsIcESaIcEEES7_+0xb8>
	mov    %rbx,%rdx
	mov    %rbp,%rsi
	call   <_ZNSt8_Rb_treeINSt7__cxx1112basic_stringIcSt11char_traitsIcESaIcEEESt4pairIKS5_S5_ESt10_Select1stIS8_ESt4lessIS5_ESaIS8_EE17_M_emplace_uniqueIJRS7_SG_EEES6_ISt17_Rb_tree_iteratorIS8_EbEDpOT_>
	test   %dl,%dl
	je     <_ZN9benchmark16AddCustomContextERKNSt7__cxx1112basic_stringIcSt11char_traitsIcESaIcEEES7_+0x38>
	pop    %rbx
	pop    %rbp
	pop    %r12
	ret
	nopw   0x0(%rax,%rax,1)
	lea    0x60eb1(%rip),%r12        # <_ZSt4cerr@GLIBCXX_3.4>
	mov    $0x1e,%edx
	lea    0x4fc55(%rip),%rsi        # <_IO_stdin_used+0x4d0>
	mov    %r12,%rdi
	call   <_ZSt16__ostream_insertIcSt11char_traitsIcEERSt13basic_ostreamIT_T0_ES6_PKS3_l@plt>
	mov    0x8(%rbp),%rdx
	mov    0x0(%rbp),%rsi
	mov    %r12,%rdi
	call   <_ZSt16__ostream_insertIcSt11char_traitsIcEERSt13basic_ostreamIT_T0_ES6_PKS3_l@plt>
	mov    $0x10,%edx
	lea    0x50a7c(%rip),%rsi        # <_IO_stdin_used+0x131b>
	mov    %rax,%rbp
	mov    %rax,%rdi
	call   <_ZSt16__ostream_insertIcSt11char_traitsIcEERSt13basic_ostreamIT_T0_ES6_PKS3_l@plt>
	mov    %rbp,%rdi
	mov    $0x13,%edx
	lea    0x50a73(%rip),%rsi        # <_IO_stdin_used+0x132c>
	call   <_ZSt16__ostream_insertIcSt11char_traitsIcEERSt13basic_ostreamIT_T0_ES6_PKS3_l@plt>
	mov    0x8(%rbx),%rdx
	mov    (%rbx),%rsi
	mov    %rbp,%rdi
	call   <_ZSt16__ostream_insertIcSt11char_traitsIcEERSt13basic_ostreamIT_T0_ES6_PKS3_l@plt>
	pop    %rbx
	pop    %rbp
	mov    $0x2,%edx
	mov    %rax,%rdi
	lea    0x50a62(%rip),%rsi        # <_IO_stdin_used+0x1340>
	pop    %r12
	jmp    <_ZSt16__ostream_insertIcSt11char_traitsIcEERSt13basic_ostreamIT_T0_ES6_PKS3_l@plt>
	nopl   (%rax)
	mov    $0x30,%edi
	call   <_Znwm@plt>
	mov    %rax,%rdi
	movl   $0x0,0x8(%rax)
	lea    0x8(%rax),%rax
	movq   $0x0,0x8(%rax)
	mov    %rdi,0x60f39(%rip)        # <_ZN9benchmark8internal14global_contextB5cxx11E>
	mov    %rax,0x18(%rdi)
	mov    %rax,0x20(%rdi)
	movq   $0x0,0x28(%rdi)
	jmp    <_ZN9benchmark16AddCustomContextERKNSt7__cxx1112basic_stringIcSt11char_traitsIcESaIcEEES7_+0x1e>
	data16 cs nopw 0x0(%rax,%rax,1)
	nop

<_ZN9benchmark8internal21ParseCommandLineFlagsEPiPPc>:
	endbr64
	push   %r15
	push   %r14
	push   %r13
	push   %r12
	push   %rbp
	push   %rbx
	sub    $0x78,%rsp
	movq   0x5f4f6(%rip),%xmm0        # <__do_global_dtors_aux_fini_array_entry+0x8>
	mov    %fs:0x28,%rax
	mov    %rax,0x68(%rsp)
	xor    %eax,%eax
	movhps 0x5f4e7(%rip),%xmm0        # <__do_global_dtors_aux_fini_array_entry+0x10>
	movaps %xmm0,(%rsp)
	test   %rdi,%rdi
	je     <_ZN9benchmark8internal21ParseCommandLineFlagsEPiPPc+0x564>
	mov    (%rdi),%r14d
	mov    %rdi,%r12
	mov    %rsi,%r13
	lea    0x509c5(%rip),%rax        # <_IO_stdin_used+0x1343>
	test   %r14d,%r14d
	jle    <_ZN9benchmark8internal21ParseCommandLineFlagsEPiPPc+0x56>
	mov    (%rsi),%rax
	mov    %rax,0x611b3(%rip)        # <_ZN9benchmark17BenchmarkReporter7Context15executable_nameE>
	mov    $0x1,%ebp
	cmp    %ebp,%r14d
	jle    <_ZN9benchmark8internal21ParseCommandLineFlagsEPiPPc+0x2e4>
	nopl   0x0(%rax,%rax,1)
	movslq %ebp,%rbx
	lea    0x61036(%rip),%rdx        # <_ZN9benchmark26FLAGS_benchmark_list_testsE>
	lea    0x5099a(%rip),%rsi        # <_IO_stdin_used+0x134b>
	shl    $0x3,%rbx
	lea    0x0(%r13,%rbx,1),%r15
	mov    (%r15),%rdi
	call   <_ZN9benchmark13ParseBoolFlagEPKcS1_Pb>
	test   %al,%al
	jne    <_ZN9benchmark8internal21ParseCommandLineFlagsEPiPPc+0x2b0>
	mov    (%r15),%rdi
	lea    0x60fec(%rip),%rdx        # <_ZN9benchmark22FLAGS_benchmark_filterB5cxx11E>
	lea    0x50985(%rip),%rsi        # <_IO_stdin_used+0x1360>
	call   <_ZN9benchmark15ParseStringFlagEPKcS1_PNSt7__cxx1112basic_stringIcSt11char_traitsIcESaIcEEE>
	test   %al,%al
	jne    <_ZN9benchmark8internal21ParseCommandLineFlagsEPiPPc+0x2b0>
	mov    (%r15),%rdi
	lea    0x60fae(%rip),%rdx        # <_ZN9benchmark24FLAGS_benchmark_min_timeB5cxx11E>
	lea    0x50978(%rip),%rsi        # <_IO_stdin_used+0x1371>
	call   <_ZN9benchmark15ParseStringFlagEPKcS1_PNSt7__cxx1112basic_stringIcSt11char_traitsIcESaIcEEE>
	test   %al,%al
	jne    <_ZN9benchmark8internal21ParseCommandLineFlagsEPiPPc+0x2b0>
	mov    (%r15),%rdi
	lea    0x60f78(%rip),%rdx        # <_ZN9benchmark31FLAGS_benchmark_min_warmup_timeE>
	lea    0x5096d(%rip),%rsi        # <_IO_stdin_used+0x1384>
	call   <_ZN9benchmark15ParseDoubleFlagEPKcS1_Pd>
	test   %al,%al
	jne    <_ZN9benchmark8internal21ParseCommandLineFlagsEPiPPc+0x2b0>
	mov    (%r15),%rdi
	lea    0x60f56(%rip),%rdx        # <_ZN9benchmark27FLAGS_benchmark_repetitionsE>
	lea    0x50969(%rip),%rsi        # <_IO_stdin_used+0x139e>
	call   <_ZN9benchmark14ParseInt32FlagEPKcS1_Pi>
	test   %al,%al
	jne    <_ZN9benchmark8internal21ParseCommandLineFlagsEPiPPc+0x2b0>
	mov    (%r15),%rdi
	lea    0x60f37(%rip),%rdx        # <_ZN9benchmark23FLAGS_benchmark_dry_runE>
	lea    0x50961(%rip),%rsi        # <_IO_stdin_used+0x13b4>
	call   <_ZN9benchmark13ParseBoolFlagEPKcS1_Pb>
	test   %al,%al
	jne    <_ZN9benchmark8internal21ParseCommandLineFlagsEPiPPc+0x2b0>
	mov    (%r15),%rdi
	lea    0x60f18(%rip),%rdx        # <_ZN9benchmark42FLAGS_benchmark_enable_random_interleavingE>
	lea    0x4fa7f(%rip),%rsi        # <_IO_stdin_used+0x4f0>
	call   <_ZN9benchmark13ParseBoolFlagEPKcS1_Pb>
	test   %al,%al
	jne    <_ZN9benchmark8internal21ParseCommandLineFlagsEPiPPc+0x2b0>
	mov    (%r15),%rdi
	lea    0x60ef9(%rip),%rdx        # <_ZN9benchmark38FLAGS_benchmark_report_aggregates_onlyE>
	lea    0x4fa89(%rip),%rsi        # <_IO_stdin_used+0x518>
	call   <_ZN9benchmark13ParseBoolFlagEPKcS1_Pb>
	test   %al,%al
	jne    <_ZN9benchmark8internal21ParseCommandLineFlagsEPiPPc+0x2b0>
	mov    (%r15),%rdi
	lea    0x60eda(%rip),%rdx        # <_ZN9benchmark39FLAGS_benchmark_display_aggregates_onlyE>
	lea    0x4fa93(%rip),%rsi        # <_IO_stdin_used+0x540>
	call   <_ZN9benchmark13ParseBoolFlagEPKcS1_Pb>
	test   %al,%al
	jne    <_ZN9benchmark8internal21ParseCommandLineFlagsEPiPPc+0x2b0>
	mov    (%r15),%rdi
	lea    0x60e9c(%rip),%rdx        # <_ZN9benchmark22FLAGS_benchmark_formatB5cxx11E>
	lea    0x508fb(%rip),%rsi        # <_IO_stdin_used+0x13c6>
	call   <_ZN9benchmark15ParseStringFlagEPKcS1_PNSt7__cxx1112basic_stringIcSt11char_traitsIcESaIcEEE>
	test   %al,%al
	jne    <_ZN9benchmark8internal21ParseCommandLineFlagsEPiPPc+0x2b0>
	mov    (%r15),%rdi
	lea    0x60e3e(%rip),%rdx        # <_ZN9benchmark19FLAGS_benchmark_outB5cxx11E>
	lea    0x508ee(%rip),%rsi        # <_IO_stdin_used+0x13d7>
	call   <_ZN9benchmark15ParseStringFlagEPKcS1_PNSt7__cxx1112basic_stringIcSt11char_traitsIcESaIcEEE>
	test   %al,%al
	jne    <_ZN9benchmark8internal21ParseCommandLineFlagsEPiPPc+0x2b0>
	mov    (%r15),%rdi
	lea    0x60e40(%rip),%rdx        # <_ZN9benchmark26FLAGS_benchmark_out_formatB5cxx11E>
	lea    0x508de(%rip),%rsi        # <_IO_stdin_used+0x13e5>
	call   <_ZN9benchmark15ParseStringFlagEPKcS1_PNSt7__cxx1112basic_stringIcSt11char_traitsIcESaIcEEE>
	test   %al,%al
	jne    <_ZN9benchmark8internal21ParseCommandLineFlagsEPiPPc+0x2b0>
	mov    (%r15),%rdi
	lea    0x60de2(%rip),%rdx        # <_ZN9benchmark21FLAGS_benchmark_colorB5cxx11E>
	lea    0x508d5(%rip),%rsi        # <_IO_stdin_used+0x13fa>
	call   <_ZN9benchmark15ParseStringFlagEPKcS1_PNSt7__cxx1112basic_stringIcSt11char_traitsIcESaIcEEE>
	test   %al,%al
	jne    <_ZN9benchmark8internal21ParseCommandLineFlagsEPiPPc+0x2b0>
	mov    (%r15),%rdi
	lea    0x60da4(%rip),%rdx        # <_ZN9benchmark32FLAGS_benchmark_counters_tabularE>
	lea    0x508c7(%rip),%rsi        # <_IO_stdin_used+0x140a>
	call   <_ZN9benchmark13ParseBoolFlagEPKcS1_Pb>
	test   %al,%al
	jne    <_ZN9benchmark8internal21ParseCommandLineFlagsEPiPPc+0x2b0>
	mov    (%r15),%rdi
	lea    0x60d66(%rip),%rdx        # <_ZN9benchmark29FLAGS_benchmark_perf_countersB5cxx11E>
	lea    0x508c4(%rip),%rsi        # <_IO_stdin_used+0x1425>
	call   <_ZN9benchmark15ParseStringFlagEPKcS1_PNSt7__cxx1112basic_stringIcSt11char_traitsIcESaIcEEE>
	test   %al,%al
	jne    <_ZN9benchmark8internal21ParseCommandLineFlagsEPiPPc+0x2b0>
	mov    (%r15),%rdi
	lea    0x60d0c(%rip),%rdx        # <_ZN9benchmark23FLAGS_benchmark_contextB5cxx11E>
	lea    0x508c2(%rip),%rsi        # <_IO_stdin_used+0x143d>
	call   <_ZN9benchmark17ParseKeyValueFlagEPKcS1_PSt3mapINSt7__cxx1112basic_stringIcSt11char_traitsIcESaIcEEES8_St4lessIS8_ESaISt4pairIKS8_S8_EEE>
	test   %al,%al
	jne    <_ZN9benchmark8internal21ParseCommandLineFlagsEPiPPc+0x2b0>
	mov    (%r15),%rdi
	lea    0x60cd2(%rip),%rdx        # <_ZN9benchmark25FLAGS_benchmark_time_unitB5cxx11E>
	lea    0x508ba(%rip),%rsi        # <_IO_stdin_used+0x144f>
	call   <_ZN9benchmark15ParseStringFlagEPKcS1_PNSt7__cxx1112basic_stringIcSt11char_traitsIcESaIcEEE>
	test   %al,%al
	jne    <_ZN9benchmark8internal21ParseCommandLineFlagsEPiPPc+0x2b0>
	mov    (%r15),%rdi
	lea    0x60ca8(%rip),%rdx        # <_ZN9benchmark7FLAGS_vE>
	lea    0x50747(%rip),%rsi        # <_IO_stdin_used+0x12f6>
	call   <_ZN9benchmark14ParseInt32FlagEPKcS1_Pi>
	test   %al,%al
	jne    <_ZN9benchmark8internal21ParseCommandLineFlagsEPiPPc+0x2b0>
	mov    (%r15),%rdi
	lea    0x508a1(%rip),%rsi        # <_IO_stdin_used+0x1463>
	call   <_ZN9benchmark6IsFlagEPKcS1_>
	test   %al,%al
	jne    <_ZN9benchmark8internal21ParseCommandLineFlagsEPiPPc+0x4cc>
	mov    (%r12),%r14d
	add    $0x1,%ebp
	jmp    <_ZN9benchmark8internal21ParseCommandLineFlagsEPiPPc+0x62>
	nopl   0x0(%rax,%rax,1)
	mov    (%r12),%eax
	lea    -0x1(%rax),%r14d
	cmp    %ebp,%r14d
	je     <_ZN9benchmark8internal21ParseCommandLineFlagsEPiPPc+0x2d7>
	sub    $0x2,%eax
	lea    0x8(%r13,%rbx,1),%rsi
	mov    %r15,%rdi
	sub    %ebp,%eax
	lea    0x8(,%rax,8),%rdx
	call   <memmove@plt>
	mov    %r14d,(%r12)
	cmp    %ebp,%r14d
	jg     <_ZN9benchmark8internal21ParseCommandLineFlagsEPiPPc+0x70>
	movdqa (%rsp),%xmm1
	lea    0x40(%rsp),%r14
	lea    0x50(%rsp),%r12
	mov    %r14,%rbx
	lea    0x506ba(%rip),%r13        # <_IO_stdin_used+0x12e7>
	movaps %xmm1,0x40(%rsp)
	mov    (%rbx),%rbp
	mov    %r13,%rsi
	mov    %rbp,%rdi
	call   <_ZNKSt7__cxx1112basic_stringIcSt11char_traitsIcESaIcEE7compareEPKc@plt>
	test   %eax,%eax
	jne    <_ZN9benchmark8internal21ParseCommandLineFlagsEPiPPc+0x49e>
	add    $0x8,%rbx
	cmp    %rbx,%r12
	jne    <_ZN9benchmark8internal21ParseCommandLineFlagsEPiPPc+0x302>
	lea    0x60c08(%rip),%rdi        # <_ZN9benchmark25FLAGS_benchmark_time_unitB5cxx11E>
	call   <_ZN9benchmark8internal26SetDefaultTimeUnitFromFlagERKNSt7__cxx1112basic_stringIcSt11char_traitsIcESaIcEEE>
	cmpq   $0x0,0x60ca3(%rip)        # <_ZN9benchmark21FLAGS_benchmark_colorB5cxx11E+0x8>
	je     <_ZN9benchmark8internal21ParseCommandLineFlagsEPiPPc+0x4cc>
	cmpb   $0x0,0x60d11(%rip)        # <_ZN9benchmark23FLAGS_benchmark_dry_runE>
	jne    <_ZN9benchmark8internal21ParseCommandLineFlagsEPiPPc+0x4d8>
	mov    0x60c19(%rip),%r13        # <_ZN9benchmark23FLAGS_benchmark_contextB5cxx11E+0x18>
	lea    0x60c02(%rip),%rbp        # <_ZN9benchmark23FLAGS_benchmark_contextB5cxx11E+0x8>
	lea    0x4f843(%rip),%r15        # <_IO_stdin_used+0x4d0>
	lea    0x60a8c(%rip),%r12        # <_ZSt4cerr@GLIBCXX_3.4>
	lea    0x50680(%rip),%r14        # <_IO_stdin_used+0x131b>
	cmp    %rbp,%r13
	jne    <_ZN9benchmark8internal21ParseCommandLineFlagsEPiPPc+0x38c>
	jmp    <_ZN9benchmark8internal21ParseCommandLineFlagsEPiPPc+0x42c>
	nopl   (%rax)
	mov    %r13,%rdi
	call   <_ZSt18_Rb_tree_incrementPSt18_Rb_tree_node_base@plt>
	mov    %rax,%r13
	cmp    %rbp,%rax
	je     <_ZN9benchmark8internal21ParseCommandLineFlagsEPiPPc+0x42c>
	mov    0x60b85(%rip),%rdi        # <_ZN9benchmark8internal14global_contextB5cxx11E>
	lea    0x20(%r13),%rsi
	lea    0x40(%r13),%rdx
	test   %rdi,%rdi
	je     <_ZN9benchmark8internal21ParseCommandLineFlagsEPiPPc+0x450>
	call   <_ZNSt8_Rb_treeINSt7__cxx1112basic_stringIcSt11char_traitsIcESaIcEEESt4pairIKS5_S5_ESt10_Select1stIS8_ESt4lessIS5_ESaIS8_EE17_M_emplace_uniqueIJRS7_SG_EEES6_ISt17_Rb_tree_iteratorIS8_EbEDpOT_>
	test   %dl,%dl
	jne    <_ZN9benchmark8internal21ParseCommandLineFlagsEPiPPc+0x378>
	mov    $0x1e,%edx
	mov    %r15,%rsi
	mov    %r12,%rdi
	call   <_ZSt16__ostream_insertIcSt11char_traitsIcEERSt13basic_ostreamIT_T0_ES6_PKS3_l@plt>
	mov    0x28(%r13),%rdx
	mov    0x20(%r13),%rsi
	mov    %r12,%rdi
	call   <_ZSt16__ostream_insertIcSt11char_traitsIcEERSt13basic_ostreamIT_T0_ES6_PKS3_l@plt>
	mov    $0x10,%edx
	mov    %r14,%rsi
	mov    %rax,%rbx
	mov    %rax,%rdi
	call   <_ZSt16__ostream_insertIcSt11char_traitsIcEERSt13basic_ostreamIT_T0_ES6_PKS3_l@plt>
	mov    $0x13,%edx
	lea    0x50610(%rip),%rsi        # <_IO_stdin_used+0x132c>
	mov    %rbx,%rdi
	call   <_ZSt16__ostream_insertIcSt11char_traitsIcEERSt13basic_ostreamIT_T0_ES6_PKS3_l@plt>
	mov    0x48(%r13),%rdx
	mov    0x40(%r13),%rsi
	mov    %rbx,%rdi
	call   <_ZSt16__ostream_insertIcSt11char_traitsIcEERSt13basic_ostreamIT_T0_ES6_PKS3_l@plt>
	mov    $0x2,%edx
	lea    0x50600(%rip),%rsi        # <_IO_stdin_used+0x1340>
	mov    %rax,%rdi
	call   <_ZSt16__ostream_insertIcSt11char_traitsIcEERSt13basic_ostreamIT_T0_ES6_PKS3_l@plt>
	mov    %r13,%rdi
	call   <_ZSt18_Rb_tree_incrementPSt18_Rb_tree_node_base@plt>
	mov    %rax,%r13
	cmp    %rbp,%rax
	jne    <_ZN9benchmark8internal21ParseCommandLineFlagsEPiPPc+0x38c>
	mov    0x68(%rsp),%rax
	sub    %fs:0x28,%rax
	jne    <_ZN9benchmark8internal21ParseCommandLineFlagsEPiPPc+0x577>
	add    $0x78,%rsp
	pop    %rbx
	pop    %rbp
	pop    %r12
	pop    %r13
	pop    %r14
	pop    %r15
	ret
	nop
	mov    $0x30,%edi
	mov    %rsi,0x18(%rsp)
	mov    %rdx,(%rsp)
	call   <_Znwm@plt>
	mov    0x18(%rsp),%rsi
	mov    (%rsp),%rdx
	mov    %rax,%rdi
	movl   $0x0,0x8(%rax)
	lea    0x8(%rax),%rax
	movq   $0x0,0x8(%rax)
	mov    %rdi,0x60a8f(%rip)        # <_ZN9benchmark8internal14global_contextB5cxx11E>
	mov    %rax,0x18(%rdi)
	mov    %rax,0x20(%rdi)
	movq   $0x0,0x28(%rdi)
	jmp    <_ZN9benchmark8internal21ParseCommandLineFlagsEPiPPc+0x3a4>
	lea    0x5051a(%rip),%rsi        # <_IO_stdin_used+0x12ef>
	mov    %rbp,%rdi
	call   <_ZNKSt7__cxx1112basic_stringIcSt11char_traitsIcESaIcEE7compareEPKc@plt>
	test   %eax,%eax
	je     <_ZN9benchmark8internal21ParseCommandLineFlagsEPiPPc+0x318>
	lea    0x50508(%rip),%rsi        # <_IO_stdin_used+0x12f4>
	mov    %rbp,%rdi
	call   <_ZNKSt7__cxx1112basic_stringIcSt11char_traitsIcESaIcEE7compareEPKc@plt>
	test   %eax,%eax
	je     <_ZN9benchmark8internal21ParseCommandLineFlagsEPiPPc+0x318>
	call   <_ZN9benchmark8internal17PrintUsageAndExitEv>
	nopl   0x0(%rax)
	lea    0x20(%rsp),%rbp
	lea    0x30(%rsp),%rbx
	mov    %r14,%rsi
	movl   $0x5f797264,0x30(%rsp)
	mov    %rbp,%rdi
	mov    %r12,0x40(%rsp)
	movl   $0x65757274,0x50(%rsp)
	movq   $0x4,0x48(%rsp)
	movb   $0x0,0x54(%rsp)
	mov    %rbx,0x20(%rsp)
	movl   $0x6e75725f,0x33(%rsp)
	movq   $0x7,0x28(%rsp)
	movb   $0x0,0x37(%rsp)
	call   <_ZN9benchmark16AddCustomContextERKNSt7__cxx1112basic_stringIcSt11char_traitsIcESaIcEEES7_>
	mov    0x20(%rsp),%rdi
	cmp    %rbx,%rdi
	je     <_ZN9benchmark8internal21ParseCommandLineFlagsEPiPPc+0x543>
	mov    0x30(%rsp),%rax
	lea    0x1(%rax),%rsi
	call   <_ZdlPvm@plt>
	mov    0x40(%rsp),%rdi
	cmp    %r12,%rdi
	je     <_ZN9benchmark8internal21ParseCommandLineFlagsEPiPPc+0x348>
	mov    0x50(%rsp),%rax
	lea    0x1(%rax),%rsi
	call   <_ZdlPvm@plt>
	jmp    <_ZN9benchmark8internal21ParseCommandLineFlagsEPiPPc+0x348>
	lea    0x504a8(%rip),%rax        # <_IO_stdin_used+0x1343>
	mov    %rax,0x60c9e(%rip)        # <_ZN9benchmark17BenchmarkReporter7Context15executable_nameE>
	jmp    <_ZN9benchmark8internal21ParseCommandLineFlagsEPiPPc+0x2e4>
	call   <__stack_chk_fail@plt>
	endbr64
	mov    %rax,%rbx
	jmp    <_ZN9benchmark8internal21ParseCommandLineFlagsEPiPPc.cold>
	nopl   0x0(%rax,%rax,1)

<_ZN9benchmark10InitializeEPiPPcPFvvE>:
	endbr64
	sub    $0x8,%rsp
	mov    %rdx,0x60971(%rip)        # <_ZN9benchmark8internal12HelperPrintfE>
	call   <_ZN9benchmark8internal21ParseCommandLineFlagsEPiPPc>
	mov    0x60976(%rip),%eax        # <_ZN9benchmark7FLAGS_vE>
	mov    %eax,0x60b58(%rip)        # <_ZZN9benchmark8internal8LogLevelEvE9log_level>
	add    $0x8,%rsp
	ret
	nop
	cs nopw 0x0(%rax,%rax,1)

<_ZNSt8_Rb_treeINSt7__cxx1112basic_stringIcSt11char_traitsIcESaIcEEESt4pairIKS5_N9benchmark7CounterEESt10_Select1stISA_ESt4lessIS5_ESaISA_EE22_M_emplace_hint_uniqueIJRKSt21piecewise_construct_tSt5tupleIJRS7_EESL_IJEEEEESt17_Rb_tree_iteratorISA_ESt23_Rb_tree_const_iteratorISA_EDpOT_.isra.0>:
	push   %r15
	push   %r14
	push   %r13
	push   %r12
	mov    %rdi,%r12
	mov    $0x50,%edi
	push   %rbp
	mov    %rdx,%rbp
	push   %rbx
	sub    $0x28,%rsp
	mov    %rsi,0x8(%rsp)
	mov    %fs:0x28,%rax
	mov    %rax,0x18(%rsp)
	xor    %eax,%eax
	call   <_Znwm@plt>
	mov    %rax,%rbx
	mov    0x0(%rbp),%rax
	lea    0x30(%rbx),%r13
	lea    0x20(%rbx),%r14
	mov    0x8(%rax),%rbp
	mov    %r13,0x20(%rbx)
	mov    (%rax),%r15
	mov    %rbp,0x10(%rsp)
	cmp    $0xf,%rbp
	ja     <_ZNSt8_Rb_treeINSt7__cxx1112basic_stringIcSt11char_traitsIcESaIcEEESt4pairIKS5_N9benchmark7CounterEESt10_Select1stISA_ESt4lessIS5_ESaISA_EE22_M_emplace_hint_uniqueIJRKSt21piecewise_construct_tSt5tupleIJRS7_EESL_IJEEEEESt17_Rb_tree_iteratorISA_ESt23_Rb_tree_const_iteratorISA_EDpOT_.isra.0+0x140>
	cmp    $0x1,%rbp
	jne    <_ZNSt8_Rb_treeINSt7__cxx1112basic_stringIcSt11char_traitsIcESaIcEEESt4pairIKS5_N9benchmark7CounterEESt10_Select1stISA_ESt4lessIS5_ESaISA_EE22_M_emplace_hint_uniqueIJRKSt21piecewise_construct_tSt5tupleIJRS7_EESL_IJEEEEESt17_Rb_tree_iteratorISA_ESt23_Rb_tree_const_iteratorISA_EDpOT_.isra.0+0xf8>
	movzbl (%r15),%eax
	mov    %al,0x30(%rbx)
	mov    %r13,%rax
	mov    %rbp,0x28(%rbx)
	mov    0x8(%rsp),%rsi
	mov    %r14,%rdx
	mov    %r12,%rdi
	movb   $0x0,(%rax,%rbp,1)
	movabs $0x3e800000000,%rax
	movq   $0x0,0x40(%rbx)
	mov    %rax,0x48(%rbx)
	call   <_ZNSt8_Rb_treeINSt7__cxx1112basic_stringIcSt11char_traitsIcESaIcEEESt4pairIKS5_N9benchmark7CounterEESt10_Select1stISA_ESt4lessIS5_ESaISA_EE29_M_get_insert_hint_unique_posESt23_Rb_tree_const_iteratorISA_ERS7_>
	mov    %rdx,%rbp
	test   %rdx,%rdx
	je     <_ZNSt8_Rb_treeINSt7__cxx1112basic_stringIcSt11char_traitsIcESaIcEEESt4pairIKS5_N9benchmark7CounterEESt10_Select1stISA_ESt4lessIS5_ESaISA_EE22_M_emplace_hint_uniqueIJRKSt21piecewise_construct_tSt5tupleIJRS7_EESL_IJEEEEESt17_Rb_tree_iteratorISA_ESt23_Rb_tree_const_iteratorISA_EDpOT_.isra.0+0x110>
	lea    0x8(%r12),%rcx
	mov    $0x1,%edi
	test   %rax,%rax
	je     <_ZNSt8_Rb_treeINSt7__cxx1112basic_stringIcSt11char_traitsIcESaIcEEESt4pairIKS5_N9benchmark7CounterEESt10_Select1stISA_ESt4lessIS5_ESaISA_EE22_M_emplace_hint_uniqueIJRKSt21piecewise_construct_tSt5tupleIJRS7_EESL_IJEEEEESt17_Rb_tree_iteratorISA_ESt23_Rb_tree_const_iteratorISA_EDpOT_.isra.0+0x180>
	mov    %rbp,%rdx
	mov    %rbx,%rsi
	mov    %rbx,%rbp
	call   <_ZSt29_Rb_tree_insert_and_rebalancebPSt18_Rb_tree_node_baseS0_RS_@plt>
	addq   $0x1,0x28(%r12)
	mov    0x18(%rsp),%rax
	sub    %fs:0x28,%rax
	jne    <_ZNSt8_Rb_treeINSt7__cxx1112basic_stringIcSt11char_traitsIcESaIcEEESt4pairIKS5_N9benchmark7CounterEESt10_Select1stISA_ESt4lessIS5_ESaISA_EE22_M_emplace_hint_uniqueIJRKSt21piecewise_construct_tSt5tupleIJRS7_EESL_IJEEEEESt17_Rb_tree_iteratorISA_ESt23_Rb_tree_const_iteratorISA_EDpOT_.isra.0+0x1ed>
	add    $0x28,%rsp
	mov    %rbp,%rax
	pop    %rbx
	pop    %rbp
	pop    %r12
	pop    %r13
	pop    %r14
	pop    %r15
	ret
	nopl   0x0(%rax,%rax,1)
	test   %rbp,%rbp
	jne    <_ZNSt8_Rb_treeINSt7__cxx1112basic_stringIcSt11char_traitsIcESaIcEEESt4pairIKS5_N9benchmark7CounterEESt10_Select1stISA_ESt4lessIS5_ESaISA_EE22_M_emplace_hint_uniqueIJRKSt21piecewise_construct_tSt5tupleIJRS7_EESL_IJEEEEESt17_Rb_tree_iteratorISA_ESt23_Rb_tree_const_iteratorISA_EDpOT_.isra.0+0x1f2>
	mov    %r13,%rax
	jmp    <_ZNSt8_Rb_treeINSt7__cxx1112basic_stringIcSt11char_traitsIcESaIcEEESt4pairIKS5_N9benchmark7CounterEESt10_Select1stISA_ESt4lessIS5_ESaISA_EE22_M_emplace_hint_uniqueIJRKSt21piecewise_construct_tSt5tupleIJRS7_EESL_IJEEEEESt17_Rb_tree_iteratorISA_ESt23_Rb_tree_const_iteratorISA_EDpOT_.isra.0+0x70>
	nopl   0x0(%rax)
	mov    0x20(%rbx),%rdi
	mov    %rax,%rbp
	cmp    %rdi,%r13
	je     <_ZNSt8_Rb_treeINSt7__cxx1112basic_stringIcSt11char_traitsIcESaIcEEESt4pairIKS5_N9benchmark7CounterEESt10_Select1stISA_ESt4lessIS5_ESaISA_EE22_M_emplace_hint_uniqueIJRKSt21piecewise_construct_tSt5tupleIJRS7_EESL_IJEEEEESt17_Rb_tree_iteratorISA_ESt23_Rb_tree_const_iteratorISA_EDpOT_.isra.0+0x129>
	mov    0x30(%rbx),%rax
	lea    0x1(%rax),%rsi
	call   <_ZdlPvm@plt>
	mov    $0x50,%esi
	mov    %rbx,%rdi
	call   <_ZdlPvm@plt>
	jmp    <_ZNSt8_Rb_treeINSt7__cxx1112basic_stringIcSt11char_traitsIcESaIcEEESt4pairIKS5_N9benchmark7CounterEESt10_Select1stISA_ESt4lessIS5_ESaISA_EE22_M_emplace_hint_uniqueIJRKSt21piecewise_construct_tSt5tupleIJRS7_EESL_IJEEEEESt17_Rb_tree_iteratorISA_ESt23_Rb_tree_const_iteratorISA_EDpOT_.isra.0+0xcd>
	nopl   0x0(%rax,%rax,1)
	lea    0x10(%rsp),%rsi
	xor    %edx,%edx
	mov    %r14,%rdi
	call   <_ZNSt7__cxx1112basic_stringIcSt11char_traitsIcESaIcEE9_M_createERmm@plt>
	mov    %rax,0x20(%rbx)
	mov    %rax,%rdi
	mov    0x10(%rsp),%rax
	mov    %rax,0x30(%rbx)
	mov    %rbp,%rdx
	mov    %r15,%rsi
	call   <memcpy@plt>
	mov    0x10(%rsp),%rbp
	mov    0x20(%rbx),%rax
	jmp    <_ZNSt8_Rb_treeINSt7__cxx1112basic_stringIcSt11char_traitsIcESaIcEEESt4pairIKS5_N9benchmark7CounterEESt10_Select1stISA_ESt4lessIS5_ESaISA_EE22_M_emplace_hint_uniqueIJRKSt21piecewise_construct_tSt5tupleIJRS7_EESL_IJEEEEESt17_Rb_tree_iteratorISA_ESt23_Rb_tree_const_iteratorISA_EDpOT_.isra.0+0x70>
	nopl   0x0(%rax,%rax,1)
	cmp    %rcx,%rdx
	je     <_ZNSt8_Rb_treeINSt7__cxx1112basic_stringIcSt11char_traitsIcESaIcEEESt4pairIKS5_N9benchmark7CounterEESt10_Select1stISA_ESt4lessIS5_ESaISA_EE22_M_emplace_hint_uniqueIJRKSt21piecewise_construct_tSt5tupleIJRS7_EESL_IJEEEEESt17_Rb_tree_iteratorISA_ESt23_Rb_tree_const_iteratorISA_EDpOT_.isra.0+0xb9>
	mov    0x28(%rbx),%r13
	mov    0x28(%rdx),%r14
	cmp    %r14,%r13
	mov    %r14,%rdx
	cmovbe %r13,%rdx
	test   %rdx,%rdx
	je     <_ZNSt8_Rb_treeINSt7__cxx1112basic_stringIcSt11char_traitsIcESaIcEEESt4pairIKS5_N9benchmark7CounterEESt10_Select1stISA_ESt4lessIS5_ESaISA_EE22_M_emplace_hint_uniqueIJRKSt21piecewise_construct_tSt5tupleIJRS7_EESL_IJEEEEESt17_Rb_tree_iteratorISA_ESt23_Rb_tree_const_iteratorISA_EDpOT_.isra.0+0x1bd>
	mov    0x20(%rbx),%rdi
	mov    0x20(%rbp),%rsi
	mov    %rcx,0x8(%rsp)
	call   <memcmp@plt>
	mov    0x8(%rsp),%rcx
	test   %eax,%eax
	mov    %eax,%edi
	jne    <_ZNSt8_Rb_treeINSt7__cxx1112basic_stringIcSt11char_traitsIcESaIcEEESt4pairIKS5_N9benchmark7CounterEESt10_Select1stISA_ESt4lessIS5_ESaISA_EE22_M_emplace_hint_uniqueIJRKSt21piecewise_construct_tSt5tupleIJRS7_EESL_IJEEEEESt17_Rb_tree_iteratorISA_ESt23_Rb_tree_const_iteratorISA_EDpOT_.isra.0+0x1db>
	sub    %r14,%r13
	xor    %edi,%edi
	cmp    $0x7fffffff,%r13
	jg     <_ZNSt8_Rb_treeINSt7__cxx1112basic_stringIcSt11char_traitsIcESaIcEEESt4pairIKS5_N9benchmark7CounterEESt10_Select1stISA_ESt4lessIS5_ESaISA_EE22_M_emplace_hint_uniqueIJRKSt21piecewise_construct_tSt5tupleIJRS7_EESL_IJEEEEESt17_Rb_tree_iteratorISA_ESt23_Rb_tree_const_iteratorISA_EDpOT_.isra.0+0xb9>
	cmp    $0xffffffff80000000,%r13
	jl     <_ZNSt8_Rb_treeINSt7__cxx1112basic_stringIcSt11char_traitsIcESaIcEEESt4pairIKS5_N9benchmark7CounterEESt10_Select1stISA_ESt4lessIS5_ESaISA_EE22_M_emplace_hint_uniqueIJRKSt21piecewise_construct_tSt5tupleIJRS7_EESL_IJEEEEESt17_Rb_tree_iteratorISA_ESt23_Rb_tree_const_iteratorISA_EDpOT_.isra.0+0x1e3>
	mov    %r13d,%edi
	shr    $0x1f,%edi
	jmp    <_ZNSt8_Rb_treeINSt7__cxx1112basic_stringIcSt11char_traitsIcESaIcEEESt4pairIKS5_N9benchmark7CounterEESt10_Select1stISA_ESt4lessIS5_ESaISA_EE22_M_emplace_hint_uniqueIJRKSt21piecewise_construct_tSt5tupleIJRS7_EESL_IJEEEEESt17_Rb_tree_iteratorISA_ESt23_Rb_tree_const_iteratorISA_EDpOT_.isra.0+0xb9>
	mov    $0x1,%edi
	jmp    <_ZNSt8_Rb_treeINSt7__cxx1112basic_stringIcSt11char_traitsIcESaIcEEESt4pairIKS5_N9benchmark7CounterEESt10_Select1stISA_ESt4lessIS5_ESaISA_EE22_M_emplace_hint_uniqueIJRKSt21piecewise_construct_tSt5tupleIJRS7_EESL_IJEEEEESt17_Rb_tree_iteratorISA_ESt23_Rb_tree_const_iteratorISA_EDpOT_.isra.0+0xb9>
	call   <__stack_chk_fail@plt>
	mov    %r13,%rdi
	jmp    <_ZNSt8_Rb_treeINSt7__cxx1112basic_stringIcSt11char_traitsIcESaIcEEESt4pairIKS5_N9benchmark7CounterEESt10_Select1stISA_ESt4lessIS5_ESaISA_EE22_M_emplace_hint_uniqueIJRKSt21piecewise_construct_tSt5tupleIJRS7_EESL_IJEEEEESt17_Rb_tree_iteratorISA_ESt23_Rb_tree_const_iteratorISA_EDpOT_.isra.0+0x15f>
	endbr64
	mov    %rax,%rdi
	jmp    <_ZNSt8_Rb_treeINSt7__cxx1112basic_stringIcSt11char_traitsIcESaIcEEESt4pairIKS5_N9benchmark7CounterEESt10_Select1stISA_ESt4lessIS5_ESaISA_EE22_M_emplace_hint_uniqueIJRKSt21piecewise_construct_tSt5tupleIJRS7_EESL_IJEEEEESt17_Rb_tree_iteratorISA_ESt23_Rb_tree_const_iteratorISA_EDpOT_.isra.0.cold>
	cs nopw 0x0(%rax,%rax,1)

<_ZN9benchmark5StateC2ENSt7__cxx1112basic_stringIcSt11char_traitsIcESaIcEEElRKSt6vectorIlSaIlEEiiPNS_8internal11ThreadTimerEPNSC_13ThreadManagerEPNSC_23PerfCountersMeasurementEPNS_15ProfilerManagerE>:
	endbr64
	push   %r15
	pxor   %xmm0,%xmm0
	mov    %rdi,%r15
	push   %r14
	push   %r13
	push   %r12
	push   %rbp
	mov    %r8d,%ebp
	push   %rbx
	mov    %rsi,%rbx
	sub    $0x68,%rsp
	mov    0xb8(%rsp),%rax
	mov    %r9d,(%rsp)
	mov    0xa0(%rsp),%r14
	mov    0xa8(%rsp),%r13
	mov    %rax,0x10(%rsp)
	mov    0xb0(%rsp),%r12
	mov    %fs:0x28,%rax
	mov    %rax,0x58(%rsp)
	xor    %eax,%eax
	mov    %rdx,0x10(%rdi)
	mov    0x8(%rcx),%rdx
	sub    (%rcx),%rdx
	movw   $0x0,0x18(%rdi)
	movl   $0x0,0x1c(%rdi)
	movq   $0x0,0x30(%rdi)
	movaps %xmm0,(%rdi)
	movaps %xmm0,0x20(%rdi)
	je     <_ZN9benchmark5StateC2ENSt7__cxx1112basic_stringIcSt11char_traitsIcESaIcEEElRKSt6vectorIlSaIlEEiiPNS_8internal11ThreadTimerEPNSC_13ThreadManagerEPNSC_23PerfCountersMeasurementEPNS_15ProfilerManagerE+0x358>
	movabs $0x7ffffffffffffff8,%rax
	cmp    %rdx,%rax
	jb     <_ZN9benchmark5StateC2ENSt7__cxx1112basic_stringIcSt11char_traitsIcESaIcEEElRKSt6vectorIlSaIlEEiiPNS_8internal11ThreadTimerEPNSC_13ThreadManagerEPNSC_23PerfCountersMeasurementEPNS_15ProfilerManagerE+0x64d>
	mov    %rdx,%rdi
	mov    %rcx,0x18(%rsp)
	mov    %rdx,0x8(%rsp)
	call   <_Znwm@plt>
	mov    0x8(%rsp),%rdx
	mov    0x18(%rsp),%rcx
	mov    %rax,%rdi
	movq   %rdi,%xmm0
	add    %rdi,%rdx
	punpcklqdq %xmm0,%xmm0
	mov    %rdx,0x30(%r15)
	movaps %xmm0,0x20(%r15)
	mov    (%rcx),%rsi
	mov    0x8(%rcx),%rdx
	sub    %rsi,%rdx
	cmp    $0x8,%rdx
	jle    <_ZN9benchmark5StateC2ENSt7__cxx1112basic_stringIcSt11char_traitsIcESaIcEEElRKSt6vectorIlSaIlEEiiPNS_8internal11ThreadTimerEPNSC_13ThreadManagerEPNSC_23PerfCountersMeasurementEPNS_15ProfilerManagerE+0x5e8>
	mov    %rdx,0x8(%rsp)
	call   <memmove@plt>
	mov    0x8(%rsp),%rdx
	mov    %rax,%rdi
	lea    0x80(%r15),%rcx
	lea    0x48(%r15),%rax
	add    %rdx,%rdi
	movq   $0x0,0x38(%r15)
	mov    %rcx,0x70(%r15)
	mov    (%rbx),%rdx
	mov    %rax,0x8(%rsp)
	mov    %rax,0x58(%r15)
	mov    %rax,0x60(%r15)
	lea    0x10(%rbx),%rax
	mov    %rdi,0x28(%r15)
	movl   $0x0,0x48(%r15)
	movq   $0x0,0x50(%r15)
	movq   $0x0,0x68(%r15)
	cmp    %rax,%rdx
	je     <_ZN9benchmark5StateC2ENSt7__cxx1112basic_stringIcSt11char_traitsIcESaIcEEElRKSt6vectorIlSaIlEEiiPNS_8internal11ThreadTimerEPNSC_13ThreadManagerEPNSC_23PerfCountersMeasurementEPNS_15ProfilerManagerE+0x598>
	mov    %rdx,0x70(%r15)
	mov    0x10(%rbx),%rdx
	mov    %rdx,0x80(%r15)
	mov    0x8(%rbx),%rdx
	mov    %rax,(%rbx)
	mov    (%rsp),%eax
	movq   $0x0,0x8(%rbx)
	mov    %eax,0x94(%r15)
	mov    0x10(%rsp),%rax
	mov    %rdx,0x78(%r15)
	mov    %ebp,0x90(%r15)
	movb   $0x0,0x10(%rbx)
	mov    %r14,0x98(%r15)
	mov    %r13,0xa0(%r15)
	mov    %r12,0xa8(%r15)
	mov    %rax,0xb0(%r15)
	movzbl 0x60784(%rip),%eax        # <_ZGVZN9benchmark8internal18GetNullLogInstanceEvE8null_log>
	test   %al,%al
	je     <_ZN9benchmark5StateC2ENSt7__cxx1112basic_stringIcSt11char_traitsIcESaIcEEElRKSt6vectorIlSaIlEEiiPNS_8internal11ThreadTimerEPNSC_13ThreadManagerEPNSC_23PerfCountersMeasurementEPNS_15ProfilerManagerE+0x569>
	mov    0x6077d(%rip),%rdi        # <_ZZN9benchmark8internal18GetNullLogInstanceEvE8null_log>
	test   %rdi,%rdi
	je     <_ZN9benchmark5StateC2ENSt7__cxx1112basic_stringIcSt11char_traitsIcESaIcEEElRKSt6vectorIlSaIlEEiiPNS_8internal11ThreadTimerEPNSC_13ThreadManagerEPNSC_23PerfCountersMeasurementEPNS_15ProfilerManagerE+0x1c9>
	mov    $0x22,%edx
	lea    0x4f2a4(%rip),%rsi        # <_IO_stdin_used+0x568>
	call   <_ZSt16__ostream_insertIcSt11char_traitsIcEERSt13basic_ostreamIT_T0_ES6_PKS3_l@plt>
	movzbl 0x60758(%rip),%eax        # <_ZGVZN9benchmark8internal18GetNullLogInstanceEvE8null_log>
	test   %al,%al
	je     <_ZN9benchmark5StateC2ENSt7__cxx1112basic_stringIcSt11char_traitsIcESaIcEEElRKSt6vectorIlSaIlEEiiPNS_8internal11ThreadTimerEPNSC_13ThreadManagerEPNSC_23PerfCountersMeasurementEPNS_15ProfilerManagerE+0x53a>
	mov    0x60751(%rip),%rdi        # <_ZZN9benchmark8internal18GetNullLogInstanceEvE8null_log>
	test   %rdi,%rdi
	je     <_ZN9benchmark5StateC2ENSt7__cxx1112basic_stringIcSt11char_traitsIcESaIcEEElRKSt6vectorIlSaIlEEiiPNS_8internal11ThreadTimerEPNSC_13ThreadManagerEPNSC_23PerfCountersMeasurementEPNS_15ProfilerManagerE+0x1f5>
	mov    $0x26,%edx
	lea    0x4f2a0(%rip),%rsi        # <_IO_stdin_used+0x590>
	call   <_ZSt16__ostream_insertIcSt11char_traitsIcEERSt13basic_ostreamIT_T0_ES6_PKS3_l@plt>
	mov    0xa8(%r15),%rbx
	test   %rbx,%rbx
	je     <_ZN9benchmark5StateC2ENSt7__cxx1112basic_stringIcSt11char_traitsIcESaIcEEElRKSt6vectorIlSaIlEEiiPNS_8internal11ThreadTimerEPNSC_13ThreadManagerEPNSC_23PerfCountersMeasurementEPNS_15ProfilerManagerE+0x330>
	mov    0x38(%rbx),%r14
	mov    0x30(%rbx),%r12
	pxor   %xmm0,%xmm0
	movq   $0x0,0x50(%rsp)
	movaps %xmm0,0x40(%rsp)
	mov    %r14,%rax
	sub    %r12,%rax
	mov    %rax,0x28(%rsp)
	je     <_ZN9benchmark5StateC2ENSt7__cxx1112basic_stringIcSt11char_traitsIcESaIcEEElRKSt6vectorIlSaIlEEiiPNS_8internal11ThreadTimerEPNSC_13ThreadManagerEPNSC_23PerfCountersMeasurementEPNS_15ProfilerManagerE+0x312>
	mov    %rax,%rcx
	movabs $0x7fffffffffffffe0,%rax
	cmp    %rcx,%rax
	jb     <_ZN9benchmark5StateC2ENSt7__cxx1112basic_stringIcSt11char_traitsIcESaIcEEElRKSt6vectorIlSaIlEEiiPNS_8internal11ThreadTimerEPNSC_13ThreadManagerEPNSC_23PerfCountersMeasurementEPNS_15ProfilerManagerE+0x652>
	mov    %rcx,%rdi
	mov    %rcx,%rbp
	call   <_Znwm@plt>
	movq   %rax,%xmm0
	mov    0x38(%rbx),%r14
	mov    0x30(%rbx),%r12
	mov    %rax,0x18(%rsp)
	punpcklqdq %xmm0,%xmm0
	add    %rbp,%rax
	mov    %rax,0x50(%rsp)
	movaps %xmm0,0x40(%rsp)
	cmp    %r14,%r12
	je     <_ZN9benchmark5StateC2ENSt7__cxx1112basic_stringIcSt11char_traitsIcESaIcEEElRKSt6vectorIlSaIlEEiiPNS_8internal11ThreadTimerEPNSC_13ThreadManagerEPNSC_23PerfCountersMeasurementEPNS_15ProfilerManagerE+0x4ff>
	lea    0x38(%rsp),%rax
	mov    0x18(%rsp),%rbx
	mov    %rax,(%rsp)
	jmp    <_ZN9benchmark5StateC2ENSt7__cxx1112basic_stringIcSt11char_traitsIcESaIcEEElRKSt6vectorIlSaIlEEiiPNS_8internal11ThreadTimerEPNSC_13ThreadManagerEPNSC_23PerfCountersMeasurementEPNS_15ProfilerManagerE+0x2b4>
	nopl   (%rax)
	cmp    $0x1,%rbp
	je     <_ZN9benchmark5StateC2ENSt7__cxx1112basic_stringIcSt11char_traitsIcESaIcEEElRKSt6vectorIlSaIlEEiiPNS_8internal11ThreadTimerEPNSC_13ThreadManagerEPNSC_23PerfCountersMeasurementEPNS_15ProfilerManagerE+0x308>
	test   %rbp,%rbp
	jne    <_ZN9benchmark5StateC2ENSt7__cxx1112basic_stringIcSt11char_traitsIcESaIcEEElRKSt6vectorIlSaIlEEiiPNS_8internal11ThreadTimerEPNSC_13ThreadManagerEPNSC_23PerfCountersMeasurementEPNS_15ProfilerManagerE+0x2ec>
	add    $0x20,%r12
	mov    %rbp,0x8(%rbx)
	add    $0x20,%rbx
	movb   $0x0,(%rdi,%rbp,1)
	cmp    %r12,%r14
	je     <_ZN9benchmark5StateC2ENSt7__cxx1112basic_stringIcSt11char_traitsIcESaIcEEElRKSt6vectorIlSaIlEEiiPNS_8internal11ThreadTimerEPNSC_13ThreadManagerEPNSC_23PerfCountersMeasurementEPNS_15ProfilerManagerE+0x368>
	mov    0x8(%r12),%rbp
	lea    0x10(%rbx),%rdi
	mov    %rdi,(%rbx)
	mov    (%r12),%r13
	mov    %rbp,0x38(%rsp)
	cmp    $0xf,%rbp
	jbe    <_ZN9benchmark5StateC2ENSt7__cxx1112basic_stringIcSt11char_traitsIcESaIcEEElRKSt6vectorIlSaIlEEiiPNS_8internal11ThreadTimerEPNSC_13ThreadManagerEPNSC_23PerfCountersMeasurementEPNS_15ProfilerManagerE+0x290>
	mov    (%rsp),%rsi
	xor    %edx,%edx
	mov    %rbx,%rdi
	call   <_ZNSt7__cxx1112basic_stringIcSt11char_traitsIcESaIcEE9_M_createERmm@plt>
	mov    %rax,(%rbx)
	mov    %rax,%rdi
	mov    0x38(%rsp),%rax
	mov    %rax,0x10(%rbx)
	mov    %rbp,%rdx
	mov    %r13,%rsi
	call   <memcpy@plt>
	mov    0x38(%rsp),%rbp
	mov    (%rbx),%rdi
	jmp    <_ZN9benchmark5StateC2ENSt7__cxx1112basic_stringIcSt11char_traitsIcESaIcEEElRKSt6vectorIlSaIlEEiiPNS_8internal11ThreadTimerEPNSC_13ThreadManagerEPNSC_23PerfCountersMeasurementEPNS_15ProfilerManagerE+0x29b>
	nopl   0x0(%rax)
	movzbl 0x0(%r13),%eax
	mov    %al,0x10(%rbx)
	jmp    <_ZN9benchmark5StateC2ENSt7__cxx1112basic_stringIcSt11char_traitsIcESaIcEEElRKSt6vectorIlSaIlEEiiPNS_8internal11ThreadTimerEPNSC_13ThreadManagerEPNSC_23PerfCountersMeasurementEPNS_15ProfilerManagerE+0x29b>
	movq   $0x0,0x50(%rsp)
	movq   $0x0,0x18(%rsp)
	cmp    %r12,%r14
	jne    <_ZN9benchmark5StateC2ENSt7__cxx1112basic_stringIcSt11char_traitsIcESaIcEEElRKSt6vectorIlSaIlEEiiPNS_8internal11ThreadTimerEPNSC_13ThreadManagerEPNSC_23PerfCountersMeasurementEPNS_15ProfilerManagerE+0x27d>
	nopl   (%rax)
	mov    0x58(%rsp),%rax
	sub    %fs:0x28,%rax
	jne    <_ZN9benchmark5StateC2ENSt7__cxx1112basic_stringIcSt11char_traitsIcESaIcEEElRKSt6vectorIlSaIlEEiiPNS_8internal11ThreadTimerEPNSC_13ThreadManagerEPNSC_23PerfCountersMeasurementEPNS_15ProfilerManagerE+0x674>
	add    $0x68,%rsp
	pop    %rbx
	pop    %rbp
	pop    %r12
	pop    %r13
	pop    %r14
	pop    %r15
	ret
	nopl   0x0(%rax,%rax,1)
	xor    %edx,%edx
	xor    %edi,%edi
	jmp    <_ZN9benchmark5StateC2ENSt7__cxx1112basic_stringIcSt11char_traitsIcESaIcEEElRKSt6vectorIlSaIlEEiiPNS_8internal11ThreadTimerEPNSC_13ThreadManagerEPNSC_23PerfCountersMeasurementEPNS_15ProfilerManagerE+0xb7>
	nopl   0x0(%rax)
	mov    %rbx,0x48(%rsp)
	cmp    %rbx,0x18(%rsp)
	je     <_ZN9benchmark5StateC2ENSt7__cxx1112basic_stringIcSt11char_traitsIcESaIcEEElRKSt6vectorIlSaIlEEiiPNS_8internal11ThreadTimerEPNSC_13ThreadManagerEPNSC_23PerfCountersMeasurementEPNS_15ProfilerManagerE+0x4ff>
	lea    0x40(%r15),%rax
	mov    %rax,0x20(%rsp)
	mov    0x18(%rsp),%rax
	mov    %rax,(%rsp)
	nopw   0x0(%rax,%rax,1)
	mov    0x50(%r15),%r12
	test   %r12,%r12
	je     <_ZN9benchmark5StateC2ENSt7__cxx1112basic_stringIcSt11char_traitsIcESaIcEEElRKSt6vectorIlSaIlEEiiPNS_8internal11ThreadTimerEPNSC_13ThreadManagerEPNSC_23PerfCountersMeasurementEPNS_15ProfilerManagerE+0x530>
	mov    (%rsp),%rax
	mov    0x8(%rsp),%r14
	mov    %rbx,0x10(%rsp)
	mov    0x8(%rax),%r13
	mov    (%rax),%rbp
	mov    %r13,%rbx
	mov    %r12,%r13
	jmp    <_ZN9benchmark5StateC2ENSt7__cxx1112basic_stringIcSt11char_traitsIcESaIcEEElRKSt6vectorIlSaIlEEiiPNS_8internal11ThreadTimerEPNSC_13ThreadManagerEPNSC_23PerfCountersMeasurementEPNS_15ProfilerManagerE+0x3c9>
	nopw   0x0(%rax,%rax,1)
	mov    0x18(%r13),%r13
	test   %r13,%r13
	je     <_ZN9benchmark5StateC2ENSt7__cxx1112basic_stringIcSt11char_traitsIcESaIcEEElRKSt6vectorIlSaIlEEiiPNS_8internal11ThreadTimerEPNSC_13ThreadManagerEPNSC_23PerfCountersMeasurementEPNS_15ProfilerManagerE+0x41b>
	mov    0x28(%r13),%r12
	mov    %rbx,%rdx
	mov    0x20(%r13),%rdi
	cmp    %rbx,%r12
	cmovbe %r12,%rdx
	test   %rdx,%rdx
	je     <_ZN9benchmark5StateC2ENSt7__cxx1112basic_stringIcSt11char_traitsIcESaIcEEElRKSt6vectorIlSaIlEEiiPNS_8internal11ThreadTimerEPNSC_13ThreadManagerEPNSC_23PerfCountersMeasurementEPNS_15ProfilerManagerE+0x3ec>
	mov    %rbp,%rsi
	call   <memcmp@plt>
	test   %eax,%eax
	jne    <_ZN9benchmark5StateC2ENSt7__cxx1112basic_stringIcSt11char_traitsIcESaIcEEElRKSt6vectorIlSaIlEEiiPNS_8internal11ThreadTimerEPNSC_13ThreadManagerEPNSC_23PerfCountersMeasurementEPNS_15ProfilerManagerE+0x40b>
	sub    %rbx,%r12
	mov    $0x80000000,%eax
	cmp    %rax,%r12
	jge    <_ZN9benchmark5StateC2ENSt7__cxx1112basic_stringIcSt11char_traitsIcESaIcEEElRKSt6vectorIlSaIlEEiiPNS_8internal11ThreadTimerEPNSC_13ThreadManagerEPNSC_23PerfCountersMeasurementEPNS_15ProfilerManagerE+0x40f>
	movabs $0xffffffff7fffffff,%rax
	cmp    %rax,%r12
	jle    <_ZN9benchmark5StateC2ENSt7__cxx1112basic_stringIcSt11char_traitsIcESaIcEEElRKSt6vectorIlSaIlEEiiPNS_8internal11ThreadTimerEPNSC_13ThreadManagerEPNSC_23PerfCountersMeasurementEPNS_15ProfilerManagerE+0x3c0>
	mov    %r12d,%eax
	test   %eax,%eax
	js     <_ZN9benchmark5StateC2ENSt7__cxx1112basic_stringIcSt11char_traitsIcESaIcEEElRKSt6vectorIlSaIlEEiiPNS_8internal11ThreadTimerEPNSC_13ThreadManagerEPNSC_23PerfCountersMeasurementEPNS_15ProfilerManagerE+0x3c0>
	mov    %r13,%r14
	mov    0x10(%r13),%r13
	test   %r13,%r13
	jne    <_ZN9benchmark5StateC2ENSt7__cxx1112basic_stringIcSt11char_traitsIcESaIcEEElRKSt6vectorIlSaIlEEiiPNS_8internal11ThreadTimerEPNSC_13ThreadManagerEPNSC_23PerfCountersMeasurementEPNS_15ProfilerManagerE+0x3c9>
	mov    %rbx,%r13
	mov    0x10(%rsp),%rbx
	cmp    %r14,0x8(%rsp)
	je     <_ZN9benchmark5StateC2ENSt7__cxx1112basic_stringIcSt11char_traitsIcESaIcEEElRKSt6vectorIlSaIlEEiiPNS_8internal11ThreadTimerEPNSC_13ThreadManagerEPNSC_23PerfCountersMeasurementEPNS_15ProfilerManagerE+0x47d>
	mov    0x28(%r14),%rcx
	mov    %r13,%rdx
	mov    0x20(%r14),%rsi
	cmp    %r13,%rcx
	cmovbe %rcx,%rdx
	test   %rdx,%rdx
	je     <_ZN9benchmark5StateC2ENSt7__cxx1112basic_stringIcSt11char_traitsIcESaIcEEElRKSt6vectorIlSaIlEEiiPNS_8internal11ThreadTimerEPNSC_13ThreadManagerEPNSC_23PerfCountersMeasurementEPNS_15ProfilerManagerE+0x457>
	mov    %rbp,%rdi
	mov    %rcx,0x10(%rsp)
	call   <memcmp@plt>
	mov    0x10(%rsp),%rcx
	test   %eax,%eax
	jne    <_ZN9benchmark5StateC2ENSt7__cxx1112basic_stringIcSt11char_traitsIcESaIcEEElRKSt6vectorIlSaIlEEiiPNS_8internal11ThreadTimerEPNSC_13ThreadManagerEPNSC_23PerfCountersMeasurementEPNS_15ProfilerManagerE+0x479>
	mov    %r13,%r8
	mov    $0x80000000,%eax
	sub    %rcx,%r8
	cmp    %rax,%r8
	jge    <_ZN9benchmark5StateC2ENSt7__cxx1112basic_stringIcSt11char_traitsIcESaIcEEElRKSt6vectorIlSaIlEEiiPNS_8internal11ThreadTimerEPNSC_13ThreadManagerEPNSC_23PerfCountersMeasurementEPNS_15ProfilerManagerE+0x49b>
	movabs $0xffffffff7fffffff,%rax
	cmp    %rax,%r8
	jle    <_ZN9benchmark5StateC2ENSt7__cxx1112basic_stringIcSt11char_traitsIcESaIcEEElRKSt6vectorIlSaIlEEiiPNS_8internal11ThreadTimerEPNSC_13ThreadManagerEPNSC_23PerfCountersMeasurementEPNS_15ProfilerManagerE+0x47d>
	mov    %r8d,%eax
	test   %eax,%eax
	jns    <_ZN9benchmark5StateC2ENSt7__cxx1112basic_stringIcSt11char_traitsIcESaIcEEElRKSt6vectorIlSaIlEEiiPNS_8internal11ThreadTimerEPNSC_13ThreadManagerEPNSC_23PerfCountersMeasurementEPNS_15ProfilerManagerE+0x49b>
	mov    (%rsp),%rax
	mov    0x20(%rsp),%rdi
	lea    0x38(%rsp),%rdx
	mov    %r14,%rsi
	mov    %rax,0x38(%rsp)
	call   <_ZNSt8_Rb_treeINSt7__cxx1112basic_stringIcSt11char_traitsIcESaIcEEESt4pairIKS5_N9benchmark7CounterEESt10_Select1stISA_ESt4lessIS5_ESaISA_EE22_M_emplace_hint_uniqueIJRKSt21piecewise_construct_tSt5tupleIJRS7_EESL_IJEEEEESt17_Rb_tree_iteratorISA_ESt23_Rb_tree_const_iteratorISA_EDpOT_.isra.0>
	mov    %rax,%r14
	movabs $0x3e800000008,%rax
	addq   $0x20,(%rsp)
	mov    %rax,0x48(%r14)
	mov    (%rsp),%rax
	movq   $0x0,0x40(%r14)
	cmp    %rax,%rbx
	jne    <_ZN9benchmark5StateC2ENSt7__cxx1112basic_stringIcSt11char_traitsIcESaIcEEElRKSt6vectorIlSaIlEEiiPNS_8internal11ThreadTimerEPNSC_13ThreadManagerEPNSC_23PerfCountersMeasurementEPNS_15ProfilerManagerE+0x390>
	mov    0x18(%rsp),%rbp
	nopl   0x0(%rax,%rax,1)
	mov    0x0(%rbp),%rdi
	lea    0x10(%rbp),%rax
	cmp    %rax,%rdi
	je     <_ZN9benchmark5StateC2ENSt7__cxx1112basic_stringIcSt11char_traitsIcESaIcEEElRKSt6vectorIlSaIlEEiiPNS_8internal11ThreadTimerEPNSC_13ThreadManagerEPNSC_23PerfCountersMeasurementEPNS_15ProfilerManagerE+0x4ea>
	mov    0x10(%rbp),%rax
	lea    0x1(%rax),%rsi
	call   <_ZdlPvm@plt>
	add    $0x20,%rbp
	cmp    %rbp,%rbx
	jne    <_ZN9benchmark5StateC2ENSt7__cxx1112basic_stringIcSt11char_traitsIcESaIcEEElRKSt6vectorIlSaIlEEiiPNS_8internal11ThreadTimerEPNSC_13ThreadManagerEPNSC_23PerfCountersMeasurementEPNS_15ProfilerManagerE+0x4d0>
	cmpq   $0x0,0x18(%rsp)
	je     <_ZN9benchmark5StateC2ENSt7__cxx1112basic_stringIcSt11char_traitsIcESaIcEEElRKSt6vectorIlSaIlEEiiPNS_8internal11ThreadTimerEPNSC_13ThreadManagerEPNSC_23PerfCountersMeasurementEPNS_15ProfilerManagerE+0x330>
	mov    0x58(%rsp),%rax
	sub    %fs:0x28,%rax
	jne    <_ZN9benchmark5StateC2ENSt7__cxx1112basic_stringIcSt11char_traitsIcESaIcEEElRKSt6vectorIlSaIlEEiiPNS_8internal11ThreadTimerEPNSC_13ThreadManagerEPNSC_23PerfCountersMeasurementEPNS_15ProfilerManagerE+0x674>
	mov    0x28(%rsp),%rsi
	mov    0x18(%rsp),%rdi
	add    $0x68,%rsp
	pop    %rbx
	pop    %rbp
	pop    %r12
	pop    %r13
	pop    %r14
	pop    %r15
	jmp    <_ZdlPvm@plt>
	mov    0x8(%rsp),%r14
	jmp    <_ZN9benchmark5StateC2ENSt7__cxx1112basic_stringIcSt11char_traitsIcESaIcEEElRKSt6vectorIlSaIlEEiiPNS_8internal11ThreadTimerEPNSC_13ThreadManagerEPNSC_23PerfCountersMeasurementEPNS_15ProfilerManagerE+0x47d>
	lea    0x603e7(%rip),%rbx        # <_ZGVZN9benchmark8internal18GetNullLogInstanceEvE8null_log>
	mov    %rbx,%rdi
	call   <__cxa_guard_acquire@plt>
	test   %eax,%eax
	je     <_ZN9benchmark5StateC2ENSt7__cxx1112basic_stringIcSt11char_traitsIcESaIcEEElRKSt6vectorIlSaIlEEiiPNS_8internal11ThreadTimerEPNSC_13ThreadManagerEPNSC_23PerfCountersMeasurementEPNS_15ProfilerManagerE+0x1d8>
	movq   $0x0,0x603d4(%rip)        # <_ZZN9benchmark8internal18GetNullLogInstanceEvE8null_log>
	mov    %rbx,%rdi
	call   <__cxa_guard_release@plt>
	jmp    <_ZN9benchmark5StateC2ENSt7__cxx1112basic_stringIcSt11char_traitsIcESaIcEEElRKSt6vectorIlSaIlEEiiPNS_8internal11ThreadTimerEPNSC_13ThreadManagerEPNSC_23PerfCountersMeasurementEPNS_15ProfilerManagerE+0x1d8>
	lea    0x603b8(%rip),%rbx        # <_ZGVZN9benchmark8internal18GetNullLogInstanceEvE8null_log>
	mov    %rbx,%rdi
	call   <__cxa_guard_acquire@plt>
	test   %eax,%eax
	je     <_ZN9benchmark5StateC2ENSt7__cxx1112basic_stringIcSt11char_traitsIcESaIcEEElRKSt6vectorIlSaIlEEiiPNS_8internal11ThreadTimerEPNSC_13ThreadManagerEPNSC_23PerfCountersMeasurementEPNS_15ProfilerManagerE+0x1ac>
	movq   $0x0,0x603a5(%rip)        # <_ZZN9benchmark8internal18GetNullLogInstanceEvE8null_log>
	mov    %rbx,%rdi
	call   <__cxa_guard_release@plt>
	jmp    <_ZN9benchmark5StateC2ENSt7__cxx1112basic_stringIcSt11char_traitsIcESaIcEEElRKSt6vectorIlSaIlEEiiPNS_8internal11ThreadTimerEPNSC_13ThreadManagerEPNSC_23PerfCountersMeasurementEPNS_15ProfilerManagerE+0x1ac>
	mov    0x8(%rbx),%rdx
	lea    0x1(%rdx),%rsi
	cmp    $0x8,%esi
	jae    <_ZN9benchmark5StateC2ENSt7__cxx1112basic_stringIcSt11char_traitsIcESaIcEEElRKSt6vectorIlSaIlEEiiPNS_8internal11ThreadTimerEPNSC_13ThreadManagerEPNSC_23PerfCountersMeasurementEPNS_15ProfilerManagerE+0x5f9>
	test   $0x4,%sil
	jne    <_ZN9benchmark5StateC2ENSt7__cxx1112basic_stringIcSt11char_traitsIcESaIcEEElRKSt6vectorIlSaIlEEiiPNS_8internal11ThreadTimerEPNSC_13ThreadManagerEPNSC_23PerfCountersMeasurementEPNS_15ProfilerManagerE+0x657>
	test   %esi,%esi
	je     <_ZN9benchmark5StateC2ENSt7__cxx1112basic_stringIcSt11char_traitsIcESaIcEEElRKSt6vectorIlSaIlEEiiPNS_8internal11ThreadTimerEPNSC_13ThreadManagerEPNSC_23PerfCountersMeasurementEPNS_15ProfilerManagerE+0x158>
	movzbl 0x10(%rbx),%edx
	mov    %dl,0x80(%r15)
	test   $0x2,%sil
	je     <_ZN9benchmark5StateC2ENSt7__cxx1112basic_stringIcSt11char_traitsIcESaIcEEElRKSt6vectorIlSaIlEEiiPNS_8internal11ThreadTimerEPNSC_13ThreadManagerEPNSC_23PerfCountersMeasurementEPNS_15ProfilerManagerE+0x154>
	mov    %esi,%esi
	movzwl -0x2(%rax,%rsi,1),%edx
	mov    %dx,-0x2(%rcx,%rsi,1)
	mov    0x8(%rbx),%rdx
	jmp    <_ZN9benchmark5StateC2ENSt7__cxx1112basic_stringIcSt11char_traitsIcESaIcEEElRKSt6vectorIlSaIlEEiiPNS_8internal11ThreadTimerEPNSC_13ThreadManagerEPNSC_23PerfCountersMeasurementEPNS_15ProfilerManagerE+0x158>
	nopl   0x0(%rax)
	jne    <_ZN9benchmark5StateC2ENSt7__cxx1112basic_stringIcSt11char_traitsIcESaIcEEElRKSt6vectorIlSaIlEEiiPNS_8internal11ThreadTimerEPNSC_13ThreadManagerEPNSC_23PerfCountersMeasurementEPNS_15ProfilerManagerE+0xf2>
	mov    (%rsi),%rax
	mov    %rax,(%rdi)
	jmp    <_ZN9benchmark5StateC2ENSt7__cxx1112basic_stringIcSt11char_traitsIcESaIcEEElRKSt6vectorIlSaIlEEiiPNS_8internal11ThreadTimerEPNSC_13ThreadManagerEPNSC_23PerfCountersMeasurementEPNS_15ProfilerManagerE+0xf2>
	mov    0x10(%rbx),%rdx
	mov    %rax,%r8
	mov    %rdx,0x80(%r15)
	mov    %esi,%edx
	mov    -0x8(%rax,%rdx,1),%rdi
	mov    %rdi,-0x8(%rcx,%rdx,1)
	lea    0x88(%r15),%rdi
	and    $0xfffffffffffffff8,%rdi
	sub    %rdi,%rcx
	add    %ecx,%esi
	sub    %rcx,%r8
	and    $0xfffffff8,%esi
	cmp    $0x8,%esi
	jb     <_ZN9benchmark5StateC2ENSt7__cxx1112basic_stringIcSt11char_traitsIcESaIcEEElRKSt6vectorIlSaIlEEiiPNS_8internal11ThreadTimerEPNSC_13ThreadManagerEPNSC_23PerfCountersMeasurementEPNS_15ProfilerManagerE+0x154>
	and    $0xfffffff8,%esi
	xor    %edx,%edx
	mov    %edx,%ecx
	add    $0x8,%edx
	mov    (%r8,%rcx,1),%r9
	mov    %r9,(%rdi,%rcx,1)
	cmp    %esi,%edx
	jb     <_ZN9benchmark5StateC2ENSt7__cxx1112basic_stringIcSt11char_traitsIcESaIcEEElRKSt6vectorIlSaIlEEiiPNS_8internal11ThreadTimerEPNSC_13ThreadManagerEPNSC_23PerfCountersMeasurementEPNS_15ProfilerManagerE+0x637>
	jmp    <_ZN9benchmark5StateC2ENSt7__cxx1112basic_stringIcSt11char_traitsIcESaIcEEElRKSt6vectorIlSaIlEEiiPNS_8internal11ThreadTimerEPNSC_13ThreadManagerEPNSC_23PerfCountersMeasurementEPNS_15ProfilerManagerE+0x154>
	call   <_ZSt28__throw_bad_array_new_lengthv@plt>
	call   <_ZSt28__throw_bad_array_new_lengthv@plt>
	mov    0x10(%rbx),%edx
	mov    %esi,%esi
	mov    %edx,0x80(%r15)
	mov    -0x4(%rax,%rsi,1),%edx
	mov    %edx,-0x4(%rcx,%rsi,1)
	mov    0x8(%rbx),%rdx
	jmp    <_ZN9benchmark5StateC2ENSt7__cxx1112basic_stringIcSt11char_traitsIcESaIcEEElRKSt6vectorIlSaIlEEiiPNS_8internal11ThreadTimerEPNSC_13ThreadManagerEPNSC_23PerfCountersMeasurementEPNS_15ProfilerManagerE+0x158>
	call   <__stack_chk_fail@plt>
	endbr64
	mov    %rax,%rbx
	jmp    <_ZN9benchmark5StateC2ENSt7__cxx1112basic_stringIcSt11char_traitsIcESaIcEEElRKSt6vectorIlSaIlEEiiPNS_8internal11ThreadTimerEPNSC_13ThreadManagerEPNSC_23PerfCountersMeasurementEPNS_15ProfilerManagerE.cold>
	endbr64
	mov    %rax,%rbx
	jmp    <_ZN9benchmark5StateC2ENSt7__cxx1112basic_stringIcSt11char_traitsIcESaIcEEElRKSt6vectorIlSaIlEEiiPNS_8internal11ThreadTimerEPNSC_13ThreadManagerEPNSC_23PerfCountersMeasurementEPNS_15ProfilerManagerE.cold+0xa>
	endbr64
	mov    %rax,%rdi
	jmp    <_ZN9benchmark5StateC2ENSt7__cxx1112basic_stringIcSt11char_traitsIcESaIcEEElRKSt6vectorIlSaIlEEiiPNS_8internal11ThreadTimerEPNSC_13ThreadManagerEPNSC_23PerfCountersMeasurementEPNS_15ProfilerManagerE.cold+0x39>
	nop
	xchg   %ax,%ax

<_ZN9benchmark5State11PauseTimingEv>:
	endbr64
	push   %r15
	push   %r14
	push   %r13
	push   %r12
	push   %rbp
	push   %rbx
	sub    $0xa8,%rsp
	mov    %rdi,0x18(%rsp)
	mov    %fs:0x28,%rax
	mov    %rax,0x98(%rsp)
	xor    %eax,%eax
	movzbl 0x60254(%rip),%eax        # <_ZGVZN9benchmark8internal18GetNullLogInstanceEvE8null_log>
	test   %al,%al
	je     <_ZN9benchmark5State11PauseTimingEv+0x5c9>
	mov    0x18(%rsp),%rax
	mov    0x98(%rax),%rbx
	movzbl 0x60239(%rip),%eax        # <_ZGVZN9benchmark8internal18GetNullLogInstanceEvE8null_log>
	test   %al,%al
	je     <_ZN9benchmark5State11PauseTimingEv+0x59a>
	movb   $0x0,0x1(%rbx)
	call   <_ZNSt6chrono3_V212steady_clock3nowEv@plt>
	pxor   %xmm0,%xmm0
	cmpb   $0x0,(%rbx)
	cvtsi2sd %rax,%xmm0
	divsd  0x5074c(%rip),%xmm0        # <_ZSt19piecewise_construct+0x9f>
	subsd  0x8(%rbx),%xmm0
	addsd  0x18(%rbx),%xmm0
	movsd  %xmm0,0x18(%rbx)
	je     <_ZN9benchmark5State11PauseTimingEv+0xfd>
	call   <_ZN9benchmark15ProcessCPUUsageEv>
	subsd  0x10(%rbx),%xmm0
	pxor   %xmm1,%xmm1
	comisd %xmm0,%xmm1
	jbe    <_ZN9benchmark5State11PauseTimingEv+0x9d>
	movapd %xmm1,%xmm0
	mov    0x18(%rsp),%rax
	addsd  0x20(%rbx),%xmm0
	mov    0xa8(%rax),%rbp
	movsd  %xmm0,0x20(%rbx)
	test   %rbp,%rbp
	je     <_ZN9benchmark5State11PauseTimingEv+0xd4>
	pxor   %xmm0,%xmm0
	mov    0x30(%rbp),%rax
	movq   $0x0,0x60(%rsp)
	movaps %xmm0,0x50(%rsp)
	cmp    %rax,0x38(%rbp)
	jne    <_ZN9benchmark5State11PauseTimingEv+0x104>
	mov    0x98(%rsp),%rax
	sub    %fs:0x28,%rax
	jne    <_ZN9benchmark5State11PauseTimingEv+0x6a0>
	add    $0xa8,%rsp
	pop    %rbx
	pop    %rbp
	pop    %r12
	pop    %r13
	pop    %r14
	pop    %r15
	ret
	call   <_ZN9benchmark14ThreadCPUUsageEv>
	jmp    <_ZN9benchmark5State11PauseTimingEv+0x8a>
	lea    0x18(%rbp),%rsi
	lea    0x168(%rbp),%rdi
	call   <_ZN9benchmark8internal17PerfCounterValues4ReadERKSt6vectorIiSaIiEE>
	mov    %rax,%rdx
	mov    0x8(%rbp),%rax
	sub    0x0(%rbp),%rax
	lea    0x70(%rsp),%r15
	sar    $0x2,%rax
	lea    0x80(%rsp),%r13
	cmp    %rdx,%rax
	sete   %al
	and    %al,0x48(%rbp)
	lea    0x48(%rsp),%rax
	xor    %r12d,%r12d
	mov    %rax,0x8(%rsp)
	mov    0x30(%rbp),%rdx
	cmp    %rdx,0x38(%rbp)
	jne    <_ZN9benchmark5State11PauseTimingEv+0x24d>
	jmp    <_ZN9benchmark5State11PauseTimingEv+0x392>
	nopl   0x0(%rax)
	pxor   %xmm1,%xmm1
	cvtsi2sd %rax,%xmm1
	mov    0x50(%rbp,%r12,8),%rax
	test   %rax,%rax
	js     <_ZN9benchmark5State11PauseTimingEv+0x285>
	pxor   %xmm0,%xmm0
	cvtsi2sd %rax,%xmm0
	mov    %r12,%rax
	subsd  %xmm0,%xmm1
	mov    %r13,0x70(%rsp)
	shl    $0x5,%rax
	add    %rdx,%rax
	mov    0x8(%rax),%rbx
	mov    (%rax),%r14
	movsd  %xmm1,(%rsp)
	mov    %rbx,0x48(%rsp)
	cmp    $0xf,%rbx
	ja     <_ZN9benchmark5State11PauseTimingEv+0x2c0>
	cmp    $0x1,%rbx
	jne    <_ZN9benchmark5State11PauseTimingEv+0x2a8>
	movzbl (%r14),%eax
	mov    %al,0x80(%rsp)
	mov    %r13,%rax
	movsd  (%rsp),%xmm3
	mov    0x58(%rsp),%rsi
	mov    %rbx,0x78(%rsp)
	movb   $0x0,(%rax,%rbx,1)
	movsd  %xmm3,0x90(%rsp)
	cmp    0x60(%rsp),%rsi
	je     <_ZN9benchmark5State11PauseTimingEv+0x300>
	lea    0x10(%rsi),%rdx
	mov    %rdx,(%rsi)
	mov    0x70(%rsp),%rax
	cmp    %r13,%rax
	je     <_ZN9benchmark5State11PauseTimingEv+0x331>
	mov    %rax,(%rsi)
	mov    0x80(%rsp),%rax
	mov    %rax,0x10(%rsi)
	mov    0x78(%rsp),%rax
	movsd  0x90(%rsp),%xmm0
	mov    %rax,0x8(%rsi)
	add    $0x28,%rsi
	movsd  %xmm0,-0x8(%rsi)
	mov    %rsi,0x58(%rsp)
	mov    0x30(%rbp),%rdx
	mov    0x38(%rbp),%rax
	add    $0x1,%r12
	sub    %rdx,%rax
	sar    $0x5,%rax
	cmp    %rax,%r12
	jae    <_ZN9benchmark5State11PauseTimingEv+0x392>
	mov    0x168(%rbp,%r12,8),%rax
	test   %rax,%rax
	jns    <_ZN9benchmark5State11PauseTimingEv+0x160>
	mov    %rax,%rcx
	and    $0x1,%eax
	pxor   %xmm1,%xmm1
	shr    $1,%rcx
	or     %rax,%rcx
	mov    0x50(%rbp,%r12,8),%rax
	cvtsi2sd %rcx,%xmm1
	addsd  %xmm1,%xmm1
	test   %rax,%rax
	jns    <_ZN9benchmark5State11PauseTimingEv+0x177>
	mov    %rax,%rcx
	and    $0x1,%eax
	pxor   %xmm0,%xmm0
	shr    $1,%rcx
	or     %rax,%rcx
	cvtsi2sd %rcx,%xmm0
	addsd  %xmm0,%xmm0
	jmp    <_ZN9benchmark5State11PauseTimingEv+0x180>
	nopl   0x0(%rax,%rax,1)
	test   %rbx,%rbx
	je     <_ZN9benchmark5State11PauseTimingEv+0x1c3>
	mov    %r13,%rdi
	jmp    <_ZN9benchmark5State11PauseTimingEv+0x2e4>
	cs nopw 0x0(%rax,%rax,1)
	mov    0x8(%rsp),%rsi
	xor    %edx,%edx
	mov    %r15,%rdi
	call   <_ZNSt7__cxx1112basic_stringIcSt11char_traitsIcESaIcEE9_M_createERmm@plt>
	mov    %rax,0x70(%rsp)
	mov    %rax,%rdi
	mov    0x48(%rsp),%rax
	mov    %rax,0x80(%rsp)
	mov    %rbx,%rdx
	mov    %r14,%rsi
	call   <memcpy@plt>
	mov    0x48(%rsp),%rbx
	mov    0x70(%rsp),%rax
	jmp    <_ZN9benchmark5State11PauseTimingEv+0x1c6>
	xchg   %ax,%ax
	lea    0x50(%rsp),%rdi
	mov    %r15,%rdx
	call   <_ZNSt6vectorISt4pairINSt7__cxx1112basic_stringIcSt11char_traitsIcESaIcEEEdESaIS7_EE17_M_realloc_insertIJS7_EEEvN9__gnu_cxx17__normal_iteratorIPS7_S9_EEDpOT_>
	mov    0x70(%rsp),%rdi
	cmp    %r13,%rdi
	je     <_ZN9benchmark5State11PauseTimingEv+0x231>
	mov    0x80(%rsp),%rax
	lea    0x1(%rax),%rsi
	call   <_ZdlPvm@plt>
	jmp    <_ZN9benchmark5State11PauseTimingEv+0x231>
	mov    0x78(%rsp),%rax
	lea    0x1(%rax),%rcx
	cmp    $0x8,%ecx
	jb     <_ZN9benchmark5State11PauseTimingEv+0x5f8>
	mov    0x0(%r13),%rdi
	mov    %rdi,0x10(%rsi)
	mov    %ecx,%edi
	mov    -0x8(%r13,%rdi,1),%r8
	mov    %r8,-0x8(%rdx,%rdi,1)
	lea    0x18(%rsi),%rdi
	mov    %r13,%r8
	and    $0xfffffffffffffff8,%rdi
	sub    %rdi,%rdx
	add    %edx,%ecx
	sub    %rdx,%r8
	and    $0xfffffff8,%ecx
	cmp    $0x8,%ecx
	jb     <_ZN9benchmark5State11PauseTimingEv+0x216>
	and    $0xfffffff8,%ecx
	xor    %edx,%edx
	mov    %edx,%r9d
	add    $0x8,%edx
	mov    (%r8,%r9,1),%r10
	mov    %r10,(%rdi,%r9,1)
	cmp    %ecx,%edx
	jb     <_ZN9benchmark5State11PauseTimingEv+0x37b>
	jmp    <_ZN9benchmark5State11PauseTimingEv+0x216>
	cmpb   $0x0,0x48(%rbp)
	je     <_ZN9benchmark5State11PauseTimingEv+0x630>
	mov    0x50(%rsp),%rbp
	mov    0x58(%rsp),%rax
	mov    %rbp,0x38(%rsp)
	mov    %rax,0x20(%rsp)
	cmp    %rbp,%rax
	je     <_ZN9benchmark5State11PauseTimingEv+0x542>
	mov    0x18(%rsp),%rax
	mov    $0x80000000,%r12d
	lea    0x40(%rax),%rcx
	add    $0x48,%rax
	mov    %rax,0x8(%rsp)
	lea    0x48(%rsp),%rax
	mov    %rcx,0x28(%rsp)
	mov    %rax,0x30(%rsp)
	mov    0x18(%rsp),%rax
	movsd  0x20(%rbp),%xmm2
	mov    0x50(%rax),%r13
	movsd  %xmm2,(%rsp)
	test   %r13,%r13
	je     <_ZN9benchmark5State11PauseTimingEv+0x590>
	mov    0x8(%rbp),%r14
	mov    0x0(%rbp),%rbx
	mov    %rbp,0x10(%rsp)
	mov    0x8(%rsp),%r15
	mov    %r14,%rbp
	mov    %r13,%r14
	jmp    <_ZN9benchmark5State11PauseTimingEv+0x429>
	cs nopw 0x0(%rax,%rax,1)
	mov    0x18(%r14),%r14
	test   %r14,%r14
	je     <_ZN9benchmark5State11PauseTimingEv+0x476>
	mov    0x28(%r14),%r13
	mov    %rbp,%rdx
	mov    0x20(%r14),%rdi
	cmp    %rbp,%r13
	cmovbe %r13,%rdx
	test   %rdx,%rdx
	je     <_ZN9benchmark5State11PauseTimingEv+0x44c>
	mov    %rbx,%rsi
	call   <memcmp@plt>
	test   %eax,%eax
	jne    <_ZN9benchmark5State11PauseTimingEv+0x466>
	sub    %rbp,%r13
	cmp    %r12,%r13
	jge    <_ZN9benchmark5State11PauseTimingEv+0x46a>
	movabs $0xffffffff7fffffff,%rax
	cmp    %rax,%r13
	jle    <_ZN9benchmark5State11PauseTimingEv+0x420>
	mov    %r13d,%eax
	test   %eax,%eax
	js     <_ZN9benchmark5State11PauseTimingEv+0x420>
	mov    %r14,%r15
	mov    0x10(%r14),%r14
	test   %r14,%r14
	jne    <_ZN9benchmark5State11PauseTimingEv+0x429>
	mov    %rbp,%r14
	mov    0x10(%rsp),%rbp
	cmp    %r15,0x8(%rsp)
	je     <_ZN9benchmark5State11PauseTimingEv+0x4d3>
	mov    0x28(%r15),%rcx
	mov    %r14,%rdx
	mov    0x20(%r15),%rsi
	cmp    %r14,%rcx
	cmovbe %rcx,%rdx
	test   %rdx,%rdx
	je     <_ZN9benchmark5State11PauseTimingEv+0x4b2>
	mov    %rbx,%rdi
	mov    %rcx,0x10(%rsp)
	call   <memcmp@plt>
	mov    0x10(%rsp),%rcx
	test   %eax,%eax
	jne    <_ZN9benchmark5State11PauseTimingEv+0x4cf>
	mov    %r14,%r8
	sub    %rcx,%r8
	cmp    %r12,%r8
	jge    <_ZN9benchmark5State11PauseTimingEv+0x4ed>
	movabs $0xffffffff7fffffff,%rax
	cmp    %rax,%r8
	jle    <_ZN9benchmark5State11PauseTimingEv+0x4d3>
	mov    %r8d,%eax
	test   %eax,%eax
	jns    <_ZN9benchmark5State11PauseTimingEv+0x4ed>
	mov    0x30(%rsp),%rdx
	mov    0x28(%rsp),%rdi
	mov    %r15,%rsi
	mov    %rbp,0x48(%rsp)
	call   <_ZNSt8_Rb_treeINSt7__cxx1112basic_stringIcSt11char_traitsIcESaIcEEESt4pairIKS5_N9benchmark7CounterEESt10_Select1stISA_ESt4lessIS5_ESaISA_EE22_M_emplace_hint_uniqueIJRKSt21piecewise_construct_tSt5tupleIJRS7_EESL_IJEEEEESt17_Rb_tree_iteratorISA_ESt23_Rb_tree_const_iteratorISA_EDpOT_.isra.0>
	mov    %rax,%r15
	movsd  (%rsp),%xmm0
	addsd  0x40(%r15),%xmm0
	add    $0x28,%rbp
	movsd  %xmm0,0x40(%r15)
	cmp    %rbp,0x20(%rsp)
	jne    <_ZN9benchmark5State11PauseTimingEv+0x3e0>
	mov    0x38(%rsp),%rbx
	mov    0x20(%rsp),%rbp
	nopw   0x0(%rax,%rax,1)
	mov    (%rbx),%rdi
	lea    0x10(%rbx),%rax
	cmp    %rax,%rdi
	je     <_ZN9benchmark5State11PauseTimingEv+0x539>
	mov    0x10(%rbx),%rax
	lea    0x1(%rax),%rsi
	call   <_ZdlPvm@plt>
	add    $0x28,%rbx
	cmp    %rbx,%rbp
	jne    <_ZN9benchmark5State11PauseTimingEv+0x520>
	mov    0x60(%rsp),%rsi
	mov    0x38(%rsp),%rax
	sub    %rax,%rsi
	cmpq   $0x0,0x38(%rsp)
	je     <_ZN9benchmark5State11PauseTimingEv+0xd4>
	mov    0x98(%rsp),%rax
	sub    %fs:0x28,%rax
	jne    <_ZN9benchmark5State11PauseTimingEv+0x6a0>
	mov    0x38(%rsp),%rdi
	add    $0xa8,%rsp
	pop    %rbx
	pop    %rbp
	pop    %r12
	pop    %r13
	pop    %r14
	pop    %r15
	jmp    <_ZdlPvm@plt>
	nopl   (%rax)
	mov    0x8(%rsp),%r15
	jmp    <_ZN9benchmark5State11PauseTimingEv+0x4d3>
	lea    0x5fce7(%rip),%rbp        # <_ZGVZN9benchmark8internal18GetNullLogInstanceEvE8null_log>
	mov    %rbp,%rdi
	call   <__cxa_guard_acquire@plt>
	test   %eax,%eax
	je     <_ZN9benchmark5State11PauseTimingEv+0x57>
	movq   $0x0,0x5fcd4(%rip)        # <_ZZN9benchmark8internal18GetNullLogInstanceEvE8null_log>
	mov    %rbp,%rdi
	call   <__cxa_guard_release@plt>
	jmp    <_ZN9benchmark5State11PauseTimingEv+0x57>
	lea    0x5fcb8(%rip),%rbx        # <_ZGVZN9benchmark8internal18GetNullLogInstanceEvE8null_log>
	mov    %rbx,%rdi
	call   <__cxa_guard_acquire@plt>
	test   %eax,%eax
	je     <_ZN9benchmark5State11PauseTimingEv+0x3c>
	movq   $0x0,0x5fca5(%rip)        # <_ZZN9benchmark8internal18GetNullLogInstanceEvE8null_log>
	mov    %rbx,%rdi
	call   <__cxa_guard_release@plt>
	jmp    <_ZN9benchmark5State11PauseTimingEv+0x3c>
	test   $0x4,%cl
	jne    <_ZN9benchmark5State11PauseTimingEv+0x689>
	test   %ecx,%ecx
	je     <_ZN9benchmark5State11PauseTimingEv+0x216>
	movzbl 0x0(%r13),%edi
	mov    %dil,0x10(%rsi)
	test   $0x2,%cl
	je     <_ZN9benchmark5State11PauseTimingEv+0x216>
	mov    %ecx,%ecx
	movzwl -0x2(%r13,%rcx,1),%edi
	mov    %di,-0x2(%rdx,%rcx,1)
	jmp    <_ZN9benchmark5State11PauseTimingEv+0x216>
	nopl   (%rax)
	movzbl 0x5fc51(%rip),%eax        # <_ZGVZN9benchmark8internal18GetNullLogInstanceEvE8null_log>
	test   %al,%al
	je     <_ZN9benchmark5State11PauseTimingEv+0x661>
	mov    0x5fc4e(%rip),%rdi        # <_ZZN9benchmark8internal18GetNullLogInstanceEvE8null_log>
	test   %rdi,%rdi
	je     <_ZN9benchmark5State11PauseTimingEv+0x39c>
	mov    $0x24,%edx
	lea    0x4e7c1(%rip),%rsi        # <_IO_stdin_used+0x5b8>
	call   <_ZSt16__ostream_insertIcSt11char_traitsIcEERSt13basic_ostreamIT_T0_ES6_PKS3_l@plt>
	jmp    <_ZN9benchmark5State11PauseTimingEv+0x39c>
	lea    0x5fc20(%rip),%rbx        # <_ZGVZN9benchmark8internal18GetNullLogInstanceEvE8null_log>
	mov    %rbx,%rdi
	call   <__cxa_guard_acquire@plt>
	test   %eax,%eax
	je     <_ZN9benchmark5State11PauseTimingEv+0x63b>
	movq   $0x0,0x5fc11(%rip)        # <_ZZN9benchmark8internal18GetNullLogInstanceEvE8null_log>
	mov    %rbx,%rdi
	call   <__cxa_guard_release@plt>
	jmp    <_ZN9benchmark5State11PauseTimingEv+0x63b>
	mov    0x0(%r13),%edi
	mov    %ecx,%ecx
	mov    %edi,0x10(%rsi)
	mov    -0x4(%r13,%rcx,1),%edi
	mov    %edi,-0x4(%rdx,%rcx,1)
	jmp    <_ZN9benchmark5State11PauseTimingEv+0x216>
	call   <__stack_chk_fail@plt>
	endbr64
	mov    %rax,%rbx
	jmp    <_ZN9benchmark5State11PauseTimingEv.cold>
	endbr64
	mov    %rax,%rbx
	jmp    <_ZN9benchmark5State11PauseTimingEv.cold+0x8>
	nop
	xchg   %ax,%ax

<_ZN9benchmark5State17FinishKeepRunningEv>:
	endbr64
	push   %r14
	push   %r13
	push   %r12
	push   %rbp
	mov    %rdi,%rbp
	push   %rbx
	sub    $0x20,%rsp
	mov    %fs:0x28,%rax
	mov    %rax,0x18(%rsp)
	xor    %eax,%eax
	movzbl 0x5fb9e(%rip),%eax        # <_ZGVZN9benchmark8internal18GetNullLogInstanceEvE8null_log>
	test   %al,%al
	je     <_ZN9benchmark5State17FinishKeepRunningEv+0x160>
	mov    0x1c(%rbp),%eax
	test   %eax,%eax
	je     <_ZN9benchmark5State17FinishKeepRunningEv+0x150>
	mov    0xa0(%rbp),%rbx
	movq   $0x0,0x0(%rbp)
	movb   $0x1,0x19(%rbp)
	lea    0xd0(%rbx),%rdi
	movb   $0x0,0x8(%rsp)
	mov    %rdi,(%rsp)
	call   <pthread_mutex_lock@plt>
	test   %eax,%eax
	jne    <_ZN9benchmark5State17FinishKeepRunningEv+0x205>
	movb   $0x1,0x8(%rsp)
	movzbl 0x5fb4f(%rip),%eax        # <_ZGVZN9benchmark8internal18GetNullLogInstanceEvE8null_log>
	test   %al,%al
	je     <_ZN9benchmark5State17FinishKeepRunningEv+0x190>
	mov    0x130(%rbx),%eax
	mov    0x12c(%rbx),%r12d
	lea    0xf8(%rbx),%r13
	add    $0x1,%eax
	mov    %eax,0x130(%rbx)
	cmp    0x128(%rbx),%eax
	jge    <_ZN9benchmark5State17FinishKeepRunningEv+0xf3>
	mov    %r12d,%eax
	mov    0x128(%rbx),%edx
	cmp    %edx,0x130(%rbx)
	je     <_ZN9benchmark5State17FinishKeepRunningEv+0xf0>
	mov    %rsp,%r14
	mov    %r13,%rdi
	mov    %r14,%rsi
	call   <_ZNSt18condition_variable4waitERSt11unique_lockISt5mutexE@plt>
	mov    0x12c(%rbx),%eax
	cmp    %r12d,%eax
	jle    <_ZN9benchmark5State17FinishKeepRunningEv+0xa9>
	cmpb   $0x0,0x8(%rsp)
	je     <_ZN9benchmark5State17FinishKeepRunningEv+0x11b>
	mov    (%rsp),%rdi
	test   %rdi,%rdi
	je     <_ZN9benchmark5State17FinishKeepRunningEv+0x11b>
	call   <pthread_mutex_unlock@plt>
	jmp    <_ZN9benchmark5State17FinishKeepRunningEv+0x11b>
	nopw   0x0(%rax,%rax,1)
	mov    %eax,%r12d
	movl   $0x0,0x130(%rbx)
	add    $0x1,%r12d
	cmpb   $0x0,0x8(%rsp)
	mov    %r12d,0x12c(%rbx)
	jne    <_ZN9benchmark5State17FinishKeepRunningEv+0x1c0>
	mov    %r13,%rdi
	call   <_ZNSt18condition_variable10notify_allEv@plt>
	mov    0xb0(%rbp),%rdi
	test   %rdi,%rdi
	jne    <_ZN9benchmark5State17FinishKeepRunningEv+0x1e0>
	mov    0x18(%rsp),%rax
	sub    %fs:0x28,%rax
	jne    <_ZN9benchmark5State17FinishKeepRunningEv+0x20c>
	add    $0x20,%rsp
	pop    %rbx
	pop    %rbp
	pop    %r12
	pop    %r13
	pop    %r14
	ret
	nopl   0x0(%rax)
	mov    %rbp,%rdi
	call   <_ZN9benchmark5State11PauseTimingEv>
	jmp    <_ZN9benchmark5State17FinishKeepRunningEv+0x3d>
	nopl   (%rax)
	lea    0x5fa61(%rip),%rbx        # <_ZGVZN9benchmark8internal18GetNullLogInstanceEvE8null_log>
	mov    %rbx,%rdi
	call   <__cxa_guard_acquire@plt>
	test   %eax,%eax
	je     <_ZN9benchmark5State17FinishKeepRunningEv+0x32>
	movq   $0x0,0x5fa4e(%rip)        # <_ZZN9benchmark8internal18GetNullLogInstanceEvE8null_log>
	mov    %rbx,%rdi
	call   <__cxa_guard_release@plt>
	jmp    <_ZN9benchmark5State17FinishKeepRunningEv+0x32>
	nop
	lea    0x5fa31(%rip),%r12        # <_ZGVZN9benchmark8internal18GetNullLogInstanceEvE8null_log>
	mov    %r12,%rdi
	call   <__cxa_guard_acquire@plt>
	test   %eax,%eax
	je     <_ZN9benchmark5State17FinishKeepRunningEv+0x81>
	movq   $0x0,0x5fa1e(%rip)        # <_ZZN9benchmark8internal18GetNullLogInstanceEvE8null_log>
	mov    %r12,%rdi
	call   <__cxa_guard_release@plt>
	jmp    <_ZN9benchmark5State17FinishKeepRunningEv+0x81>
	nop
	mov    (%rsp),%rdi
	test   %rdi,%rdi
	je     <_ZN9benchmark5State17FinishKeepRunningEv+0x113>
	call   <pthread_mutex_unlock@plt>
	jmp    <_ZN9benchmark5State17FinishKeepRunningEv+0x113>
	nopw   0x0(%rax,%rax,1)
	mov    0x18(%rsp),%rax
	sub    %fs:0x28,%rax
	jne    <_ZN9benchmark5State17FinishKeepRunningEv+0x20c>
	mov    (%rdi),%rax
	mov    0x18(%rax),%rax
	add    $0x20,%rsp
	pop    %rbx
	pop    %rbp
	pop    %r12
	pop    %r13
	pop    %r14
	jmp    *%rax
	mov    %eax,%edi
	call   <_ZSt20__throw_system_errori@plt>
	call   <__stack_chk_fail@plt>
	endbr64
	mov    %rax,%rbx
	jmp    <_ZN9benchmark5State17FinishKeepRunningEv.cold>
	nop
	xchg   %ax,%ax

<_ZNSt6vectorIN9benchmark17BenchmarkReporter3RunESaIS2_EE15_M_range_insertIN9__gnu_cxx17__normal_iteratorIPS2_S4_EEEEvS9_T_SA_St20forward_iterator_tag.isra.0>:
	push   %r15
	push   %r14
	push   %r13
	push   %r12
	push   %rbp
	push   %rbx
	sub    $0x58,%rsp
	mov    %fs:0x28,%rax
	mov    %rax,0x48(%rsp)
	xor    %eax,%eax
	cmp    %rcx,%rdx
	je     <_ZNSt6vectorIN9benchmark17BenchmarkReporter3RunESaIS2_EE15_M_range_insertIN9__gnu_cxx17__normal_iteratorIPS2_S4_EEEEvS9_T_SA_St20forward_iterator_tag.isra.0+0x819>
	mov    %rcx,%r8
	mov    %rsi,%r14
	mov    %rcx,%rsi
	mov    %rdi,%r13
	sub    %rdx,%r8
	mov    0x8(%r13),%rbx
	mov    0x10(%r13),%rax
	mov    %rdx,%r12
	movabs $0xaf8af8af8af8af8b,%rdi
	mov    %r8,%rcx
	sar    $0x4,%rcx
	sub    %rbx,%rax
	imul   %rdi,%rcx
	mov    %rcx,0x8(%rsp)
	cmp    %r8,%rax
	jb     <_ZNSt6vectorIN9benchmark17BenchmarkReporter3RunESaIS2_EE15_M_range_insertIN9__gnu_cxx17__normal_iteratorIPS2_S4_EEEEvS9_T_SA_St20forward_iterator_tag.isra.0+0x840>
	mov    %rbx,%r15
	mov    %r14,%rbp
	sub    %r14,%r15
	cmp    %r15,%r8
	jae    <_ZNSt6vectorIN9benchmark17BenchmarkReporter3RunESaIS2_EE15_M_range_insertIN9__gnu_cxx17__normal_iteratorIPS2_S4_EEEEvS9_T_SA_St20forward_iterator_tag.isra.0+0x1330>
	mov    %rbx,%r15
	mov    %rbx,%rcx
	sub    %r8,%r15
	mov    %r15,%rax
	jmp    <_ZNSt6vectorIN9benchmark17BenchmarkReporter3RunESaIS2_EE15_M_range_insertIN9__gnu_cxx17__normal_iteratorIPS2_S4_EEEEvS9_T_SA_St20forward_iterator_tag.isra.0+0x128>
	nopw   0x0(%rax,%rax,1)
	mov    0x1f8(%rax),%edi
	movq   %rdx,%xmm0
	movhps 0x208(%rax),%xmm0
	mov    %edi,0x1f8(%rcx)
	mov    0x210(%rax),%rdi
	movups %xmm0,0x200(%rcx)
	mov    %rdi,0x210(%rcx)
	mov    %rsi,0x8(%rdx)
	mov    0x218(%rax),%rdx
	movq   $0x0,0x200(%rax)
	mov    %rdx,0x218(%rcx)
	lea    0x1f8(%rax),%rdx
	mov    %rdx,0x208(%rax)
	mov    %rdx,0x210(%rax)
	movq   $0x0,0x218(%rax)
	mov    0x220(%rax),%rdx
	movsd  0x228(%rax),%xmm0
	add    $0x230,%rax
	add    $0x230,%rcx
	mov    %rdx,-0x10(%rcx)
	movsd  %xmm0,-0x8(%rcx)
	cmp    %rax,%rbx
	je     <_ZNSt6vectorIN9benchmark17BenchmarkReporter3RunESaIS2_EE15_M_range_insertIN9__gnu_cxx17__normal_iteratorIPS2_S4_EEEEvS9_T_SA_St20forward_iterator_tag.isra.0+0x20e8>
	lea    0x10(%rcx),%rdi
	lea    0x10(%rax),%rdx
	mov    %rdi,(%rcx)
	mov    (%rax),%rsi
	cmp    %rdx,%rsi
	je     <_ZNSt6vectorIN9benchmark17BenchmarkReporter3RunESaIS2_EE15_M_range_insertIN9__gnu_cxx17__normal_iteratorIPS2_S4_EEEEvS9_T_SA_St20forward_iterator_tag.isra.0+0x12c0>
	mov    %rsi,(%rcx)
	mov    0x10(%rax),%rsi
	mov    %rsi,0x10(%rcx)
	mov    0x8(%rax),%r9
	lea    0x30(%rcx),%rdi
	mov    %rdx,(%rax)
	lea    0x30(%rax),%rdx
	mov    %r9,0x8(%rcx)
	movq   $0x0,0x8(%rax)
	movb   $0x0,0x10(%rax)
	mov    %rdi,0x20(%rcx)
	mov    0x20(%rax),%rsi
	cmp    %rdx,%rsi
	je     <_ZNSt6vectorIN9benchmark17BenchmarkReporter3RunESaIS2_EE15_M_range_insertIN9__gnu_cxx17__normal_iteratorIPS2_S4_EEEEvS9_T_SA_St20forward_iterator_tag.isra.0+0x1250>
	mov    %rsi,0x20(%rcx)
	mov    0x30(%rax),%rsi
	mov    %rsi,0x30(%rcx)
	mov    0x28(%rax),%r9
	lea    0x50(%rcx),%rdi
	mov    %rdx,0x20(%rax)
	lea    0x50(%rax),%rdx
	mov    %r9,0x28(%rcx)
	movq   $0x0,0x28(%rax)
	movb   $0x0,0x30(%rax)
	mov    %rdi,0x40(%rcx)
	mov    0x40(%rax),%rsi
	cmp    %rdx,%rsi
	je     <_ZNSt6vectorIN9benchmark17BenchmarkReporter3RunESaIS2_EE15_M_range_insertIN9__gnu_cxx17__normal_iteratorIPS2_S4_EEEEvS9_T_SA_St20forward_iterator_tag.isra.0+0x11e0>
	mov    %rsi,0x40(%rcx)
	mov    0x50(%rax),%rsi
	mov    %rsi,0x50(%rcx)
	mov    0x48(%rax),%r9
	lea    0x70(%rcx),%rdi
	mov    %rdx,0x40(%rax)
	lea    0x70(%rax),%rdx
	mov    %r9,0x48(%rcx)
	movq   $0x0,0x48(%rax)
	movb   $0x0,0x50(%rax)
	mov    %rdi,0x60(%rcx)
	mov    0x60(%rax),%rsi
	cmp    %rdx,%rsi
	je     <_ZNSt6vectorIN9benchmark17BenchmarkReporter3RunESaIS2_EE15_M_range_insertIN9__gnu_cxx17__normal_iteratorIPS2_S4_EEEEvS9_T_SA_St20forward_iterator_tag.isra.0+0x1170>
	mov    %rsi,0x60(%rcx)
	mov    0x70(%rax),%rsi
	mov    %rsi,0x70(%rcx)
	mov    0x68(%rax),%r9
	lea    0x90(%rcx),%rdi
	mov    %rdx,0x60(%rax)
	lea    0x90(%rax),%rdx
	mov    %r9,0x68(%rcx)
	movq   $0x0,0x68(%rax)
	movb   $0x0,0x70(%rax)
	mov    %rdi,0x80(%rcx)
	mov    0x80(%rax),%rsi
	cmp    %rdx,%rsi
	je     <_ZNSt6vectorIN9benchmark17BenchmarkReporter3RunESaIS2_EE15_M_range_insertIN9__gnu_cxx17__normal_iteratorIPS2_S4_EEEEvS9_T_SA_St20forward_iterator_tag.isra.0+0x1070>
	mov    %rsi,0x80(%rcx)
	mov    0x90(%rax),%rsi
	mov    %rsi,0x90(%rcx)
	mov    0x88(%rax),%r9
	lea    0xb0(%rcx),%rdi
	mov    %rdx,0x80(%rax)
	lea    0xb0(%rax),%rdx
	mov    %r9,0x88(%rcx)
	movq   $0x0,0x88(%rax)
	movb   $0x0,0x90(%rax)
	mov    %rdi,0xa0(%rcx)
	mov    0xa0(%rax),%rsi
	cmp    %rdx,%rsi
	je     <_ZNSt6vectorIN9benchmark17BenchmarkReporter3RunESaIS2_EE15_M_range_insertIN9__gnu_cxx17__normal_iteratorIPS2_S4_EEEEvS9_T_SA_St20forward_iterator_tag.isra.0+0xff0>
	mov    %rsi,0xa0(%rcx)
	mov    0xb0(%rax),%rsi
	mov    %rsi,0xb0(%rcx)
	mov    0xa8(%rax),%r9
	lea    0xd0(%rcx),%rdi
	mov    %rdx,0xa0(%rax)
	lea    0xd0(%rax),%rdx
	mov    %r9,0xa8(%rcx)
	movq   $0x0,0xa8(%rax)
	movb   $0x0,0xb0(%rax)
	mov    %rdi,0xc0(%rcx)
	mov    0xc0(%rax),%rsi
	cmp    %rdx,%rsi
	je     <_ZNSt6vectorIN9benchmark17BenchmarkReporter3RunESaIS2_EE15_M_range_insertIN9__gnu_cxx17__normal_iteratorIPS2_S4_EEEEvS9_T_SA_St20forward_iterator_tag.isra.0+0xf70>
	mov    %rsi,0xc0(%rcx)
	mov    0xd0(%rax),%rsi
	mov    %rsi,0xd0(%rcx)
	mov    0xc8(%rax),%r9
	lea    0xf0(%rcx),%rdi
	mov    %rdx,0xc0(%rax)
	lea    0xf0(%rax),%rdx
	mov    %r9,0xc8(%rcx)
	movq   $0x0,0xc8(%rax)
	movb   $0x0,0xd0(%rax)
	mov    %rdi,0xe0(%rcx)
	mov    0xe0(%rax),%rsi
	cmp    %rdx,%rsi
	je     <_ZNSt6vectorIN9benchmark17BenchmarkReporter3RunESaIS2_EE15_M_range_insertIN9__gnu_cxx17__normal_iteratorIPS2_S4_EEEEvS9_T_SA_St20forward_iterator_tag.isra.0+0xef0>
	mov    %rsi,0xe0(%rcx)
	mov    0xf0(%rax),%rsi
	mov    %rsi,0xf0(%rcx)
	mov    0xe8(%rax),%r9
	mov    %rdx,0xe0(%rax)
	lea    0x128(%rcx),%rdi
	mov    0x110(%rax),%edx
	movq   $0x0,0xe8(%rax)
	mov    %r9,0xe8(%rcx)
	movdqu 0x100(%rax),%xmm1
	movb   $0x0,0xf0(%rax)
	mov    %rdi,0x118(%rcx)
	mov    0x118(%rax),%rsi
	mov    %edx,0x110(%rcx)
	lea    0x128(%rax),%rdx
	movups %xmm1,0x100(%rcx)
	cmp    %rdx,%rsi
	je     <_ZNSt6vectorIN9benchmark17BenchmarkReporter3RunESaIS2_EE15_M_range_insertIN9__gnu_cxx17__normal_iteratorIPS2_S4_EEEEvS9_T_SA_St20forward_iterator_tag.isra.0+0xe70>
	mov    %rsi,0x118(%rcx)
	mov    0x128(%rax),%rsi
	mov    %rsi,0x128(%rcx)
	mov    0x120(%rax),%r9
	mov    %rdx,0x118(%rax)
	lea    0x150(%rcx),%rdi
	mov    0x138(%rax),%edx
	movq   $0x0,0x120(%rax)
	mov    %r9,0x120(%rcx)
	movb   $0x0,0x128(%rax)
	mov    %rdi,0x140(%rcx)
	mov    0x140(%rax),%rsi
	mov    %edx,0x138(%rcx)
	lea    0x150(%rax),%rdx
	cmp    %rdx,%rsi
	je     <_ZNSt6vectorIN9benchmark17BenchmarkReporter3RunESaIS2_EE15_M_range_insertIN9__gnu_cxx17__normal_iteratorIPS2_S4_EEEEvS9_T_SA_St20forward_iterator_tag.isra.0+0xdf0>
	mov    %rsi,0x140(%rcx)
	mov    0x150(%rax),%rsi
	mov    %rsi,0x150(%rcx)
	mov    0x148(%rax),%r9
	mov    %rdx,0x140(%rax)
	lea    0x178(%rcx),%rdi
	mov    0x160(%rax),%edx
	movq   $0x0,0x148(%rax)
	mov    %r9,0x148(%rcx)
	movb   $0x0,0x150(%rax)
	mov    %rdi,0x168(%rcx)
	mov    0x168(%rax),%rsi
	mov    %edx,0x160(%rcx)
	lea    0x178(%rax),%rdx
	cmp    %rdx,%rsi
	je     <_ZNSt6vectorIN9benchmark17BenchmarkReporter3RunESaIS2_EE15_M_range_insertIN9__gnu_cxx17__normal_iteratorIPS2_S4_EEEEvS9_T_SA_St20forward_iterator_tag.isra.0+0x10f0>
	mov    %rsi,0x168(%rcx)
	mov    0x178(%rax),%rsi
	mov    %rsi,0x178(%rcx)
	mov    0x170(%rax),%r9
	mov    %rdx,0x168(%rax)
	mov    0x1a8(%rax),%edx
	lea    0x1f8(%rcx),%rsi
	mov    %r9,0x170(%rcx)
	movupd 0x1b0(%rax),%xmm4
	movb   $0x0,0x178(%rax)
	movdqu 0x188(%rax),%xmm2
	movdqu 0x198(%rax),%xmm3
	movsd  0x1c0(%rax),%xmm0
	movq   $0x0,0x170(%rax)
	mov    %edx,0x1a8(%rcx)
	movzbl 0x1c8(%rax),%edx
	movups %xmm2,0x188(%rcx)
	mov    %dl,0x1c8(%rcx)
	mov    0x1cc(%rax),%edx
	movups %xmm3,0x198(%rcx)
	mov    %edx,0x1cc(%rcx)
	mov    0x1d0(%rax),%rdx
	movups %xmm4,0x1b0(%rcx)
	mov    %rdx,0x1d0(%rcx)
	mov    0x1d8(%rax),%rdx
	movsd  %xmm0,0x1c0(%rcx)
	mov    %rdx,0x1d8(%rcx)
	mov    0x1e0(%rax),%rdx
	mov    %rdx,0x1e0(%rcx)
	movzwl 0x1e8(%rax),%edx
	mov    %dx,0x1e8(%rcx)
	mov    0x200(%rax),%rdx
	test   %rdx,%rdx
	jne    <_ZNSt6vectorIN9benchmark17BenchmarkReporter3RunESaIS2_EE15_M_range_insertIN9__gnu_cxx17__normal_iteratorIPS2_S4_EEEEvS9_T_SA_St20forward_iterator_tag.isra.0+0x90>
	movl   $0x0,0x1f8(%rcx)
	movq   $0x0,0x200(%rcx)
	mov    %rsi,0x208(%rcx)
	mov    %rsi,0x210(%rcx)
	movq   $0x0,0x218(%rcx)
	jmp    <_ZNSt6vectorIN9benchmark17BenchmarkReporter3RunESaIS2_EE15_M_range_insertIN9__gnu_cxx17__normal_iteratorIPS2_S4_EEEEvS9_T_SA_St20forward_iterator_tag.isra.0+0xfa>
	cs nopw 0x0(%rax,%rax,1)
	movabs $0xf8af8af8af8af8b,%rdx
	mov    %rbx,%rax
	sub    %r14,%rax
	sub    $0x230,%rax
	shr    $0x4,%rax
	imul   %rdx,%rax
	movabs $0xfffffffffffffff,%rdx
	and    %rdx,%rax
	add    $0x1,%rax
	imul   $0x230,%rax,%rax
	add    %rax,%r15
	mov    %rbp,%r14
	cmp    %rbp,%rbx
	je     <_ZNSt6vectorIN9benchmark17BenchmarkReporter3RunESaIS2_EE15_M_range_insertIN9__gnu_cxx17__normal_iteratorIPS2_S4_EEEEvS9_T_SA_St20forward_iterator_tag.isra.0+0x7f1>
	mov    %rbp,0x10(%rsp)
	mov    %r12,0x18(%rsp)
	nop
	mov    0x200(%r14),%rbp
	test   %rbp,%rbp
	je     <_ZNSt6vectorIN9benchmark17BenchmarkReporter3RunESaIS2_EE15_M_range_insertIN9__gnu_cxx17__normal_iteratorIPS2_S4_EEEEvS9_T_SA_St20forward_iterator_tag.isra.0+0x67b>
	mov    0x18(%rbp),%rdi
	mov    %rbp,%r12
	call   <_ZNSt8_Rb_treeINSt7__cxx1112basic_stringIcSt11char_traitsIcESaIcEEESt4pairIKS5_N9benchmark7CounterEESt10_Select1stISA_ESt4lessIS5_ESaISA_EE8_M_eraseEPSt13_Rb_tree_nodeISA_E.isra.0>
	mov    0x20(%r12),%rdi
	lea    0x30(%r12),%rcx
	mov    0x10(%rbp),%rbp
	cmp    %rcx,%rdi
	je     <_ZNSt6vectorIN9benchmark17BenchmarkReporter3RunESaIS2_EE15_M_range_insertIN9__gnu_cxx17__normal_iteratorIPS2_S4_EEEEvS9_T_SA_St20forward_iterator_tag.isra.0+0x669>
	mov    0x30(%r12),%rax
	lea    0x1(%rax),%rsi
	call   <_ZdlPvm@plt>
	mov    $0x50,%esi
	mov    %r12,%rdi
	call   <_ZdlPvm@plt>
	test   %rbp,%rbp
	jne    <_ZNSt6vectorIN9benchmark17BenchmarkReporter3RunESaIS2_EE15_M_range_insertIN9__gnu_cxx17__normal_iteratorIPS2_S4_EEEEvS9_T_SA_St20forward_iterator_tag.isra.0+0x63c>
	mov    0x168(%r14),%rdi
	lea    0x178(%r14),%rax
	cmp    %rax,%rdi
	je     <_ZNSt6vectorIN9benchmark17BenchmarkReporter3RunESaIS2_EE15_M_range_insertIN9__gnu_cxx17__normal_iteratorIPS2_S4_EEEEvS9_T_SA_St20forward_iterator_tag.isra.0+0x69e>
	mov    0x178(%r14),%rax
	lea    0x1(%rax),%rsi
	call   <_ZdlPvm@plt>
	mov    0x140(%r14),%rdi
	lea    0x150(%r14),%rax
	cmp    %rax,%rdi
	je     <_ZNSt6vectorIN9benchmark17BenchmarkReporter3RunESaIS2_EE15_M_range_insertIN9__gnu_cxx17__normal_iteratorIPS2_S4_EEEEvS9_T_SA_St20forward_iterator_tag.isra.0+0x6c1>
	mov    0x150(%r14),%rax
	lea    0x1(%rax),%rsi
	call   <_ZdlPvm@plt>
	mov    0x118(%r14),%rdi
	lea    0x128(%r14),%rax
	cmp    %rax,%rdi
	je     <_ZNSt6vectorIN9benchmark17BenchmarkReporter3RunESaIS2_EE15_M_range_insertIN9__gnu_cxx17__normal_iteratorIPS2_S4_EEEEvS9_T_SA_St20forward_iterator_tag.isra.0+0x6e4>
	mov    0x128(%r14),%rax
	lea    0x1(%rax),%rsi
	call   <_ZdlPvm@plt>
	mov    0xe0(%r14),%rdi
	lea    0xf0(%r14),%rax
	cmp    %rax,%rdi
	je     <_ZNSt6vectorIN9benchmark17BenchmarkReporter3RunESaIS2_EE15_M_range_insertIN9__gnu_cxx17__normal_iteratorIPS2_S4_EEEEvS9_T_SA_St20forward_iterator_tag.isra.0+0x707>
	mov    0xf0(%r14),%rax
	lea    0x1(%rax),%rsi
	call   <_ZdlPvm@plt>
	mov    0xc0(%r14),%rdi
	lea    0xd0(%r14),%rax
	cmp    %rax,%rdi
	je     <_ZNSt6vectorIN9benchmark17BenchmarkReporter3RunESaIS2_EE15_M_range_insertIN9__gnu_cxx17__normal_iteratorIPS2_S4_EEEEvS9_T_SA_St20forward_iterator_tag.isra.0+0x72a>
	mov    0xd0(%r14),%rax
	lea    0x1(%rax),%rsi
	call   <_ZdlPvm@plt>
	mov    0xa0(%r14),%rdi
	lea    0xb0(%r14),%rax
	cmp    %rax,%rdi
	je     <_ZNSt6vectorIN9benchmark17BenchmarkReporter3RunESaIS2_EE15_M_range_insertIN9__gnu_cxx17__normal_iteratorIPS2_S4_EEEEvS9_T_SA_St20forward_iterator_tag.isra.0+0x74d>
	mov    0xb0(%r14),%rax
	lea    0x1(%rax),%rsi
	call   <_ZdlPvm@plt>
	mov    0x80(%r14),%rdi
	lea    0x90(%r14),%rax
	cmp    %rax,%rdi
	je     <_ZNSt6vectorIN9benchmark17BenchmarkReporter3RunESaIS2_EE15_M_range_insertIN9__gnu_cxx17__normal_iteratorIPS2_S4_EEEEvS9_T_SA_St20forward_iterator_tag.isra.0+0x770>
	mov    0x90(%r14),%rax
	lea    0x1(%rax),%rsi
	call   <_ZdlPvm@plt>
	mov    0x60(%r14),%rdi
	lea    0x70(%r14),%rax
	cmp    %rax,%rdi
	je     <_ZNSt6vectorIN9benchmark17BenchmarkReporter3RunESaIS2_EE15_M_range_insertIN9__gnu_cxx17__normal_iteratorIPS2_S4_EEEEvS9_T_SA_St20forward_iterator_tag.isra.0+0x78a>
	mov    0x70(%r14),%rax
	lea    0x1(%rax),%rsi
	call   <_ZdlPvm@plt>
	mov    0x40(%r14),%rdi
	lea    0x50(%r14),%rax
	cmp    %rax,%rdi
	je     <_ZNSt6vectorIN9benchmark17BenchmarkReporter3RunESaIS2_EE15_M_range_insertIN9__gnu_cxx17__normal_iteratorIPS2_S4_EEEEvS9_T_SA_St20forward_iterator_tag.isra.0+0x7a4>
	mov    0x50(%r14),%rax
	lea    0x1(%rax),%rsi
	call   <_ZdlPvm@plt>
	mov    0x20(%r14),%rdi
	lea    0x30(%r14),%rax
	cmp    %rax,%rdi
	je     <_ZNSt6vectorIN9benchmark17BenchmarkReporter3RunESaIS2_EE15_M_range_insertIN9__gnu_cxx17__normal_iteratorIPS2_S4_EEEEvS9_T_SA_St20forward_iterator_tag.isra.0+0x7be>
	mov    0x30(%r14),%rax
	lea    0x1(%rax),%rsi
	call   <_ZdlPvm@plt>
	mov    (%r14),%rdi
	lea    0x10(%r14),%rax
	cmp    %rax,%rdi
	je     <_ZNSt6vectorIN9benchmark17BenchmarkReporter3RunESaIS2_EE15_M_range_insertIN9__gnu_cxx17__normal_iteratorIPS2_S4_EEEEvS9_T_SA_St20forward_iterator_tag.isra.0+0x7d7>
	mov    0x10(%r14),%rax
	lea    0x1(%rax),%rsi
	call   <_ZdlPvm@plt>
	add    $0x230,%r14
	cmp    %r14,%rbx
	jne    <_ZNSt6vectorIN9benchmark17BenchmarkReporter3RunESaIS2_EE15_M_range_insertIN9__gnu_cxx17__normal_iteratorIPS2_S4_EEEEvS9_T_SA_St20forward_iterator_tag.isra.0+0x630>
	mov    0x10(%rsp),%rbp
	mov    0x18(%rsp),%r12
	test   %rbp,%rbp
	je     <_ZNSt6vectorIN9benchmark17BenchmarkReporter3RunESaIS2_EE15_M_range_insertIN9__gnu_cxx17__normal_iteratorIPS2_S4_EEEEvS9_T_SA_St20forward_iterator_tag.isra.0+0x805>
	mov    0x10(%r13),%rsi
	mov    %rbp,%rdi
	sub    %rbp,%rsi
	call   <_ZdlPvm@plt>
	mov    0x8(%rsp),%rax
	mov    %r12,0x0(%r13)
	mov    %r15,0x8(%r13)
	add    %rax,%r12
	mov    %r12,0x10(%r13)
	mov    0x48(%rsp),%rax
	sub    %fs:0x28,%rax
	jne    <_ZNSt6vectorIN9benchmark17BenchmarkReporter3RunESaIS2_EE15_M_range_insertIN9__gnu_cxx17__normal_iteratorIPS2_S4_EEEEvS9_T_SA_St20forward_iterator_tag.isra.0+0x5a34>
	add    $0x58,%rsp
	pop    %rbx
	pop    %rbp
	pop    %r12
	pop    %r13
	pop    %r14
	pop    %r15
	ret
	nopl   0x0(%rax)
	mov    0x0(%r13),%rbp
	mov    %rbx,%r10
	mov    %rdx,%r9
	movabs $0x3a83a83a83a83a,%rdx
	sub    %rbp,%r10
	mov    %r10,%rax
	sar    $0x4,%rax
	imul   %rdi,%rax
	sub    %rax,%rdx
	cmp    %rcx,%rdx
	jb     <_ZNSt6vectorIN9benchmark17BenchmarkReporter3RunESaIS2_EE15_M_range_insertIN9__gnu_cxx17__normal_iteratorIPS2_S4_EEEEvS9_T_SA_St20forward_iterator_tag.isra.0+0x5a28>
	cmp    %r8,%r10
	cmovae %rax,%rcx
	add    %rcx,%rax
	mov    %rax,0x8(%rsp)
	jb     <_ZNSt6vectorIN9benchmark17BenchmarkReporter3RunESaIS2_EE15_M_range_insertIN9__gnu_cxx17__normal_iteratorIPS2_S4_EEEEvS9_T_SA_St20forward_iterator_tag.isra.0+0x3950>
	test   %rax,%rax
	jne    <_ZNSt6vectorIN9benchmark17BenchmarkReporter3RunESaIS2_EE15_M_range_insertIN9__gnu_cxx17__normal_iteratorIPS2_S4_EEEEvS9_T_SA_St20forward_iterator_tag.isra.0+0x5a00>
	xor    %r12d,%r12d
	cmp    %rbp,%r14
	je     <_ZNSt6vectorIN9benchmark17BenchmarkReporter3RunESaIS2_EE15_M_range_insertIN9__gnu_cxx17__normal_iteratorIPS2_S4_EEEEvS9_T_SA_St20forward_iterator_tag.isra.0+0x5516>
	mov    %rbp,%rax
	mov    %r12,%rdx
	jmp    <_ZNSt6vectorIN9benchmark17BenchmarkReporter3RunESaIS2_EE15_M_range_insertIN9__gnu_cxx17__normal_iteratorIPS2_S4_EEEEvS9_T_SA_St20forward_iterator_tag.isra.0+0x942>
	nopl   0x0(%rax,%rax,1)
	mov    0x1f8(%rax),%r8d
	movq   %rcx,%xmm0
	movhps 0x208(%rax),%xmm0
	mov    %r8d,0x1f8(%rdx)
	mov    0x210(%rax),%r8
	movups %xmm0,0x200(%rdx)
	mov    %r8,0x210(%rdx)
	mov    %rdi,0x8(%rcx)
	mov    0x218(%rax),%rcx
	movq   $0x0,0x200(%rax)
	mov    %rcx,0x218(%rdx)
	lea    0x1f8(%rax),%rcx
	mov    %rcx,0x208(%rax)
	mov    %rcx,0x210(%rax)
	movq   $0x0,0x218(%rax)
	mov    0x220(%rax),%rcx
	movsd  0x228(%rax),%xmm0
	add    $0x230,%rax
	add    $0x230,%rdx
	mov    %rcx,-0x10(%rdx)
	movsd  %xmm0,-0x8(%rdx)
	cmp    %rax,%r14
	je     <_ZNSt6vectorIN9benchmark17BenchmarkReporter3RunESaIS2_EE15_M_range_insertIN9__gnu_cxx17__normal_iteratorIPS2_S4_EEEEvS9_T_SA_St20forward_iterator_tag.isra.0+0x3d30>
	lea    0x10(%rdx),%r8
	lea    0x10(%rax),%rcx
	mov    %r8,(%rdx)
	mov    (%rax),%rdi
	cmp    %rcx,%rdi
	je     <_ZNSt6vectorIN9benchmark17BenchmarkReporter3RunESaIS2_EE15_M_range_insertIN9__gnu_cxx17__normal_iteratorIPS2_S4_EEEEvS9_T_SA_St20forward_iterator_tag.isra.0+0x3ce0>
	mov    %rdi,(%rdx)
	mov    0x10(%rax),%rdi
	mov    %rdi,0x10(%rdx)
	mov    0x8(%rax),%r10
	lea    0x30(%rdx),%r8
	mov    %rcx,(%rax)
	lea    0x30(%rax),%rcx
	mov    %r10,0x8(%rdx)
	movq   $0x0,0x8(%rax)
	movb   $0x0,0x10(%rax)
	mov    %r8,0x20(%rdx)
	mov    0x20(%rax),%rdi
	cmp    %rcx,%rdi
	je     <_ZNSt6vectorIN9benchmark17BenchmarkReporter3RunESaIS2_EE15_M_range_insertIN9__gnu_cxx17__normal_iteratorIPS2_S4_EEEEvS9_T_SA_St20forward_iterator_tag.isra.0+0x3b90>
	mov    %rdi,0x20(%rdx)
	mov    0x30(%rax),%rdi
	mov    %rdi,0x30(%rdx)
	mov    0x28(%rax),%r10
	lea    0x50(%rdx),%r8
	mov    %rcx,0x20(%rax)
	lea    0x50(%rax),%rcx
	mov    %r10,0x28(%rdx)
	movq   $0x0,0x28(%rax)
	movb   $0x0,0x30(%rax)
	mov    %r8,0x40(%rdx)
	mov    0x40(%rax),%rdi
	cmp    %rcx,%rdi
	je     <_ZNSt6vectorIN9benchmark17BenchmarkReporter3RunESaIS2_EE15_M_range_insertIN9__gnu_cxx17__normal_iteratorIPS2_S4_EEEEvS9_T_SA_St20forward_iterator_tag.isra.0+0x3c38>
	mov    %rdi,0x40(%rdx)
	mov    0x50(%rax),%rdi
	mov    %rdi,0x50(%rdx)
	mov    0x48(%rax),%r10
	lea    0x70(%rdx),%r8
	mov    %rcx,0x40(%rax)
	lea    0x70(%rax),%rcx
	mov    %r10,0x48(%rdx)
	movq   $0x0,0x48(%rax)
	movb   $0x0,0x50(%rax)
	mov    %r8,0x60(%rdx)
	mov    0x60(%rax),%rdi
	cmp    %rcx,%rdi
	je     <_ZNSt6vectorIN9benchmark17BenchmarkReporter3RunESaIS2_EE15_M_range_insertIN9__gnu_cxx17__normal_iteratorIPS2_S4_EEEEvS9_T_SA_St20forward_iterator_tag.isra.0+0x3ae8>
	mov    %rdi,0x60(%rdx)
	mov    0x70(%rax),%rdi
	mov    %rdi,0x70(%rdx)
	mov    0x68(%rax),%r10
	lea    0x90(%rdx),%r8
	mov    %rcx,0x60(%rax)
	lea    0x90(%rax),%rcx
	mov    %r10,0x68(%rdx)
	movq   $0x0,0x68(%rax)
	movb   $0x0,0x70(%rax)
	mov    %r8,0x80(%rdx)
	mov    0x80(%rax),%rdi
	cmp    %rcx,%rdi
	je     <_ZNSt6vectorIN9benchmark17BenchmarkReporter3RunESaIS2_EE15_M_range_insertIN9__gnu_cxx17__normal_iteratorIPS2_S4_EEEEvS9_T_SA_St20forward_iterator_tag.isra.0+0x3c88>
	mov    %rdi,0x80(%rdx)
	mov    0x90(%rax),%rdi
	mov    %rdi,0x90(%rdx)
	mov    0x88(%rax),%r10
	lea    0xb0(%rdx),%r8
	mov    %rcx,0x80(%rax)
	lea    0xb0(%rax),%rcx
	mov    %r10,0x88(%rdx)
	movq   $0x0,0x88(%rax)
	movb   $0x0,0x90(%rax)
	mov    %r8,0xa0(%rdx)
	mov    0xa0(%rax),%rdi
	cmp    %rcx,%rdi
	je     <_ZNSt6vectorIN9benchmark17BenchmarkReporter3RunESaIS2_EE15_M_range_insertIN9__gnu_cxx17__normal_iteratorIPS2_S4_EEEEvS9_T_SA_St20forward_iterator_tag.isra.0+0x3b38>
	mov    %rdi,0xa0(%rdx)
	mov    0xb0(%rax),%rdi
	mov    %rdi,0xb0(%rdx)
	mov    0xa8(%rax),%r10
	lea    0xd0(%rdx),%r8
	mov    %rcx,0xa0(%rax)
	lea    0xd0(%rax),%rcx
	mov    %r10,0xa8(%rdx)
	movq   $0x0,0xa8(%rax)
	movb   $0x0,0xb0(%rax)
	mov    %r8,0xc0(%rdx)
	mov    0xc0(%rax),%rdi
	cmp    %rcx,%rdi
	je     <_ZNSt6vectorIN9benchmark17BenchmarkReporter3RunESaIS2_EE15_M_range_insertIN9__gnu_cxx17__normal_iteratorIPS2_S4_EEEEvS9_T_SA_St20forward_iterator_tag.isra.0+0x3be0>
	mov    %rdi,0xc0(%rdx)
	mov    0xd0(%rax),%rdi
	mov    %rdi,0xd0(%rdx)
	mov    0xc8(%rax),%r10
	lea    0xf0(%rdx),%r8
	mov    %rcx,0xc0(%rax)
	lea    0xf0(%rax),%rcx
	mov    %r10,0xc8(%rdx)
	movq   $0x0,0xc8(%rax)
	movb   $0x0,0xd0(%rax)
	mov    %r8,0xe0(%rdx)
	mov    0xe0(%rax),%rdi
	cmp    %rcx,%rdi
	je     <_ZNSt6vectorIN9benchmark17BenchmarkReporter3RunESaIS2_EE15_M_range_insertIN9__gnu_cxx17__normal_iteratorIPS2_S4_EEEEvS9_T_SA_St20forward_iterator_tag.isra.0+0x3a38>
	mov    %rdi,0xe0(%rdx)
	mov    0xf0(%rax),%rdi
	mov    %rdi,0xf0(%rdx)
	mov    0xe8(%rax),%r10
	mov    %rcx,0xe0(%rax)
	lea    0x128(%rdx),%r8
	mov    0x110(%rax),%ecx
	movq   $0x0,0xe8(%rax)
	mov    %r10,0xe8(%rdx)
	movdqu 0x100(%rax),%xmm4
	movb   $0x0,0xf0(%rax)
	mov    %r8,0x118(%rdx)
	mov    0x118(%rax),%rdi
	mov    %ecx,0x110(%rdx)
	lea    0x128(%rax),%rcx
	movups %xmm4,0x100(%rdx)
	cmp    %rcx,%rdi
	je     <_ZNSt6vectorIN9benchmark17BenchmarkReporter3RunESaIS2_EE15_M_range_insertIN9__gnu_cxx17__normal_iteratorIPS2_S4_EEEEvS9_T_SA_St20forward_iterator_tag.isra.0+0x3a90>
	mov    %rdi,0x118(%rdx)
	mov    0x128(%rax),%rdi
	mov    %rdi,0x128(%rdx)
	mov    0x120(%rax),%r10
	mov    %rcx,0x118(%rax)
	lea    0x150(%rdx),%r8
	mov    0x138(%rax),%ecx
	movq   $0x0,0x120(%rax)
	mov    %r10,0x120(%rdx)
	movb   $0x0,0x128(%rax)
	mov    %r8,0x140(%rdx)
	mov    0x140(%rax),%rdi
	mov    %ecx,0x138(%rdx)
	lea    0x150(%rax),%rcx
	cmp    %rcx,%rdi
	je     <_ZNSt6vectorIN9benchmark17BenchmarkReporter3RunESaIS2_EE15_M_range_insertIN9__gnu_cxx17__normal_iteratorIPS2_S4_EEEEvS9_T_SA_St20forward_iterator_tag.isra.0+0x39e0>
	mov    %rdi,0x140(%rdx)
	mov    0x150(%rax),%rdi
	mov    %rdi,0x150(%rdx)
	mov    0x148(%rax),%r10
	mov    %rcx,0x140(%rax)
	lea    0x178(%rdx),%r8
	mov    0x160(%rax),%ecx
	movq   $0x0,0x148(%rax)
	mov    %r10,0x148(%rdx)
	movb   $0x0,0x150(%rax)
	mov    %r8,0x168(%rdx)
	mov    0x168(%rax),%rdi
	mov    %ecx,0x160(%rdx)
	lea    0x178(%rax),%rcx
	cmp    %rcx,%rdi
	je     <_ZNSt6vectorIN9benchmark17BenchmarkReporter3RunESaIS2_EE15_M_range_insertIN9__gnu_cxx17__normal_iteratorIPS2_S4_EEEEvS9_T_SA_St20forward_iterator_tag.isra.0+0x3988>
	mov    %rdi,0x168(%rdx)
	mov    0x178(%rax),%rdi
	mov    %rdi,0x178(%rdx)
	mov    0x170(%rax),%r10
	mov    %rcx,0x168(%rax)
	mov    0x1a8(%rax),%ecx
	lea    0x1f8(%rdx),%rdi
	mov    %r10,0x170(%rdx)
	movupd 0x1b0(%rax),%xmm7
	movb   $0x0,0x178(%rax)
	movdqu 0x188(%rax),%xmm5
	movdqu 0x198(%rax),%xmm6
	movsd  0x1c0(%rax),%xmm0
	movq   $0x0,0x170(%rax)
	mov    %ecx,0x1a8(%rdx)
	movzbl 0x1c8(%rax),%ecx
	movups %xmm5,0x188(%rdx)
	mov    %cl,0x1c8(%rdx)
	mov    0x1cc(%rax),%ecx
	movups %xmm6,0x198(%rdx)
	mov    %ecx,0x1cc(%rdx)
	mov    0x1d0(%rax),%rcx
	movups %xmm7,0x1b0(%rdx)
	mov    %rcx,0x1d0(%rdx)
	mov    0x1d8(%rax),%rcx
	movsd  %xmm0,0x1c0(%rdx)
	mov    %rcx,0x1d8(%rdx)
	mov    0x1e0(%rax),%rcx
	mov    %rcx,0x1e0(%rdx)
	movzwl 0x1e8(%rax),%ecx
	mov    %cx,0x1e8(%rdx)
	mov    0x200(%rax),%rcx
	test   %rcx,%rcx
	jne    <_ZNSt6vectorIN9benchmark17BenchmarkReporter3RunESaIS2_EE15_M_range_insertIN9__gnu_cxx17__normal_iteratorIPS2_S4_EEEEvS9_T_SA_St20forward_iterator_tag.isra.0+0x8a8>
	movl   $0x0,0x1f8(%rdx)
	movq   $0x0,0x200(%rdx)
	mov    %rdi,0x208(%rdx)
	mov    %rdi,0x210(%rdx)
	movq   $0x0,0x218(%rdx)
	jmp    <_ZNSt6vectorIN9benchmark17BenchmarkReporter3RunESaIS2_EE15_M_range_insertIN9__gnu_cxx17__normal_iteratorIPS2_S4_EEEEvS9_T_SA_St20forward_iterator_tag.isra.0+0x914>
	mov    0x148(%rax),%r9
	lea    0x1(%r9),%rsi
	cmp    $0x8,%esi
	jb     <_ZNSt6vectorIN9benchmark17BenchmarkReporter3RunESaIS2_EE15_M_range_insertIN9__gnu_cxx17__normal_iteratorIPS2_S4_EEEEvS9_T_SA_St20forward_iterator_tag.isra.0+0x3910>
	mov    (%rdx),%r9
	mov    %rdx,%r11
	mov    %r9,(%rdi)
	mov    %esi,%r9d
	mov    -0x8(%rdx,%r9,1),%r10
	mov    %r10,-0x8(%rdi,%r9,1)
	lea    0x158(%rcx),%r10
	and    $0xfffffffffffffff8,%r10
	sub    %r10,%rdi
	add    %edi,%esi
	sub    %rdi,%r11
	and    $0xfffffff8,%esi
	cmp    $0x8,%esi
	jb     <_ZNSt6vectorIN9benchmark17BenchmarkReporter3RunESaIS2_EE15_M_range_insertIN9__gnu_cxx17__normal_iteratorIPS2_S4_EEEEvS9_T_SA_St20forward_iterator_tag.isra.0+0x45e>
	mov    %rax,0x10(%rsp)
	and    $0xfffffff8,%esi
	xor    %edi,%edi
	mov    %edi,%r9d
	add    $0x8,%edi
	mov    (%r11,%r9,1),%rax
	mov    %rax,(%r10,%r9,1)
	cmp    %esi,%edi
	jb     <_ZNSt6vectorIN9benchmark17BenchmarkReporter3RunESaIS2_EE15_M_range_insertIN9__gnu_cxx17__normal_iteratorIPS2_S4_EEEEvS9_T_SA_St20forward_iterator_tag.isra.0+0xe43>
	mov    0x10(%rsp),%rax
	mov    0x148(%rax),%r9
	jmp    <_ZNSt6vectorIN9benchmark17BenchmarkReporter3RunESaIS2_EE15_M_range_insertIN9__gnu_cxx17__normal_iteratorIPS2_S4_EEEEvS9_T_SA_St20forward_iterator_tag.isra.0+0x465>
	cs nopw 0x0(%rax,%rax,1)
	mov    0x120(%rax),%r9
	lea    0x1(%r9),%rsi
	cmp    $0x8,%esi
	jb     <_ZNSt6vectorIN9benchmark17BenchmarkReporter3RunESaIS2_EE15_M_range_insertIN9__gnu_cxx17__normal_iteratorIPS2_S4_EEEEvS9_T_SA_St20forward_iterator_tag.isra.0+0x3810>
	mov    (%rdx),%r9
	mov    %rdx,%r11
	mov    %r9,(%rdi)
	mov    %esi,%r9d
	mov    -0x8(%rdx,%r9,1),%r10
	mov    %r10,-0x8(%rdi,%r9,1)
	lea    0x130(%rcx),%r10
	and    $0xfffffffffffffff8,%r10
	sub    %r10,%rdi
	add    %edi,%esi
	sub    %rdi,%r11
	and    $0xfffffff8,%esi
	cmp    $0x8,%esi
	jb     <_ZNSt6vectorIN9benchmark17BenchmarkReporter3RunESaIS2_EE15_M_range_insertIN9__gnu_cxx17__normal_iteratorIPS2_S4_EEEEvS9_T_SA_St20forward_iterator_tag.isra.0+0x3f1>
	mov    %rax,0x10(%rsp)
	and    $0xfffffff8,%esi
	xor    %edi,%edi
	mov    %edi,%r9d
	add    $0x8,%edi
	mov    (%r11,%r9,1),%rax
	mov    %rax,(%r10,%r9,1)
	cmp    %esi,%edi
	jb     <_ZNSt6vectorIN9benchmark17BenchmarkReporter3RunESaIS2_EE15_M_range_insertIN9__gnu_cxx17__normal_iteratorIPS2_S4_EEEEvS9_T_SA_St20forward_iterator_tag.isra.0+0xec3>
	mov    0x10(%rsp),%rax
	mov    0x120(%rax),%r9
	jmp    <_ZNSt6vectorIN9benchmark17BenchmarkReporter3RunESaIS2_EE15_M_range_insertIN9__gnu_cxx17__normal_iteratorIPS2_S4_EEEEvS9_T_SA_St20forward_iterator_tag.isra.0+0x3f8>
	cs nopw 0x0(%rax,%rax,1)
	mov    0xe8(%rax),%r9
	lea    0x1(%r9),%rsi
	cmp    $0x8,%esi
	jb     <_ZNSt6vectorIN9benchmark17BenchmarkReporter3RunESaIS2_EE15_M_range_insertIN9__gnu_cxx17__normal_iteratorIPS2_S4_EEEEvS9_T_SA_St20forward_iterator_tag.isra.0+0x37d0>
	mov    (%rdx),%r9
	mov    %rdx,%r11
	mov    %r9,(%rdi)
	mov    %esi,%r9d
	mov    -0x8(%rdx,%r9,1),%r10
	mov    %r10,-0x8(%rdi,%r9,1)
	lea    0xf8(%rcx),%r10
	and    $0xfffffffffffffff8,%r10
	sub    %r10,%rdi
	add    %edi,%esi
	sub    %rdi,%r11
	and    $0xfffffff8,%esi
	cmp    $0x8,%esi
	jb     <_ZNSt6vectorIN9benchmark17BenchmarkReporter3RunESaIS2_EE15_M_range_insertIN9__gnu_cxx17__normal_iteratorIPS2_S4_EEEEvS9_T_SA_St20forward_iterator_tag.isra.0+0x375>
	mov    %rax,0x10(%rsp)
	and    $0xfffffff8,%esi
	xor    %edi,%edi
	mov    %edi,%r9d
	add    $0x8,%edi
	mov    (%r11,%r9,1),%rax
	mov    %rax,(%r10,%r9,1)
	cmp    %esi,%edi
	jb     <_ZNSt6vectorIN9benchmark17BenchmarkReporter3RunESaIS2_EE15_M_range_insertIN9__gnu_cxx17__normal_iteratorIPS2_S4_EEEEvS9_T_SA_St20forward_iterator_tag.isra.0+0xf43>
	mov    0x10(%rsp),%rax
	mov    0xe8(%rax),%r9
	jmp    <_ZNSt6vectorIN9benchmark17BenchmarkReporter3RunESaIS2_EE15_M_range_insertIN9__gnu_cxx17__normal_iteratorIPS2_S4_EEEEvS9_T_SA_St20forward_iterator_tag.isra.0+0x37c>
	cs nopw 0x0(%rax,%rax,1)
	mov    0xc8(%rax),%r9
	lea    0x1(%r9),%rsi
	cmp    $0x8,%esi
	jb     <_ZNSt6vectorIN9benchmark17BenchmarkReporter3RunESaIS2_EE15_M_range_insertIN9__gnu_cxx17__normal_iteratorIPS2_S4_EEEEvS9_T_SA_St20forward_iterator_tag.isra.0+0x3890>
	mov    (%rdx),%r9
	mov    %rdx,%r11
	mov    %r9,(%rdi)
	mov    %esi,%r9d
	mov    -0x8(%rdx,%r9,1),%r10
	mov    %r10,-0x8(%rdi,%r9,1)
	lea    0xd8(%rcx),%r10
	and    $0xfffffffffffffff8,%r10
	sub    %r10,%rdi
	add    %edi,%esi
	sub    %rdi,%r11
	and    $0xfffffff8,%esi
	cmp    $0x8,%esi
	jb     <_ZNSt6vectorIN9benchmark17BenchmarkReporter3RunESaIS2_EE15_M_range_insertIN9__gnu_cxx17__normal_iteratorIPS2_S4_EEEEvS9_T_SA_St20forward_iterator_tag.isra.0+0x314>
	mov    %rax,0x10(%rsp)
	and    $0xfffffff8,%esi
	xor    %edi,%edi
	mov    %edi,%r9d
	add    $0x8,%edi
	mov    (%r11,%r9,1),%rax
	mov    %rax,(%r10,%r9,1)
	cmp    %esi,%edi
	jb     <_ZNSt6vectorIN9benchmark17BenchmarkReporter3RunESaIS2_EE15_M_range_insertIN9__gnu_cxx17__normal_iteratorIPS2_S4_EEEEvS9_T_SA_St20forward_iterator_tag.isra.0+0xfc3>
	mov    0x10(%rsp),%rax
	mov    0xc8(%rax),%r9
	jmp    <_ZNSt6vectorIN9benchmark17BenchmarkReporter3RunESaIS2_EE15_M_range_insertIN9__gnu_cxx17__normal_iteratorIPS2_S4_EEEEvS9_T_SA_St20forward_iterator_tag.isra.0+0x31b>
	cs nopw 0x0(%rax,%rax,1)
	mov    0xa8(%rax),%r9
	lea    0x1(%r9),%rsi
	cmp    $0x8,%esi
	jb     <_ZNSt6vectorIN9benchmark17BenchmarkReporter3RunESaIS2_EE15_M_range_insertIN9__gnu_cxx17__normal_iteratorIPS2_S4_EEEEvS9_T_SA_St20forward_iterator_tag.isra.0+0x3850>
	mov    (%rdx),%r9
	mov    %rdx,%r11
	mov    %r9,(%rdi)
	mov    %esi,%r9d
	mov    -0x8(%rdx,%r9,1),%r10
	mov    %r10,-0x8(%rdi,%r9,1)
	lea    0xb8(%rcx),%r10
	and    $0xfffffffffffffff8,%r10
	sub    %r10,%rdi
	add    %edi,%esi
	sub    %rdi,%r11
	and    $0xfffffff8,%esi
	cmp    $0x8,%esi
	jb     <_ZNSt6vectorIN9benchmark17BenchmarkReporter3RunESaIS2_EE15_M_range_insertIN9__gnu_cxx17__normal_iteratorIPS2_S4_EEEEvS9_T_SA_St20forward_iterator_tag.isra.0+0x2b3>
	mov    %rax,0x10(%rsp)
	and    $0xfffffff8,%esi
	xor    %edi,%edi
	mov    %edi,%r9d
	add    $0x8,%edi
	mov    (%r11,%r9,1),%rax
	mov    %rax,(%r10,%r9,1)
	cmp    %esi,%edi
	jb     <_ZNSt6vectorIN9benchmark17BenchmarkReporter3RunESaIS2_EE15_M_range_insertIN9__gnu_cxx17__normal_iteratorIPS2_S4_EEEEvS9_T_SA_St20forward_iterator_tag.isra.0+0x1043>
	mov    0x10(%rsp),%rax
	mov    0xa8(%rax),%r9
	jmp    <_ZNSt6vectorIN9benchmark17BenchmarkReporter3RunESaIS2_EE15_M_range_insertIN9__gnu_cxx17__normal_iteratorIPS2_S4_EEEEvS9_T_SA_St20forward_iterator_tag.isra.0+0x2ba>
	cs nopw 0x0(%rax,%rax,1)
	mov    0x88(%rax),%r9
	lea    0x1(%r9),%rsi
	cmp    $0x8,%esi
	jb     <_ZNSt6vectorIN9benchmark17BenchmarkReporter3RunESaIS2_EE15_M_range_insertIN9__gnu_cxx17__normal_iteratorIPS2_S4_EEEEvS9_T_SA_St20forward_iterator_tag.isra.0+0x38d0>
	mov    (%rdx),%r9
	mov    %rdx,%r11
	mov    %r9,(%rdi)
	mov    %esi,%r9d
	mov    -0x8(%rdx,%r9,1),%r10
	mov    %r10,-0x8(%rdi,%r9,1)
	lea    0x98(%rcx),%r10
	and    $0xfffffffffffffff8,%r10
	sub    %r10,%rdi
	add    %edi,%esi
	sub    %rdi,%r11
	and    $0xfffffff8,%esi
	cmp    $0x8,%esi
	jb     <_ZNSt6vectorIN9benchmark17BenchmarkReporter3RunESaIS2_EE15_M_range_insertIN9__gnu_cxx17__normal_iteratorIPS2_S4_EEEEvS9_T_SA_St20forward_iterator_tag.isra.0+0x252>
	mov    %rax,0x10(%rsp)
	and    $0xfffffff8,%esi
	xor    %edi,%edi
	mov    %edi,%r9d
	add    $0x8,%edi
	mov    (%r11,%r9,1),%rax
	mov    %rax,(%r10,%r9,1)
	cmp    %esi,%edi
	jb     <_ZNSt6vectorIN9benchmark17BenchmarkReporter3RunESaIS2_EE15_M_range_insertIN9__gnu_cxx17__normal_iteratorIPS2_S4_EEEEvS9_T_SA_St20forward_iterator_tag.isra.0+0x10c3>
	mov    0x10(%rsp),%rax
	mov    0x88(%rax),%r9
	jmp    <_ZNSt6vectorIN9benchmark17BenchmarkReporter3RunESaIS2_EE15_M_range_insertIN9__gnu_cxx17__normal_iteratorIPS2_S4_EEEEvS9_T_SA_St20forward_iterator_tag.isra.0+0x259>
	cs nopw 0x0(%rax,%rax,1)
	mov    0x170(%rax),%r9
	lea    0x1(%r9),%rsi
	cmp    $0x8,%esi
	jb     <_ZNSt6vectorIN9benchmark17BenchmarkReporter3RunESaIS2_EE15_M_range_insertIN9__gnu_cxx17__normal_iteratorIPS2_S4_EEEEvS9_T_SA_St20forward_iterator_tag.isra.0+0x3790>
	mov    (%rdx),%r9
	mov    %rdx,%r11
	mov    %r9,(%rdi)
	mov    %esi,%r9d
	mov    -0x8(%rdx,%r9,1),%r10
	mov    %r10,-0x8(%rdi,%r9,1)
	lea    0x180(%rcx),%r10
	and    $0xfffffffffffffff8,%r10
	sub    %r10,%rdi
	add    %edi,%esi
	sub    %rdi,%r11
	and    $0xfffffff8,%esi
	cmp    $0x8,%esi
	jb     <_ZNSt6vectorIN9benchmark17BenchmarkReporter3RunESaIS2_EE15_M_range_insertIN9__gnu_cxx17__normal_iteratorIPS2_S4_EEEEvS9_T_SA_St20forward_iterator_tag.isra.0+0x4cb>
	mov    %rax,0x10(%rsp)
	and    $0xfffffff8,%esi
	xor    %edi,%edi
	mov    %edi,%r9d
	add    $0x8,%edi
	mov    (%r11,%r9,1),%rax
	mov    %rax,(%r10,%r9,1)
	cmp    %esi,%edi
	jb     <_ZNSt6vectorIN9benchmark17BenchmarkReporter3RunESaIS2_EE15_M_range_insertIN9__gnu_cxx17__normal_iteratorIPS2_S4_EEEEvS9_T_SA_St20forward_iterator_tag.isra.0+0x1143>
	mov    0x10(%rsp),%rax
	mov    0x170(%rax),%r9
	jmp    <_ZNSt6vectorIN9benchmark17BenchmarkReporter3RunESaIS2_EE15_M_range_insertIN9__gnu_cxx17__normal_iteratorIPS2_S4_EEEEvS9_T_SA_St20forward_iterator_tag.isra.0+0x4d2>
	cs nopw 0x0(%rax,%rax,1)
	mov    0x68(%rax),%r9
	lea    0x1(%r9),%rsi
	cmp    $0x8,%esi
	jb     <_ZNSt6vectorIN9benchmark17BenchmarkReporter3RunESaIS2_EE15_M_range_insertIN9__gnu_cxx17__normal_iteratorIPS2_S4_EEEEvS9_T_SA_St20forward_iterator_tag.isra.0+0x3750>
	mov    (%rdx),%r9
	mov    %rdx,%r11
	mov    %r9,(%rdi)
	mov    %esi,%r9d
	mov    -0x8(%rdx,%r9,1),%r10
	mov    %r10,-0x8(%rdi,%r9,1)
	lea    0x78(%rcx),%r10
	and    $0xfffffffffffffff8,%r10
	sub    %r10,%rdi
	add    %edi,%esi
	sub    %rdi,%r11
	and    $0xfffffff8,%esi
	cmp    $0x8,%esi
	jb     <_ZNSt6vectorIN9benchmark17BenchmarkReporter3RunESaIS2_EE15_M_range_insertIN9__gnu_cxx17__normal_iteratorIPS2_S4_EEEEvS9_T_SA_St20forward_iterator_tag.isra.0+0x200>
	mov    %rax,0x10(%rsp)
	and    $0xfffffff8,%esi
	xor    %edi,%edi
	mov    %edi,%r9d
	add    $0x8,%edi
	mov    (%r11,%r9,1),%rax
	mov    %rax,(%r10,%r9,1)
	cmp    %esi,%edi
	jb     <_ZNSt6vectorIN9benchmark17BenchmarkReporter3RunESaIS2_EE15_M_range_insertIN9__gnu_cxx17__normal_iteratorIPS2_S4_EEEEvS9_T_SA_St20forward_iterator_tag.isra.0+0x11bd>
	mov    0x10(%rsp),%rax
	mov    0x68(%rax),%r9
	jmp    <_ZNSt6vectorIN9benchmark17BenchmarkReporter3RunESaIS2_EE15_M_range_insertIN9__gnu_cxx17__normal_iteratorIPS2_S4_EEEEvS9_T_SA_St20forward_iterator_tag.isra.0+0x204>
	nopl   (%rax)
	mov    0x48(%rax),%r9
	lea    0x1(%r9),%rsi
	cmp    $0x8,%esi
	jb     <_ZNSt6vectorIN9benchmark17BenchmarkReporter3RunESaIS2_EE15_M_range_insertIN9__gnu_cxx17__normal_iteratorIPS2_S4_EEEEvS9_T_SA_St20forward_iterator_tag.isra.0+0x3710>
	mov    (%rdx),%r9
	mov    %rdx,%r11
	mov    %r9,(%rdi)
	mov    %esi,%r9d
	mov    -0x8(%rdx,%r9,1),%r10
	mov    %r10,-0x8(%rdi,%r9,1)
	lea    0x58(%rcx),%r10
	and    $0xfffffffffffffff8,%r10
	sub    %r10,%rdi
	add    %edi,%esi
	sub    %rdi,%r11
	and    $0xfffffff8,%esi
	cmp    $0x8,%esi
	jb     <_ZNSt6vectorIN9benchmark17BenchmarkReporter3RunESaIS2_EE15_M_range_insertIN9__gnu_cxx17__normal_iteratorIPS2_S4_EEEEvS9_T_SA_St20forward_iterator_tag.isra.0+0x1c3>
	mov    %rax,0x10(%rsp)
	and    $0xfffffff8,%esi
	xor    %edi,%edi
	mov    %edi,%r9d
	add    $0x8,%edi
	mov    (%r11,%r9,1),%rax
	mov    %rax,(%r10,%r9,1)
	cmp    %esi,%edi
	jb     <_ZNSt6vectorIN9benchmark17BenchmarkReporter3RunESaIS2_EE15_M_range_insertIN9__gnu_cxx17__normal_iteratorIPS2_S4_EEEEvS9_T_SA_St20forward_iterator_tag.isra.0+0x122d>
	mov    0x10(%rsp),%rax
	mov    0x48(%rax),%r9
	jmp    <_ZNSt6vectorIN9benchmark17BenchmarkReporter3RunESaIS2_EE15_M_range_insertIN9__gnu_cxx17__normal_iteratorIPS2_S4_EEEEvS9_T_SA_St20forward_iterator_tag.isra.0+0x1c7>
	nopl   (%rax)
	mov    0x28(%rax),%r9
	lea    0x1(%r9),%rsi
	cmp    $0x8,%esi
	jb     <_ZNSt6vectorIN9benchmark17BenchmarkReporter3RunESaIS2_EE15_M_range_insertIN9__gnu_cxx17__normal_iteratorIPS2_S4_EEEEvS9_T_SA_St20forward_iterator_tag.isra.0+0x36d0>
	mov    (%rdx),%r9
	mov    %rdx,%r11
	mov    %r9,(%rdi)
	mov    %esi,%r9d
	mov    -0x8(%rdx,%r9,1),%r10
	mov    %r10,-0x8(%rdi,%r9,1)
	lea    0x38(%rcx),%r10
	and    $0xfffffffffffffff8,%r10
	sub    %r10,%rdi
	add    %edi,%esi
	sub    %rdi,%r11
	and    $0xfffffff8,%esi
	cmp    $0x8,%esi
	jb     <_ZNSt6vectorIN9benchmark17BenchmarkReporter3RunESaIS2_EE15_M_range_insertIN9__gnu_cxx17__normal_iteratorIPS2_S4_EEEEvS9_T_SA_St20forward_iterator_tag.isra.0+0x186>
	mov    %rax,0x10(%rsp)
	and    $0xfffffff8,%esi
	xor    %edi,%edi
	mov    %edi,%r9d
	add    $0x8,%edi
	mov    (%r11,%r9,1),%rax
	mov    %rax,(%r10,%r9,1)
	cmp    %esi,%edi
	jb     <_ZNSt6vectorIN9benchmark17BenchmarkReporter3RunESaIS2_EE15_M_range_insertIN9__gnu_cxx17__normal_iteratorIPS2_S4_EEEEvS9_T_SA_St20forward_iterator_tag.isra.0+0x129d>
	mov    0x10(%rsp),%rax
	mov    0x28(%rax),%r9
	jmp    <_ZNSt6vectorIN9benchmark17BenchmarkReporter3RunESaIS2_EE15_M_range_insertIN9__gnu_cxx17__normal_iteratorIPS2_S4_EEEEvS9_T_SA_St20forward_iterator_tag.isra.0+0x18a>
	nopl   (%rax)
	mov    0x8(%rax),%r9
	lea    0x1(%r9),%rsi
	cmp    $0x8,%esi
	jb     <_ZNSt6vectorIN9benchmark17BenchmarkReporter3RunESaIS2_EE15_M_range_insertIN9__gnu_cxx17__normal_iteratorIPS2_S4_EEEEvS9_T_SA_St20forward_iterator_tag.isra.0+0x3690>
	mov    (%rdx),%r9
	mov    %rdx,%r11
	mov    %r9,(%rdi)
	mov    %esi,%r9d
	mov    -0x8(%rdx,%r9,1),%r10
	mov    %r10,-0x8(%rdi,%r9,1)
	lea    0x18(%rcx),%r10
	and    $0xfffffffffffffff8,%r10
	sub    %r10,%rdi
	add    %edi,%esi
	sub    %rdi,%r11
	and    $0xfffffff8,%esi
	cmp    $0x8,%esi
	jb     <_ZNSt6vectorIN9benchmark17BenchmarkReporter3RunESaIS2_EE15_M_range_insertIN9__gnu_cxx17__normal_iteratorIPS2_S4_EEEEvS9_T_SA_St20forward_iterator_tag.isra.0+0x14a>
	mov    %rax,0x10(%rsp)
	and    $0xfffffff8,%esi
	xor    %edi,%edi
	mov    %edi,%r9d
	add    $0x8,%edi
	mov    (%r11,%r9,1),%rax
	mov    %rax,(%r10,%r9,1)
	cmp    %esi,%edi
	jb     <_ZNSt6vectorIN9benchmark17BenchmarkReporter3RunESaIS2_EE15_M_range_insertIN9__gnu_cxx17__normal_iteratorIPS2_S4_EEEEvS9_T_SA_St20forward_iterator_tag.isra.0+0x130d>
	mov    0x10(%rsp),%rax
	mov    0x8(%rax),%r9
	jmp    <_ZNSt6vectorIN9benchmark17BenchmarkReporter3RunESaIS2_EE15_M_range_insertIN9__gnu_cxx17__normal_iteratorIPS2_S4_EEEEvS9_T_SA_St20forward_iterator_tag.isra.0+0x14e>
	nopl   (%rax)
	mov    %r15,%r14
	mov    %rcx,0x8(%rsp)
	sar    $0x4,%r14
	imul   %rdi,%r14
	lea    (%rdx,%r15,1),%rdi
	mov    %rbx,%rdx
	call   <_ZSt16__do_uninit_copyIN9__gnu_cxx17__normal_iteratorIPN9benchmark17BenchmarkReporter3RunESt6vectorIS4_SaIS4_EEEES5_ET0_T_SB_SA_>
	mov    0x8(%rsp),%rcx
	sub    %r14,%rcx
	imul   $0x230,%rcx,%rdx
	add    0x8(%r13),%rdx
	mov    %rdx,0x8(%r13)
	cmp    %rbx,%rbp
	je     <_ZNSt6vectorIN9benchmark17BenchmarkReporter3RunESaIS2_EE15_M_range_insertIN9__gnu_cxx17__normal_iteratorIPS2_S4_EEEEvS9_T_SA_St20forward_iterator_tag.isra.0+0x1d74>
	mov    %rbp,%rax
	jmp    <_ZNSt6vectorIN9benchmark17BenchmarkReporter3RunESaIS2_EE15_M_range_insertIN9__gnu_cxx17__normal_iteratorIPS2_S4_EEEEvS9_T_SA_St20forward_iterator_tag.isra.0+0x1410>
	nopl   0x0(%rax)
	mov    0x1f8(%rax),%edi
	movq   %rcx,%xmm0
	movhps 0x208(%rax),%xmm0
	mov    %edi,0x1f8(%rdx)
	mov    0x210(%rax),%rdi
	movups %xmm0,0x200(%rdx)
	mov    %rdi,0x210(%rdx)
	mov    %rsi,0x8(%rcx)
	mov    0x218(%rax),%rcx
	movq   $0x0,0x200(%rax)
	mov    %rcx,0x218(%rdx)
	lea    0x1f8(%rax),%rcx
	mov    %rcx,0x208(%rax)
	mov    %rcx,0x210(%rax)
	movq   $0x0,0x218(%rax)
	mov    0x220(%rax),%rcx
	movsd  0x228(%rax),%xmm0
	add    $0x230,%rax
	add    $0x230,%rdx
	mov    %rcx,-0x10(%rdx)
	movsd  %xmm0,-0x8(%rdx)
	cmp    %rax,%rbx
	je     <_ZNSt6vectorIN9benchmark17BenchmarkReporter3RunESaIS2_EE15_M_range_insertIN9__gnu_cxx17__normal_iteratorIPS2_S4_EEEEvS9_T_SA_St20forward_iterator_tag.isra.0+0x1d70>
	lea    0x10(%rdx),%rdi
	lea    0x10(%rax),%rcx
	mov    %rdi,(%rdx)
	mov    (%rax),%rsi
	cmp    %rcx,%rsi
	je     <_ZNSt6vectorIN9benchmark17BenchmarkReporter3RunESaIS2_EE15_M_range_insertIN9__gnu_cxx17__normal_iteratorIPS2_S4_EEEEvS9_T_SA_St20forward_iterator_tag.isra.0+0x1d08>
	mov    %rsi,(%rdx)
	mov    0x10(%rax),%rsi
	mov    %rsi,0x10(%rdx)
	mov    0x8(%rax),%rsi
	lea    0x30(%rdx),%rdi
	mov    %rsi,0x8(%rdx)
	mov    %rcx,(%rax)
	lea    0x30(%rax),%rcx
	movq   $0x0,0x8(%rax)
	movb   $0x0,0x10(%rax)
	mov    %rdi,0x20(%rdx)
	mov    0x20(%rax),%rsi
	cmp    %rcx,%rsi
	je     <_ZNSt6vectorIN9benchmark17BenchmarkReporter3RunESaIS2_EE15_M_range_insertIN9__gnu_cxx17__normal_iteratorIPS2_S4_EEEEvS9_T_SA_St20forward_iterator_tag.isra.0+0x1ca0>
	mov    %rsi,0x20(%rdx)
	mov    0x30(%rax),%rsi
	mov    %rsi,0x30(%rdx)
	mov    0x28(%rax),%rsi
	lea    0x50(%rdx),%rdi
	mov    %rsi,0x28(%rdx)
	mov    %rcx,0x20(%rax)
	lea    0x50(%rax),%rcx
	movq   $0x0,0x28(%rax)
	movb   $0x0,0x30(%rax)
	mov    %rdi,0x40(%rdx)
	mov    0x40(%rax),%rsi
	cmp    %rcx,%rsi
	je     <_ZNSt6vectorIN9benchmark17BenchmarkReporter3RunESaIS2_EE15_M_range_insertIN9__gnu_cxx17__normal_iteratorIPS2_S4_EEEEvS9_T_SA_St20forward_iterator_tag.isra.0+0x1c38>
	mov    %rsi,0x40(%rdx)
	mov    0x50(%rax),%rsi
	mov    %rsi,0x50(%rdx)
	mov    0x48(%rax),%rsi
	lea    0x70(%rdx),%rdi
	mov    %rsi,0x48(%rdx)
	mov    %rcx,0x40(%rax)
	lea    0x70(%rax),%rcx
	movq   $0x0,0x48(%rax)
	movb   $0x0,0x50(%rax)
	mov    %rdi,0x60(%rdx)
	mov    0x60(%rax),%rsi
	cmp    %rcx,%rsi
	je     <_ZNSt6vectorIN9benchmark17BenchmarkReporter3RunESaIS2_EE15_M_range_insertIN9__gnu_cxx17__normal_iteratorIPS2_S4_EEEEvS9_T_SA_St20forward_iterator_tag.isra.0+0x1bd0>
	mov    %rsi,0x60(%rdx)
	mov    0x70(%rax),%rsi
	mov    %rsi,0x70(%rdx)
	mov    0x68(%rax),%rsi
	lea    0x90(%rdx),%rdi
	mov    %rsi,0x68(%rdx)
	mov    %rcx,0x60(%rax)
	lea    0x90(%rax),%rcx
	movq   $0x0,0x68(%rax)
	movb   $0x0,0x70(%rax)
	mov    %rdi,0x80(%rdx)
	mov    0x80(%rax),%rsi
	cmp    %rcx,%rsi
	je     <_ZNSt6vectorIN9benchmark17BenchmarkReporter3RunESaIS2_EE15_M_range_insertIN9__gnu_cxx17__normal_iteratorIPS2_S4_EEEEvS9_T_SA_St20forward_iterator_tag.isra.0+0x1b60>
	mov    %rsi,0x80(%rdx)
	mov    0x90(%rax),%rsi
	mov    %rsi,0x90(%rdx)
	mov    0x88(%rax),%rsi
	lea    0xb0(%rdx),%rdi
	mov    %rsi,0x88(%rdx)
	mov    %rcx,0x80(%rax)
	lea    0xb0(%rax),%rcx
	movq   $0x0,0x88(%rax)
	movb   $0x0,0x90(%rax)
	mov    %rdi,0xa0(%rdx)
	mov    0xa0(%rax),%rsi
	cmp    %rcx,%rsi
	je     <_ZNSt6vectorIN9benchmark17BenchmarkReporter3RunESaIS2_EE15_M_range_insertIN9__gnu_cxx17__normal_iteratorIPS2_S4_EEEEvS9_T_SA_St20forward_iterator_tag.isra.0+0x1af0>
	mov    %rsi,0xa0(%rdx)
	mov    0xb0(%rax),%rsi
	mov    %rsi,0xb0(%rdx)
	mov    0xa8(%rax),%rsi
	lea    0xd0(%rdx),%rdi
	mov    %rsi,0xa8(%rdx)
	mov    %rcx,0xa0(%rax)
	lea    0xd0(%rax),%rcx
	movq   $0x0,0xa8(%rax)
	movb   $0x0,0xb0(%rax)
	mov    %rdi,0xc0(%rdx)
	mov    0xc0(%rax),%rsi
	cmp    %rcx,%rsi
	je     <_ZNSt6vectorIN9benchmark17BenchmarkReporter3RunESaIS2_EE15_M_range_insertIN9__gnu_cxx17__normal_iteratorIPS2_S4_EEEEvS9_T_SA_St20forward_iterator_tag.isra.0+0x1a80>
	mov    %rsi,0xc0(%rdx)
	mov    0xd0(%rax),%rsi
	mov    %rsi,0xd0(%rdx)
	mov    0xc8(%rax),%rsi
	lea    0xf0(%rdx),%rdi
	mov    %rsi,0xc8(%rdx)
	mov    %rcx,0xc0(%rax)
	lea    0xf0(%rax),%rcx
	movq   $0x0,0xc8(%rax)
	movb   $0x0,0xd0(%rax)
	mov    %rdi,0xe0(%rdx)
	mov    0xe0(%rax),%rsi
	cmp    %rcx,%rsi
	je     <_ZNSt6vectorIN9benchmark17BenchmarkReporter3RunESaIS2_EE15_M_range_insertIN9__gnu_cxx17__normal_iteratorIPS2_S4_EEEEvS9_T_SA_St20forward_iterator_tag.isra.0+0x1a10>
	mov    %rsi,0xe0(%rdx)
	mov    0xf0(%rax),%rsi
	mov    %rsi,0xf0(%rdx)
	mov    0xe8(%rax),%rsi
	mov    %rcx,0xe0(%rax)
	lea    0x128(%rdx),%rdi
	mov    0x110(%rax),%ecx
	mov    %rsi,0xe8(%rdx)
	movdqu 0x100(%rax),%xmm4
	movq   $0x0,0xe8(%rax)
	movb   $0x0,0xf0(%rax)
	mov    %rdi,0x118(%rdx)
	mov    0x118(%rax),%rsi
	mov    %ecx,0x110(%rdx)
	lea    0x128(%rax),%rcx
	movups %xmm4,0x100(%rdx)
	cmp    %rcx,%rsi
	je     <_ZNSt6vectorIN9benchmark17BenchmarkReporter3RunESaIS2_EE15_M_range_insertIN9__gnu_cxx17__normal_iteratorIPS2_S4_EEEEvS9_T_SA_St20forward_iterator_tag.isra.0+0x19a0>
	mov    %rsi,0x118(%rdx)
	mov    0x128(%rax),%rsi
	mov    %rsi,0x128(%rdx)
	mov    0x120(%rax),%rsi
	mov    %rcx,0x118(%rax)
	lea    0x150(%rdx),%rdi
	mov    0x138(%rax),%ecx
	mov    %rsi,0x120(%rdx)
	movq   $0x0,0x120(%rax)
	movb   $0x0,0x128(%rax)
	mov    %rdi,0x140(%rdx)
	mov    0x140(%rax),%rsi
	mov    %ecx,0x138(%rdx)
	lea    0x150(%rax),%rcx
	cmp    %rcx,%rsi
	je     <_ZNSt6vectorIN9benchmark17BenchmarkReporter3RunESaIS2_EE15_M_range_insertIN9__gnu_cxx17__normal_iteratorIPS2_S4_EEEEvS9_T_SA_St20forward_iterator_tag.isra.0+0x1930>
	mov    %rsi,0x140(%rdx)
	mov    0x150(%rax),%rsi
	mov    %rsi,0x150(%rdx)
	mov    0x148(%rax),%rsi
	mov    %rcx,0x140(%rax)
	lea    0x178(%rdx),%rdi
	mov    0x160(%rax),%ecx
	mov    %rsi,0x148(%rdx)
	movq   $0x0,0x148(%rax)
	movb   $0x0,0x150(%rax)
	mov    %rdi,0x168(%rdx)
	mov    0x168(%rax),%rsi
	mov    %ecx,0x160(%rdx)
	lea    0x178(%rax),%rcx
	cmp    %rcx,%rsi
	je     <_ZNSt6vectorIN9benchmark17BenchmarkReporter3RunESaIS2_EE15_M_range_insertIN9__gnu_cxx17__normal_iteratorIPS2_S4_EEEEvS9_T_SA_St20forward_iterator_tag.isra.0+0x18c0>
	mov    %rsi,0x168(%rdx)
	mov    0x178(%rax),%rsi
	mov    %rsi,0x178(%rdx)
	mov    0x170(%rax),%rsi
	mov    %rcx,0x168(%rax)
	mov    0x1a8(%rax),%ecx
	mov    %rsi,0x170(%rdx)
	movupd 0x1b0(%rax),%xmm7
	lea    0x1f8(%rdx),%rsi
	movb   $0x0,0x178(%rax)
	movdqu 0x188(%rax),%xmm5
	movdqu 0x198(%rax),%xmm6
	movsd  0x1c0(%rax),%xmm0
	movq   $0x0,0x170(%rax)
	mov    %ecx,0x1a8(%rdx)
	movzbl 0x1c8(%rax),%ecx
	movups %xmm5,0x188(%rdx)
	mov    %cl,0x1c8(%rdx)
	mov    0x1cc(%rax),%ecx
	movups %xmm6,0x198(%rdx)
	mov    %ecx,0x1cc(%rdx)
	mov    0x1d0(%rax),%rcx
	movups %xmm7,0x1b0(%rdx)
	mov    %rcx,0x1d0(%rdx)
	mov    0x1d8(%rax),%rcx
	movsd  %xmm0,0x1c0(%rdx)
	mov    %rcx,0x1d8(%rdx)
	mov    0x1e0(%rax),%rcx
	mov    %rcx,0x1e0(%rdx)
	movzwl 0x1e8(%rax),%ecx
	mov    %cx,0x1e8(%rdx)
	mov    0x200(%rax),%rcx
	test   %rcx,%rcx
	jne    <_ZNSt6vectorIN9benchmark17BenchmarkReporter3RunESaIS2_EE15_M_range_insertIN9__gnu_cxx17__normal_iteratorIPS2_S4_EEEEvS9_T_SA_St20forward_iterator_tag.isra.0+0x1378>
	movl   $0x0,0x1f8(%rdx)
	movq   $0x0,0x200(%rdx)
	mov    %rsi,0x208(%rdx)
	mov    %rsi,0x210(%rdx)
	movq   $0x0,0x218(%rdx)
	jmp    <_ZNSt6vectorIN9benchmark17BenchmarkReporter3RunESaIS2_EE15_M_range_insertIN9__gnu_cxx17__normal_iteratorIPS2_S4_EEEEvS9_T_SA_St20forward_iterator_tag.isra.0+0x13e2>
	xchg   %ax,%ax
	mov    0x170(%rax),%rsi
	lea    0x1(%rsi),%r8
	cmp    $0x8,%r8d
	jb     <_ZNSt6vectorIN9benchmark17BenchmarkReporter3RunESaIS2_EE15_M_range_insertIN9__gnu_cxx17__normal_iteratorIPS2_S4_EEEEvS9_T_SA_St20forward_iterator_tag.isra.0+0x3650>
	mov    (%rcx),%rsi
	mov    %rsi,(%rdi)
	mov    %r8d,%esi
	mov    -0x8(%rcx,%rsi,1),%r9
	mov    %r9,-0x8(%rdi,%rsi,1)
	lea    0x180(%rdx),%rsi
	mov    %rcx,%r9
	and    $0xfffffffffffffff8,%rsi
	sub    %rsi,%rdi
	add    %edi,%r8d
	sub    %rdi,%r9
	and    $0xfffffff8,%r8d
	cmp    $0x8,%r8d
	jb     <_ZNSt6vectorIN9benchmark17BenchmarkReporter3RunESaIS2_EE15_M_range_insertIN9__gnu_cxx17__normal_iteratorIPS2_S4_EEEEvS9_T_SA_St20forward_iterator_tag.isra.0+0x17b3>
	and    $0xfffffff8,%r8d
	xor    %edi,%edi
	mov    %edi,%r10d
	add    $0x8,%edi
	mov    (%r9,%r10,1),%r11
	mov    %r11,(%rsi,%r10,1)
	cmp    %r8d,%edi
	jb     <_ZNSt6vectorIN9benchmark17BenchmarkReporter3RunESaIS2_EE15_M_range_insertIN9__gnu_cxx17__normal_iteratorIPS2_S4_EEEEvS9_T_SA_St20forward_iterator_tag.isra.0+0x1913>
	jmp    <_ZNSt6vectorIN9benchmark17BenchmarkReporter3RunESaIS2_EE15_M_range_insertIN9__gnu_cxx17__normal_iteratorIPS2_S4_EEEEvS9_T_SA_St20forward_iterator_tag.isra.0+0x17b3>
	nopl   0x0(%rax,%rax,1)
	mov    0x148(%rax),%rsi
	lea    0x1(%rsi),%r8
	cmp    $0x8,%r8d
	jb     <_ZNSt6vectorIN9benchmark17BenchmarkReporter3RunESaIS2_EE15_M_range_insertIN9__gnu_cxx17__normal_iteratorIPS2_S4_EEEEvS9_T_SA_St20forward_iterator_tag.isra.0+0x3610>
	mov    (%rcx),%rsi
	mov    %rsi,(%rdi)
	mov    %r8d,%esi
	mov    -0x8(%rcx,%rsi,1),%r9
	mov    %r9,-0x8(%rdi,%rsi,1)
	lea    0x158(%rdx),%rsi
	mov    %rcx,%r9
	and    $0xfffffffffffffff8,%rsi
	sub    %rsi,%rdi
	add    %edi,%r8d
	sub    %rdi,%r9
	and    $0xfffffff8,%r8d
	cmp    $0x8,%r8d
	jb     <_ZNSt6vectorIN9benchmark17BenchmarkReporter3RunESaIS2_EE15_M_range_insertIN9__gnu_cxx17__normal_iteratorIPS2_S4_EEEEvS9_T_SA_St20forward_iterator_tag.isra.0+0x1746>
	and    $0xfffffff8,%r8d
	xor    %edi,%edi
	mov    %edi,%r10d
	add    $0x8,%edi
	mov    (%r9,%r10,1),%r11
	mov    %r11,(%rsi,%r10,1)
	cmp    %r8d,%edi
	jb     <_ZNSt6vectorIN9benchmark17BenchmarkReporter3RunESaIS2_EE15_M_range_insertIN9__gnu_cxx17__normal_iteratorIPS2_S4_EEEEvS9_T_SA_St20forward_iterator_tag.isra.0+0x1983>
	jmp    <_ZNSt6vectorIN9benchmark17BenchmarkReporter3RunESaIS2_EE15_M_range_insertIN9__gnu_cxx17__normal_iteratorIPS2_S4_EEEEvS9_T_SA_St20forward_iterator_tag.isra.0+0x1746>
	nopl   0x0(%rax,%rax,1)
	mov    0x120(%rax),%rsi
	lea    0x1(%rsi),%r8
	cmp    $0x8,%r8d
	jb     <_ZNSt6vectorIN9benchmark17BenchmarkReporter3RunESaIS2_EE15_M_range_insertIN9__gnu_cxx17__normal_iteratorIPS2_S4_EEEEvS9_T_SA_St20forward_iterator_tag.isra.0+0x35d0>
	mov    (%rcx),%rsi
	mov    %rsi,(%rdi)
	mov    %r8d,%esi
	mov    -0x8(%rcx,%rsi,1),%r9
	mov    %r9,-0x8(%rdi,%rsi,1)
	lea    0x130(%rdx),%rsi
	mov    %rcx,%r9
	and    $0xfffffffffffffff8,%rsi
	sub    %rsi,%rdi
	add    %edi,%r8d
	sub    %rdi,%r9
	and    $0xfffffff8,%r8d
	cmp    $0x8,%r8d
	jb     <_ZNSt6vectorIN9benchmark17BenchmarkReporter3RunESaIS2_EE15_M_range_insertIN9__gnu_cxx17__normal_iteratorIPS2_S4_EEEEvS9_T_SA_St20forward_iterator_tag.isra.0+0x16d9>
	and    $0xfffffff8,%r8d
	xor    %edi,%edi
	mov    %edi,%r10d
	add    $0x8,%edi
	mov    (%r9,%r10,1),%r11
	mov    %r11,(%rsi,%r10,1)
	cmp    %r8d,%edi
	jb     <_ZNSt6vectorIN9benchmark17BenchmarkReporter3RunESaIS2_EE15_M_range_insertIN9__gnu_cxx17__normal_iteratorIPS2_S4_EEEEvS9_T_SA_St20forward_iterator_tag.isra.0+0x19f3>
	jmp    <_ZNSt6vectorIN9benchmark17BenchmarkReporter3RunESaIS2_EE15_M_range_insertIN9__gnu_cxx17__normal_iteratorIPS2_S4_EEEEvS9_T_SA_St20forward_iterator_tag.isra.0+0x16d9>
	nopl   0x0(%rax,%rax,1)
	mov    0xe8(%rax),%rsi
	lea    0x1(%rsi),%r8
	cmp    $0x8,%r8d
	jb     <_ZNSt6vectorIN9benchmark17BenchmarkReporter3RunESaIS2_EE15_M_range_insertIN9__gnu_cxx17__normal_iteratorIPS2_S4_EEEEvS9_T_SA_St20forward_iterator_tag.isra.0+0x3590>
	mov    (%rcx),%rsi
	mov    %rsi,(%rdi)
	mov    %r8d,%esi
	mov    -0x8(%rcx,%rsi,1),%r9
	mov    %r9,-0x8(%rdi,%rsi,1)
	lea    0xf8(%rdx),%rsi
	mov    %rcx,%r9
	and    $0xfffffffffffffff8,%rsi
	sub    %rsi,%rdi
	add    %edi,%r8d
	sub    %rdi,%r9
	and    $0xfffffff8,%r8d
	cmp    $0x8,%r8d
	jb     <_ZNSt6vectorIN9benchmark17BenchmarkReporter3RunESaIS2_EE15_M_range_insertIN9__gnu_cxx17__normal_iteratorIPS2_S4_EEEEvS9_T_SA_St20forward_iterator_tag.isra.0+0x165d>
	and    $0xfffffff8,%r8d
	xor    %edi,%edi
	mov    %edi,%r10d
	add    $0x8,%edi
	mov    (%r9,%r10,1),%r11
	mov    %r11,(%rsi,%r10,1)
	cmp    %r8d,%edi
	jb     <_ZNSt6vectorIN9benchmark17BenchmarkReporter3RunESaIS2_EE15_M_range_insertIN9__gnu_cxx17__normal_iteratorIPS2_S4_EEEEvS9_T_SA_St20forward_iterator_tag.isra.0+0x1a63>
	jmp    <_ZNSt6vectorIN9benchmark17BenchmarkReporter3RunESaIS2_EE15_M_range_insertIN9__gnu_cxx17__normal_iteratorIPS2_S4_EEEEvS9_T_SA_St20forward_iterator_tag.isra.0+0x165d>
	nopl   0x0(%rax,%rax,1)
	mov    0xc8(%rax),%rsi
	lea    0x1(%rsi),%r8
	cmp    $0x8,%r8d
	jb     <_ZNSt6vectorIN9benchmark17BenchmarkReporter3RunESaIS2_EE15_M_range_insertIN9__gnu_cxx17__normal_iteratorIPS2_S4_EEEEvS9_T_SA_St20forward_iterator_tag.isra.0+0x3550>
	mov    (%rcx),%rsi
	mov    %rsi,(%rdi)
	mov    %r8d,%esi
	mov    -0x8(%rcx,%rsi,1),%r9
	mov    %r9,-0x8(%rdi,%rsi,1)
	lea    0xd8(%rdx),%rsi
	mov    %rcx,%r9
	and    $0xfffffffffffffff8,%rsi
	sub    %rsi,%rdi
	add    %edi,%r8d
	sub    %rdi,%r9
	and    $0xfffffff8,%r8d
	cmp    $0x8,%r8d
	jb     <_ZNSt6vectorIN9benchmark17BenchmarkReporter3RunESaIS2_EE15_M_range_insertIN9__gnu_cxx17__normal_iteratorIPS2_S4_EEEEvS9_T_SA_St20forward_iterator_tag.isra.0+0x15fc>
	and    $0xfffffff8,%r8d
	xor    %edi,%edi
	mov    %edi,%r10d
	add    $0x8,%edi
	mov    (%r9,%r10,1),%r11
	mov    %r11,(%rsi,%r10,1)
	cmp    %r8d,%edi
	jb     <_ZNSt6vectorIN9benchmark17BenchmarkReporter3RunESaIS2_EE15_M_range_insertIN9__gnu_cxx17__normal_iteratorIPS2_S4_EEEEvS9_T_SA_St20forward_iterator_tag.isra.0+0x1ad3>
	jmp    <_ZNSt6vectorIN9benchmark17BenchmarkReporter3RunESaIS2_EE15_M_range_insertIN9__gnu_cxx17__normal_iteratorIPS2_S4_EEEEvS9_T_SA_St20forward_iterator_tag.isra.0+0x15fc>
	nopl   0x0(%rax,%rax,1)
	mov    0xa8(%rax),%rsi
	lea    0x1(%rsi),%r8
	cmp    $0x8,%r8d
	jb     <_ZNSt6vectorIN9benchmark17BenchmarkReporter3RunESaIS2_EE15_M_range_insertIN9__gnu_cxx17__normal_iteratorIPS2_S4_EEEEvS9_T_SA_St20forward_iterator_tag.isra.0+0x3510>
	mov    (%rcx),%rsi
	mov    %rsi,(%rdi)
	mov    %r8d,%esi
	mov    -0x8(%rcx,%rsi,1),%r9
	mov    %r9,-0x8(%rdi,%rsi,1)
	lea    0xb8(%rdx),%rsi
	mov    %rcx,%r9
	and    $0xfffffffffffffff8,%rsi
	sub    %rsi,%rdi
	add    %edi,%r8d
	sub    %rdi,%r9
	and    $0xfffffff8,%r8d
	cmp    $0x8,%r8d
	jb     <_ZNSt6vectorIN9benchmark17BenchmarkReporter3RunESaIS2_EE15_M_range_insertIN9__gnu_cxx17__normal_iteratorIPS2_S4_EEEEvS9_T_SA_St20forward_iterator_tag.isra.0+0x159b>
	and    $0xfffffff8,%r8d
	xor    %edi,%edi
	mov    %edi,%r10d
	add    $0x8,%edi
	mov    (%r9,%r10,1),%r11
	mov    %r11,(%rsi,%r10,1)
	cmp    %r8d,%edi
	jb     <_ZNSt6vectorIN9benchmark17BenchmarkReporter3RunESaIS2_EE15_M_range_insertIN9__gnu_cxx17__normal_iteratorIPS2_S4_EEEEvS9_T_SA_St20forward_iterator_tag.isra.0+0x1b43>
